 mdraw

 Timestamp is 62eed27e (Sat Aug  6 16:43:42 2022)

 Preferred load address is 10000000

 Start         Length     Name                   Class
 0001:00000000 000002e0H .text$di                CODE
 0001:000002e0 00081b80H .text$mn                CODE
 0001:00081e60 00001c44H .text$x                 CODE
 0002:00000000 00000284H .idata$5                DATA
 0002:00000284 0000000cH .00cfg                  DATA
 0002:00000290 00000004H .CRT$XCA                DATA
 0002:00000294 0000005cH .CRT$XCU                DATA
 0002:000002f0 00000004H .CRT$XCZ                DATA
 0002:000002f4 00000004H .CRT$XIA                DATA
 0002:000002f8 00000010H .CRT$XIC                DATA
 0002:00000308 00000004H .CRT$XIZ                DATA
 0002:0000030c 00000004H .CRT$XPA                DATA
 0002:00000310 00000008H .CRT$XPX                DATA
 0002:00000318 00000004H .CRT$XPXA               DATA
 0002:0000031c 00000004H .CRT$XPZ                DATA
 0002:00000320 00000004H .CRT$XTA                DATA
 0002:00000324 0000000cH .CRT$XTZ                DATA
 0002:00000328 00000000H .gfids$y                DATA
 0002:00000330 0000af10H .rdata                  DATA
 0002:0000b240 00000040H .rdata$CastGuardVftablesA DATA
 0002:0000b280 00000040H .rdata$CastGuardVftablesC DATA
 0002:0000b2c0 00000a28H .rdata$r                DATA
 0002:0000bce8 000001e8H .rdata$sxdata           DATA
 0002:0000bed0 000006b8H .rdata$voltmd           DATA
 0002:0000c588 000003a0H .rdata$zzzdbg           DATA
 0002:0000c928 00000004H .rtc$IAA                DATA
 0002:0000c92c 00000004H .rtc$IZZ                DATA
 0002:0000c930 00000004H .rtc$TAA                DATA
 0002:0000c934 00000004H .rtc$TZZ                DATA
 0002:0000c938 000027d8H .xdata$x                DATA
 0002:0000f110 000002bcH .edata                  DATA
 0002:0000f3cc 00000064H .idata$2                DATA
 0002:0000f430 00000014H .idata$3                DATA
 0002:0000f444 00000284H .idata$4                DATA
 0002:0000f6c8 00000b7aH .idata$6                DATA
 0003:00000000 00003550H .data                   DATA
 0003:00003550 000001acH .data$r                 DATA
 0003:000036fc 0000028cH .data$rs                DATA
 0003:00003988 00001a28H .bss                    DATA
 0004:00000000 00000360H .rsrc$01                DATA
 0004:00000360 0001da08H .rsrc$02                DATA

  Address         Publics by Value              Rva+Base       Lib:Object

 0000:00000000       ___AbsoluteZero            00000000     <absolute>
 0000:00000000       ___arm64x_extra_rfe_table  00000000     <absolute>
 0000:00000000       ___arm64x_extra_rfe_table_size 00000000     <absolute>
 0000:00000000       ___arm64x_native_entrypoint 00000000     <absolute>
 0000:00000000       ___arm64x_redirection_metadata 00000000     <absolute>
 0000:00000000       ___arm64x_redirection_metadata_count 00000000     <absolute>
 0000:00000000       ___dynamic_value_reloc_table 00000000     <absolute>
 0000:00000000       ___enclave_config          00000000     <absolute>
 0000:00000000       ___guard_check_icall_a64n_fptr 00000000     <absolute>
 0000:00000000       ___guard_eh_cont_count     00000000     <absolute>
 0000:00000000       ___guard_eh_cont_table     00000000     <absolute>
 0000:00000000       ___guard_fids_count        00000000     <absolute>
 0000:00000000       ___guard_fids_table        00000000     <absolute>
 0000:00000000       ___guard_iat_count         00000000     <absolute>
 0000:00000000       ___guard_iat_table         00000000     <absolute>
 0000:00000000       ___guard_longjmp_count     00000000     <absolute>
 0000:00000000       ___guard_longjmp_table     00000000     <absolute>
 0000:00000000       ___hybrid_auxiliary_iat    00000000     <absolute>
 0000:00000000       ___hybrid_auxiliary_iat_copy 00000000     <absolute>
 0000:00000000       ___hybrid_code_map         00000000     <absolute>
 0000:00000000       ___hybrid_code_map_count   00000000     <absolute>
 0000:00000000       ___x64_code_ranges_to_entry_points 00000000     <absolute>
 0000:00000000       ___x64_code_ranges_to_entry_points_count 00000000     <absolute>
 0000:00000000       __except_list              00000000     <absolute>
 0000:0000007a       ___safe_se_handler_count   0000007a     <absolute>
 0000:00000100       ___guard_flags             00000100     <absolute>
 0000:00000000       ___ImageBase               10000000     <linker-defined>
 0001:000002e0       ??0MappedMap@@QAE@HH@Z     100012e0 f   MappedMAP.obj
 0001:00000340       ??1MappedMap@@QAE@XZ       10001340 f   MappedMAP.obj
 0001:00000390       ?NowDrawMapped@MappedMap@@QAEHPAEPAUtagPOINT@@@Z 10001390 f   MappedMAP.obj
 0001:00000a70       ?PictureInfo@MappedMap@@QAEPAEPAPAEPAUtagPOINT@@@Z 10001a70 f   MappedMAP.obj
 0001:00000aa0       ??0MegaMapControl@@QAE@PAVFullScreenMinimap@@PAUtagRECT@@11HHHHHH@Z 10001aa0 f   MegamapControl.obj
 0001:00000c70       ??1MegaMapControl@@QAE@XZ  10001c70 f   MegamapControl.obj
 0001:00000d10       ??_GInlineSingleHook@@QAEPAXI@Z 10001d10 f i MegamapControl.obj
 0001:00000d40       ?CheckInControl@MegaMapControl@@AAEHHH@Z 10001d40 f   MegamapControl.obj
 0001:00000e70       ?CheckInMap@MegaMapControl@@AAEHHH@Z 10001e70 f   MegamapControl.obj
 0001:00000ec0       ?DoubleClick@MegaMapControl@@AAEHHH_N@Z 10001ec0 f   MegamapControl.obj
 0001:00001010       ?EnterMegaMap@MegaMapControl@@QAEXXZ 10002010 f   MegamapControl.obj
 0001:00001100       ?FindMouseUnitRounte@@YGHPAUtagInlineX86StackBuffer@@@Z 10002100 f   MegamapControl.obj
 0001:00001140       ?GetGridPosFeatureRounte@@YGHPAUtagInlineX86StackBuffer@@@Z 10002140 f   MegamapControl.obj
 0001:00001180       ?GetPosition_DwordRounte@@YGHPAUtagInlineX86StackBuffer@@@Z 10002180 f   MegamapControl.obj
 0001:000011b0       ?Init@MegaMapControl@@QAEXPAVFullScreenMinimap@@PAUtagRECT@@11HHHHHH@Z 100021b0 f   MegamapControl.obj
 0001:00001360       ?IsBliting@MegaMapControl@@QAEHXZ 10002360 f   MegamapControl.obj
 0001:00001380       ?IsDrawCursor@MegaMapControl@@QAEHHH@Z 10002380 f   MegamapControl.obj
 0001:00001500       ?IsDrawOrder@MegaMapControl@@QAEHXZ 10002500 f   MegamapControl.obj
 0001:00001530       ?IsDrawRect@MegaMapControl@@QAEHH@Z 10002530 f   MegamapControl.obj
 0001:00001600       ?IsInControl@MegaMapControl@@QAEHXZ 10002600 f   MegamapControl.obj
 0001:00001620       ?IsInMap@MegaMapControl@@QAEHXZ 10002620 f   MegamapControl.obj
 0001:00001640       ?LeftDown@MegaMapControl@@AAEHHH_N@Z 10002640 f   MegamapControl.obj
 0001:00001660       ?LeftUp@MegaMapControl@@AAEHHH_N@Z 10002660 f   MegamapControl.obj
 0001:00001960       ?MegamapMoveSceen@MegaMapControl@@AAEXHH@Z 10002960 f   MegamapControl.obj
 0001:00001a50       ?Message@MegaMapControl@@QAE_NPAUHWND__@@IIJ@Z 10002a50 f   MegamapControl.obj
 0001:00001e80       ?MouseMove@MegaMapControl@@AAEHHH@Z 10002e80 f   MegamapControl.obj
 0001:00002100       ?MoveScreen@MegaMapControl@@AAEXHHH@Z 10003100 f   MegamapControl.obj
 0001:00002210       ?QuitMegaMap@MegaMapControl@@QAEXXZ 10003210 f   MegamapControl.obj
 0001:00002280       ?ReadSelectRect@MegaMapControl@@QAEPAUtagRECT@@PAU2@@Z 10003280 f   MegamapControl.obj
 0001:000022b0       ?ReadSelectState@MegaMapControl@@QAE?AW4SELECTBUTTOM@selectbuttom@@XZ 100032b0 f   MegamapControl.obj
 0001:000022d0       ?RightDown@MegaMapControl@@AAEHHH_N@Z 100032d0 f   MegamapControl.obj
 0001:000022f0       ?RightUp@MegaMapControl@@AAEHHH_N@Z 100032f0 f   MegamapControl.obj
 0001:00002430       ?ScreenPos2TAPos@MegaMapControl@@AAEPAU_Position_Dword@@PAU2@HHH@Z 10003430 f   MegamapControl.obj
 0001:000024c0       ?SelectDown@MegaMapControl@@AAEHHH_N@Z 100034c0 f   MegamapControl.obj
 0001:00002500       ?SelectMove@MegaMapControl@@AAEHHH_N0@Z 10003500 f   MegamapControl.obj
 0001:000025c0       ?SelectUp@MegaMapControl@@AAEHHH_N0@Z 100035c0 f   MegamapControl.obj
 0001:000027e0       ?Set@MegaMapControl@@QAEXH@Z 100037e0 f   MegamapControl.obj
 0001:00002800       ?TAPos2ScreenPos@MegaMapControl@@AAEPAUtagPOINT@@PAU2@III@Z 10003800 f   MegamapControl.obj
 0001:00002870       ?WheelBack@MegaMapControl@@AAEHHH@Z 10003870 f   MegamapControl.obj
 0001:000028b0       ?WheelFont@MegaMapControl@@AAEHHH@Z 100038b0 f   MegamapControl.obj
 0001:00002910       ?abs@@YGJJ@Z               10003910 f i MegamapControl.obj
 0001:00002930       ??$?0$$V@?$_Compressed_pair@V?$allocator@U_Position_Dword@@@std@@V?$_Vector_val@U?$_Simple_types@U_Position_Dword@@@std@@@2@$00@std@@QAE@U_Zero_then_variadic_args_t@1@@Z 10003930 f i MegamapTAStuff.obj
 0001:00002950       ??$_Allocate@$07U_Default_allocate_traits@std@@$0A@@std@@YGPAXI@Z 10003950 f i MegamapTAStuff.obj
 0001:00002980       ??$_Allocate_manually_vector_aligned@U_Default_allocate_traits@std@@@std@@YGPAXI@Z 10003980 f i MegamapTAStuff.obj
 0001:000029f0       ??$_Construct_in_place@U_Position_Dword@@ABU1@@std@@YGXAAU_Position_Dword@@ABU1@@Z 100039f0 f i MegamapTAStuff.obj
 0001:00002a40       ??$_Copy_memmove@PAU_Position_Dword@@PAU1@@std@@YGPAU_Position_Dword@@PAU1@00@Z 10003a40 f i MegamapTAStuff.obj
 0001:00002ab0       ??$_Deallocate@$07$0A@@std@@YGXPAXI@Z 10003ab0 f i MegamapTAStuff.obj
 0001:00002b10       ??$_Destroy_range@V?$allocator@U_Position_Dword@@@std@@@std@@YGXPAU_Position_Dword@@QAU1@AAV?$allocator@U_Position_Dword@@@0@@Z 10003b10 f i MegamapTAStuff.obj
 0001:00002b20       ??$_Emplace_back@U_Position_Dword@@@?$_Uninitialized_backout_al@V?$allocator@U_Position_Dword@@@std@@@std@@QAEX$$QAU_Position_Dword@@@Z 10003b20 f i MegamapTAStuff.obj
 0001:00002b60       ??$_Emplace_back_with_unused_capacity@ABU_Position_Dword@@@?$vector@U_Position_Dword@@V?$allocator@U_Position_Dword@@@std@@@std@@AAEAAU_Position_Dword@@ABU2@@Z 10003b60 f i MegamapTAStuff.obj
 0001:00002bc0       ??$_Emplace_one_at_back@ABU_Position_Dword@@@?$vector@U_Position_Dword@@V?$allocator@U_Position_Dword@@@std@@@std@@AAEAAU_Position_Dword@@ABU2@@Z 10003bc0 f i MegamapTAStuff.obj
 0001:00002c20       ??$_Emplace_reallocate@ABU_Position_Dword@@@?$vector@U_Position_Dword@@V?$allocator@U_Position_Dword@@@std@@@std@@AAEPAU_Position_Dword@@QAU2@ABU2@@Z 10003c20 f i MegamapTAStuff.obj
 0001:00002e00       ??$_Get_size_of_n@$0M@@std@@YGII@Z 10003e00 f i MegamapTAStuff.obj
 0001:00002e30       ??$_Get_unwrapped@ABQAU_Position_Dword@@@std@@YG?A_TABQAU_Position_Dword@@@Z 10003e30 f i MegamapTAStuff.obj
 0001:00002e40       ??$_To_address@PAU_Position_Dword@@@std@@YG?A_PABQAU_Position_Dword@@@Z 10003e40 f i MegamapTAStuff.obj
 0001:00002e50       ??$_Unfancy@U_Position_Dword@@@std@@YGPAU_Position_Dword@@PAU1@@Z 10003e50 f i MegamapTAStuff.obj
 0001:00002e60       ??$_Uninitialized_move@PAU_Position_Dword@@V?$allocator@U_Position_Dword@@@std@@@std@@YGPAU_Position_Dword@@QAU1@0PAU1@AAV?$allocator@U_Position_Dword@@@0@@Z 10003e60 f i MegamapTAStuff.obj
 0001:00002f40       ??$_Voidify_iter@PAU_Position_Dword@@@std@@YGPAXPAU_Position_Dword@@@Z 10003f40 f i MegamapTAStuff.obj
 0001:00002f50       ??$addressof@U_Position_Dword@@@std@@YGPAU_Position_Dword@@AAU1@@Z 10003f50 f i MegamapTAStuff.obj
 0001:00002f60       ??$addressof@V?$_Vector_val@U?$_Simple_types@U_Position_Dword@@@std@@@std@@@std@@YGPAV?$_Vector_val@U?$_Simple_types@U_Position_Dword@@@std@@@0@AAV10@@Z 10003f60 f i MegamapTAStuff.obj
 0001:00002f70       ??$construct@U_Position_Dword@@ABU1@@?$_Default_allocator_traits@V?$allocator@U_Position_Dword@@@std@@@std@@SGXAAV?$allocator@U_Position_Dword@@@1@QAU_Position_Dword@@ABU3@@Z 10003f70 f i MegamapTAStuff.obj
 0001:00002fb0       ??$construct@U_Position_Dword@@U1@@?$_Default_allocator_traits@V?$allocator@U_Position_Dword@@@std@@@std@@SGXAAV?$allocator@U_Position_Dword@@@1@QAU_Position_Dword@@$$QAU3@@Z 10003fb0 f i MegamapTAStuff.obj
 0001:00002ff0       ??$emplace_back@ABU_Position_Dword@@@?$vector@U_Position_Dword@@V?$allocator@U_Position_Dword@@@std@@@std@@QAE?A_TABU_Position_Dword@@@Z 10003ff0 f i MegamapTAStuff.obj
 0001:00003020       ??$forward@ABU_Position_Dword@@@std@@YGABU_Position_Dword@@ABU1@@Z 10004020 f i MegamapTAStuff.obj
 0001:00003030       ??$forward@U_Position_Dword@@@std@@YG$$QAU_Position_Dword@@AAU1@@Z 10004030 f i MegamapTAStuff.obj
 0001:00003040       ??$min@I@std@@YGABIABI0@Z  10004040 f i MegamapTAStuff.obj
 0001:00003070       ??$move@AAU_Position_Dword@@@std@@YG$$QAU_Position_Dword@@AAU1@@Z 10004070 f i MegamapTAStuff.obj
 0001:00003080       ??$sprintf_s@$0BAA@@@YAHAAY0BAA@DPBDZZ 10004080 f i MegamapTAStuff.obj
 0001:000030b0       ??0?$_Uninitialized_backout_al@V?$allocator@U_Position_Dword@@@std@@@std@@QAE@PAU_Position_Dword@@AAV?$allocator@U_Position_Dword@@@1@@Z 100040b0 f i MegamapTAStuff.obj
 0001:000030e0       ??0?$_Vector_const_iterator@V?$_Vector_val@U?$_Simple_types@U_Position_Dword@@@std@@@std@@@std@@QAE@PAU_Position_Dword@@PBU_Container_base0@1@@Z 100040e0 f i MegamapTAStuff.obj
 0001:00003110       ??0?$_Vector_iterator@V?$_Vector_val@U?$_Simple_types@U_Position_Dword@@@std@@@std@@@std@@QAE@PAU_Position_Dword@@PBU_Container_base0@1@@Z 10004110 f i MegamapTAStuff.obj
 0001:00003130       ??0?$_Vector_val@U?$_Simple_types@U_Position_Dword@@@std@@@std@@QAE@XZ 10004130 f i MegamapTAStuff.obj
 0001:00003160       ??0?$allocator@U_Position_Dword@@@std@@QAE@XZ 10004160 f i MegamapTAStuff.obj
 0001:00003170       ??0?$vector@U_Position_Dword@@V?$allocator@U_Position_Dword@@@std@@@std@@QAE@XZ 10004170 f i MegamapTAStuff.obj
 0001:000031a0       ??0MegamapTAStuff@@QAE@PAVFullScreenMinimap@@PAUtagRECT@@11HHH@Z 100041a0 f   MegamapTAStuff.obj
 0001:00003220       ??0bad_alloc@std@@AAE@QBD@Z 10004220 f i MegamapTAStuff.obj
 0001:00003250       ??0bad_alloc@std@@QAE@ABV01@@Z 10004250 f i MegamapTAStuff.obj
 0001:00003280       ??0bad_array_new_length@std@@QAE@ABV01@@Z 10004280 f i MegamapTAStuff.obj
 0001:000032b0       ??0bad_array_new_length@std@@QAE@XZ 100042b0 f i MegamapTAStuff.obj
 0001:000032e0       ??0exception@std@@QAE@ABV01@@Z 100042e0 f i MegamapTAStuff.obj
 0001:00003320       ??0exception@std@@QAE@QBDH@Z 10004320 f i MegamapTAStuff.obj
 0001:00003350       ??1?$_Uninitialized_backout_al@V?$allocator@U_Position_Dword@@@std@@@std@@QAE@XZ 10004350 f i MegamapTAStuff.obj
 0001:00003380       ??1?$vector@U_Position_Dword@@V?$allocator@U_Position_Dword@@@std@@@std@@QAE@XZ 10004380 f i MegamapTAStuff.obj
 0001:000033a0       ??1MegamapTAStuff@@QAE@XZ  100043a0 f   MegamapTAStuff.obj
 0001:000033e0       ??1bad_alloc@std@@UAE@XZ   100043e0 f i MegamapTAStuff.obj
 0001:00003400       ??1bad_array_new_length@std@@UAE@XZ 10004400 f i MegamapTAStuff.obj
 0001:00003420       ??1exception@std@@UAE@XZ   10004420 f i MegamapTAStuff.obj
 0001:00003450       ??2@YAPAXIPAX@Z            10004450 f i MegamapTAStuff.obj
 0001:00003460       ??8?$_Vector_const_iterator@V?$_Vector_val@U?$_Simple_types@U_Position_Dword@@@std@@@std@@@std@@QBE_NABV01@@Z 10004460 f i MegamapTAStuff.obj
 0001:000034a0       ??9?$_Vector_const_iterator@V?$_Vector_val@U?$_Simple_types@U_Position_Dword@@@std@@@std@@@std@@QBE_NABV01@@Z 100044a0 f i MegamapTAStuff.obj
 0001:000034e0       ??C?$_Vector_iterator@V?$_Vector_val@U?$_Simple_types@U_Position_Dword@@@std@@@std@@@std@@QBEPAU_Position_Dword@@XZ 100044e0 f i MegamapTAStuff.obj
 0001:000034f0       ??E?$_Vector_const_iterator@V?$_Vector_val@U?$_Simple_types@U_Position_Dword@@@std@@@std@@@std@@QAEAAV01@XZ 100044f0 f i MegamapTAStuff.obj
 0001:00003510       ??E?$_Vector_iterator@V?$_Vector_val@U?$_Simple_types@U_Position_Dword@@@std@@@std@@@std@@QAEAAV01@XZ 10004510 f i MegamapTAStuff.obj
 0001:00003530       ??_Ebad_alloc@std@@UAEPAXI@Z 10004530 f i MegamapTAStuff.obj
 0001:00003530       ??_Gbad_alloc@std@@UAEPAXI@Z 10004530 f i MegamapTAStuff.obj
 0001:00003560       ??_Ebad_array_new_length@std@@UAEPAXI@Z 10004560 f i MegamapTAStuff.obj
 0001:00003560       ??_Gbad_array_new_length@std@@UAEPAXI@Z 10004560 f i MegamapTAStuff.obj
 0001:00003590       ??_Eexception@std@@UAEPAXI@Z 10004590 f i MegamapTAStuff.obj
 0001:00003590       ??_Gexception@std@@UAEPAXI@Z 10004590 f i MegamapTAStuff.obj
 0001:000035c0       ?BlitOrder@MegamapTAStuff@@QAEXPAXHHH@Z 100045c0 f   MegamapTAStuff.obj
 0001:00003d50       ?BlitSelect@MegamapTAStuff@@QAEXPAXHHH@Z 10004d50 f   MegamapTAStuff.obj
 0001:00003f40       ?DrawBuildRect@MegamapTAStuff@@QAEXPAU_OFFSCREEN@@EPAUUnitDefStruct@@HHH@Z 10004f40 f   MegamapTAStuff.obj
 0001:00004070       ?DrawCursor@MegamapTAStuff@@QAEXPAXHHHII@Z 10005070 f   MegamapTAStuff.obj
 0001:000040d0       ?DrawOrderPath@MegamapTAStuff@@QAEXPAU_OFFSCREEN@@PAUUnitOrdersStruct@@PAU_Position_Dword@@@Z 100050d0 f   MegamapTAStuff.obj
 0001:000043e0       ?DrawTargatOrder@MegamapTAStuff@@QAEXPAU_OFFSCREEN@@PAUUnitOrdersStruct@@PAUPlayerStruct@@@Z 100053e0 f   MegamapTAStuff.obj
 0001:00004550       ?GetTAStuffSurface@MegamapTAStuff@@QAEPAEXZ 10005550 f   MegamapTAStuff.obj
 0001:00004570       ?Init@MegamapTAStuff@@QAEXPAVFullScreenMinimap@@PAUtagRECT@@11HHH@Z 10005570 f   MegamapTAStuff.obj
 0001:00004790       ?InitSurface@MegamapTAStuff@@QAEXPAUIDirectDraw@@H@Z 10005790 f   MegamapTAStuff.obj
 0001:00004cb0       ?LockBlit@MegamapTAStuff@@QAEXPAXHHH@Z 10005cb0 f   MegamapTAStuff.obj
 0001:00004df0       ?LockBlit_MEGA@MegamapTAStuff@@QAEXPAXHHH@Z 10005df0 f   MegamapTAStuff.obj
 0001:00004e60       ?LockBlit_TA@MegamapTAStuff@@QAEXPAXHHHPAH@Z 10005e60 f   MegamapTAStuff.obj
 0001:00005210       ?ReleaseSurface@MegamapTAStuff@@QAEXXZ 10006210 f   MegamapTAStuff.obj
 0001:000052c0       ?ScreenPos2TAPos@MegamapTAStuff@@AAEPAU_Position_Dword@@PAU2@HHH@Z 100062c0 f   MegamapTAStuff.obj
 0001:00005350       ?TADrawRect@MegamapTAStuff@@QAEXPAU_OFFSCREEN@@HHHHHHH@Z 10006350 f   MegamapTAStuff.obj
 0001:00005470       ?TAPos2ScreenPos@MegamapTAStuff@@AAEPAUtagPOINT@@PAU2@III@Z 10006470 f   MegamapTAStuff.obj
 0001:000054d0       ?UpdateTAGameStuffMEGA@MegamapTAStuff@@QAEXPAXHHPAH@Z 100064d0 f   MegamapTAStuff.obj
 0001:00005570       ?UpdateTAGameStuffTA@MegamapTAStuff@@QAEXPAU_DDSURFACEDESC@@HHPAH@Z 10006570 f   MegamapTAStuff.obj
 0001:00005620       ?_Adjust_manually_vector_aligned@std@@YGXAAPAXAAI@Z 10006620 f i MegamapTAStuff.obj
 0001:00005690       ?_Adopt@_Iterator_base0@std@@QAEXPBX@Z 10006690 f i MegamapTAStuff.obj
 0001:000056a0       ?_Alloc_proxy@_Container_base0@std@@QAEXABU_Fake_allocator@2@@Z 100066a0 f i MegamapTAStuff.obj
 0001:000056b0       ?_Allocate@_Default_allocate_traits@std@@SGPAXI@Z 100066b0 f i MegamapTAStuff.obj
 0001:000056d0       ?_Calculate_growth@?$vector@U_Position_Dword@@V?$allocator@U_Position_Dword@@@std@@@std@@ABEII@Z 100066d0 f i MegamapTAStuff.obj
 0001:00005730       ?_Change_array@?$vector@U_Position_Dword@@V?$allocator@U_Position_Dword@@@std@@@std@@AAEXQAU_Position_Dword@@II@Z 10006730 f i MegamapTAStuff.obj
 0001:000057d0       ?_Compat@?$_Vector_const_iterator@V?$_Vector_val@U?$_Simple_types@U_Position_Dword@@@std@@@std@@@std@@QBEXABV12@@Z 100067d0 f i MegamapTAStuff.obj
 0001:000057e0       ?_Get_first@?$_Compressed_pair@V?$allocator@U_Position_Dword@@@std@@V?$_Vector_val@U?$_Simple_types@U_Position_Dword@@@std@@@2@$00@std@@QAEAAV?$allocator@U_Position_Dword@@@2@XZ 100067e0 f i MegamapTAStuff.obj
 0001:000057f0       ?_Get_first@?$_Compressed_pair@V?$allocator@U_Position_Dword@@@std@@V?$_Vector_val@U?$_Simple_types@U_Position_Dword@@@std@@@2@$00@std@@QBEABV?$allocator@U_Position_Dword@@@2@XZ 100067f0 f i MegamapTAStuff.obj
 0001:00005800       ?_Getal@?$vector@U_Position_Dword@@V?$allocator@U_Position_Dword@@@std@@@std@@AAEAAV?$allocator@U_Position_Dword@@@2@XZ 10006800 f i MegamapTAStuff.obj
 0001:00005820       ?_Getal@?$vector@U_Position_Dword@@V?$allocator@U_Position_Dword@@@std@@@std@@ABEABV?$allocator@U_Position_Dword@@@2@XZ 10006820 f i MegamapTAStuff.obj
 0001:00005840       ?_Orphan_all@_Container_base0@std@@QAEXXZ 10006840 f i MegamapTAStuff.obj
 0001:00005850       ?_Orphan_range@?$vector@U_Position_Dword@@V?$allocator@U_Position_Dword@@@std@@@std@@ABEXPAU_Position_Dword@@0@Z 10006850 f i MegamapTAStuff.obj
 0001:00005860       ?_Release@?$_Uninitialized_backout_al@V?$allocator@U_Position_Dword@@@std@@@std@@QAEPAU_Position_Dword@@XZ 10006860 f i MegamapTAStuff.obj
 0001:00005880       ?_Throw_bad_array_new_length@std@@YGXXZ 10006880 f i MegamapTAStuff.obj
 0001:000058a0       ?_Tidy@?$vector@U_Position_Dword@@V?$allocator@U_Position_Dword@@@std@@@std@@AAEXXZ 100068a0 f i MegamapTAStuff.obj
 0001:00005970       ?_Xlength@?$vector@U_Position_Dword@@V?$allocator@U_Position_Dword@@@std@@@std@@CGXXZ 10006970 f i MegamapTAStuff.obj
 0001:00005980       ?allocate@?$allocator@U_Position_Dword@@@std@@QAEPAU_Position_Dword@@I@Z 10006980 f i MegamapTAStuff.obj
 0001:000059a0       ?begin@?$vector@U_Position_Dword@@V?$allocator@U_Position_Dword@@@std@@@std@@QAE?AV?$_Vector_iterator@V?$_Vector_val@U?$_Simple_types@U_Position_Dword@@@std@@@std@@@2@XZ 100069a0 f i MegamapTAStuff.obj
 0001:000059d0       ?capacity@?$vector@U_Position_Dword@@V?$allocator@U_Position_Dword@@@std@@@std@@QBEIXZ 100069d0 f i MegamapTAStuff.obj
 0001:00005a00       ?deallocate@?$allocator@U_Position_Dword@@@std@@QAEXQAU_Position_Dword@@I@Z 10006a00 f i MegamapTAStuff.obj
 0001:00005a20       ?end@?$vector@U_Position_Dword@@V?$allocator@U_Position_Dword@@@std@@@std@@QAE?AV?$_Vector_iterator@V?$_Vector_val@U?$_Simple_types@U_Position_Dword@@@std@@@std@@@2@XZ 10006a20 f i MegamapTAStuff.obj
 0001:00005a60       ?max@?$numeric_limits@H@std@@SGHXZ 10006a60 f i MegamapTAStuff.obj
 0001:00005a70       ?max_size@?$_Default_allocator_traits@V?$allocator@U_Position_Dword@@@std@@@std@@SGIABV?$allocator@U_Position_Dword@@@2@@Z 10006a70 f i MegamapTAStuff.obj
 0001:00005a80       ?max_size@?$vector@U_Position_Dword@@V?$allocator@U_Position_Dword@@@std@@@std@@QBEIXZ 10006a80 f i MegamapTAStuff.obj
 0001:00005ac0       ?push_back@?$vector@U_Position_Dword@@V?$allocator@U_Position_Dword@@@std@@@std@@QAEXABU_Position_Dword@@@Z 10006ac0 f i MegamapTAStuff.obj
 0001:00005ae0       ?what@exception@std@@UBEPBDXZ 10006ae0 f i MegamapTAStuff.obj
 0001:00005b10       ___local_stdio_printf_options 10006b10 f i MegamapTAStuff.obj
 0001:00005b20       __vsprintf_s_l             10006b20 f i MegamapTAStuff.obj
 0001:00005b70       _vsprintf_s                10006b70 f i MegamapTAStuff.obj
 0001:00005b90       ??0ProjectileMap@@QAE@PAVFullScreenMinimap@@PAVUnitsMinimap@@@Z 10006b90 f   ProjectileMap.obj
 0001:00005bc0       ??1ProjectileMap@@QAE@XZ   10006bc0 f   ProjectileMap.obj
 0001:00005bd0       ?DrawNuke@ProjectileMap@@AAEXPAEPAUtagPOINT@@HHPAUProjectileStruct@@@Z 10006bd0 f   ProjectileMap.obj
 0001:00005dc0       ?DrawProjectile@ProjectileMap@@AAEXPAEPAUtagPOINT@@PAUProjectileStruct@@@Z 10006dc0 f   ProjectileMap.obj
 0001:00005ed0       ?DrawWeapon@ProjectileMap@@AAEXPAEPAUtagPOINT@@HH@Z 10006ed0 f   ProjectileMap.obj
 0001:00005fc0       ?IsPosInPlayerLos@ProjectileMap@@AAEHIIPAUProjectileStruct@@@Z 10006fc0 f   ProjectileMap.obj
 0001:00006110       ?NowDrawProjectile@ProjectileMap@@QAEXPAEPAUtagPOINT@@@Z 10007110 f   ProjectileMap.obj
 0001:00006190       ??$strcpy_s@$0BAA@@@YAHAAY0BAA@DPBD@Z 10007190 f i UnitIcon.obj
 0001:000061b0       ??0TABMP@@QAE@XZ           100071b0 f   UnitIcon.obj
 0001:00006230       ??0UnitIcon@@QAE@PAD@Z     10007230 f   UnitIcon.obj
 0001:000063a0       ??1TABMP@@QAE@XZ           100073a0 f   UnitIcon.obj
 0001:00006420       ??1UnitIcon@@QAE@XZ        10007420 f   UnitIcon.obj
 0001:000064b0       ??_GPCX@@QAEPAXI@Z         100074b0 f i UnitIcon.obj
 0001:000064f0       ??_GTABMP@@QAEPAXI@Z       100074f0 f i UnitIcon.obj
 0001:00006520       ?BufSize@PCX@@QAEJXZ       10007520 f i UnitIcon.obj
 0001:00006540       ?BufSize@TABMP@@QAEJXZ     10007540 f i UnitIcon.obj
 0001:00006560       ?BufSize@UnitIcon@@QAEJXZ  10007560 f   UnitIcon.obj
 0001:000065a0       ?Data@TABMP@@QAEPAEXZ      100075a0 f i UnitIcon.obj
 0001:000065c0       ?Data@UnitIcon@@QAEPAEXZ   100075c0 f   UnitIcon.obj
 0001:00006600       ?Height@TABMP@@QAEJXZ      10007600 f i UnitIcon.obj
 0001:00006620       ?Height@UnitIcon@@QAEJXZ   10007620 f   UnitIcon.obj
 0001:00006660       ?Load@TABMP@@QAEXPAD@Z     10007660 f   UnitIcon.obj
 0001:00006850       ?PCXData@PCX@@QAEPAEXZ     10007850 f i UnitIcon.obj
 0001:00006870       ?Transformer@TABMP@@QAEXPAEPAUtagLOGPALETTE@@PAUtagBITMAPINFO@@0@Z 10007870 f   UnitIcon.obj
 0001:00006930       ?Width@TABMP@@QAEJXZ       10007930 f i UnitIcon.obj
 0001:00006950       ?Width@UnitIcon@@QAEJXZ    10007950 f   UnitIcon.obj
 0001:00006990       ??_GLimitCrack@@QAEPAXI@Z  10007990 f i ddraw.obj
 0001:000069c0       ??_GTABugFixing@@QAEPAXI@Z 100079c0 f i ddraw.obj
 0001:00006a00       ??_GTADRConfig@@QAEPAXI@Z  10007a00 f i ddraw.obj
 0001:00006a40       ??_GUnicodeSupport@@QAEPAXI@Z 10007a40 f i ddraw.obj
 0001:00006a80       ??_G_TAHPI@@QAEPAXI@Z      10007a80 f i ddraw.obj
 0001:00006ab0       ?AddtionInit@@YGHPAUtagInlineX86StackBuffer@@@Z 10007ab0 f   ddraw.obj
 0001:00006b50       ?AddtionInitAfterDDraw@@YGHPAUtagInlineX86StackBuffer@@@Z 10007b50 f   ddraw.obj
 0001:00006d40       ?AddtionRelease@@YGXXZ     10007d40 f   ddraw.obj
 0001:00006da0       ?AddtionReleaseAfterDDraw@@YGXXZ 10007da0 f   ddraw.obj
 0001:00006e30       ?DirectDrawCreate@@YGJPAU_GUID@@PAPAUIDirectDraw@@PAUIUnknown@@@Z 10007e30 f   ddraw.obj
 0001:00006f10       ?EnableSound@@YGXXZ        10007f10 f   ddraw.obj
 0001:00006f40       ?GetAddress@@YGP6GHXZPBD@Z 10007f40 f   ddraw.obj
 0001:00006f70       ?GetSysDir@@YGXXZ          10007f70 f   ddraw.obj
 0001:00007000       ?SetupFileMap@@YG_NXZ      10008000 f   ddraw.obj
 0001:00007090       ?SetupLocalFileMap@@YG_NXZ 10008090 f   ddraw.obj
 0001:00007110       ?SetupTAHookFileMap@@YGXXZ 10008110 f   ddraw.obj
 0001:00007180       ?ShutDownTAHookFileMap@@YGXXZ 10008180 f   ddraw.obj
 0001:000071b0       ?ShutdownFileMap@@YGXXZ    100081b0 f   ddraw.obj
 0001:000071e0       ?ShutdownLocalFileMap@@YGXXZ 100081e0 f   ddraw.obj
 0001:00007210       _AheadLib_AcquireDDThreadLock 10008210 f   ddraw.obj
 0001:00007220       _AheadLib_CompleteCreateSysmemSurface 10008220 f   ddraw.obj
 0001:00007230       _AheadLib_D3DParseUnknownCommand 10008230 f   ddraw.obj
 0001:00007240       _AheadLib_DDGetAttachedSurfaceLcl 10008240 f   ddraw.obj
 0001:00007250       _AheadLib_DDInternalLock   10008250 f   ddraw.obj
 0001:00007260       _AheadLib_DDInternalUnlock 10008260 f   ddraw.obj
 0001:00007270       _AheadLib_DSoundHelp       10008270 f   ddraw.obj
 0001:00007280       _AheadLib_DirectDrawCreateClipper 10008280 f   ddraw.obj
 0001:00007290       _AheadLib_DirectDrawCreateEx 10008290 f   ddraw.obj
 0001:000072a0       _AheadLib_DirectDrawEnumerateA 100082a0 f   ddraw.obj
 0001:000072b0       _AheadLib_DirectDrawEnumerateExA 100082b0 f   ddraw.obj
 0001:000072c0       _AheadLib_DirectDrawEnumerateExW 100082c0 f   ddraw.obj
 0001:000072d0       _AheadLib_DirectDrawEnumerateW 100082d0 f   ddraw.obj
 0001:000072e0       _AheadLib_DllCanUnloadNow  100082e0 f   ddraw.obj
 0001:000072f0       _AheadLib_DllGetClassObject 100082f0 f   ddraw.obj
 0001:00007300       _AheadLib_GetDDSurfaceLocal 10008300 f   ddraw.obj
 0001:00007310       _AheadLib_GetOLEThunkData  10008310 f   ddraw.obj
 0001:00007320       _AheadLib_GetSurfaceFromDC 10008320 f   ddraw.obj
 0001:00007330       _AheadLib_RegisterSpecialCase 10008330 f   ddraw.obj
 0001:00007340       _AheadLib_ReleaseDDThreadLock 10008340 f   ddraw.obj
 0001:00007350       _AheadLib_SetAppCompatData 10008350 f   ddraw.obj
 0001:00007360       _DllMain@12                10008360 f   ddraw.obj
 0001:00007610       ??0ExternHotKey@@QAE@XZ    10008610 f   ExternhotKey.obj
 0001:00007940       ??1ExternHotKey@@QAE@XZ    10008940 f   ExternhotKey.obj
 0001:00007ac0       ?AddRoutine_InitAfterExternKey@@YGXXZ 10008ac0 f   ExternhotKey.obj
 0001:00007b00       ?AddtionRoutine_CircleSelect@@YGHPAUtagInlineX86StackBuffer@@@Z 10008b00 f   ExternhotKey.obj
 0001:00007bd0       ?AddtionRoutine_UnitINFOInit@@YGHPAUtagInlineX86StackBuffer@@@Z 10008bd0 f   ExternhotKey.obj
 0001:00007c00       ?DestroyExternTypeMask@ExternHotKey@@QAEXXZ 10008c00 f   ExternhotKey.obj
 0001:00007d30       ?FilterSelectedUnit@ExternHotKey@@QAEHXZ 10008d30 f   ExternhotKey.obj
 0001:00007da0       ?FilterSelectedUnitProc@ExternHotKey@@QAEHW4TAUnitType@@@Z 10008da0 f   ExternhotKey.obj
 0001:00007fa0       ?FindIdelFactory@ExternHotKey@@QAEXXZ 10008fa0 f   ExternhotKey.obj
 0001:00008160       ?FindIdleConst@ExternHotKey@@QAEXXZ 10009160 f   ExternhotKey.obj
 0001:000083a0       ?InitExternTypeMask@ExternHotKey@@QAEHXZ 100093a0 f   ExternhotKey.obj
 0001:00008c60       ?Message@ExternHotKey@@QAE_NPAUHWND__@@IIJ@Z 10009c60 f   ExternhotKey.obj
 0001:00009040       ?SelectOnlyInScreenSameTypeUnit@ExternHotKey@@QAEHH@Z 1000a040 f   ExternhotKey.obj
 0001:00009260       ?SelectOnlyInScreenWeaponUnit@ExternHotKey@@QAEHI@Z 1000a260 f   ExternhotKey.obj
 0001:000093d0       ?SelectUnitInRect@ExternHotKey@@QAEHW4TAUnitType@@PAUtagRECT@@_N@Z 1000a3d0 f   ExternhotKey.obj
 0001:000095a0       ??0FullScreenMinimap@@QAE@HH@Z 1000a5a0 f   fullscreenminimap.obj
 0001:00009960       ??1FullScreenMinimap@@QAE@XZ 1000a960 f   fullscreenminimap.obj
 0001:00009bf0       ??_GMappedMap@@QAEPAXI@Z   1000abf0 f i fullscreenminimap.obj
 0001:00009c30       ??_GMegaMapControl@@QAEPAXI@Z 1000ac30 f i fullscreenminimap.obj
 0001:00009c70       ??_GMegamapTAStuff@@QAEPAXI@Z 1000ac70 f i fullscreenminimap.obj
 0001:00009cb0       ??_GProjectileMap@@QAEPAXI@Z 1000acb0 f i fullscreenminimap.obj
 0001:00009ce0       ??_GSingleHook@@QAEPAXI@Z  1000ace0 f i fullscreenminimap.obj
 0001:00009d10       ??_GTAGameAreaReDrawer@@QAEPAXI@Z 1000ad10 f i fullscreenminimap.obj
 0001:00009d40       ??_GTNTtoMiniMap@@QAEPAXI@Z 1000ad40 f i fullscreenminimap.obj
 0001:00009d70       ??_GUnitsMinimap@@QAEPAXI@Z 1000ad70 f i fullscreenminimap.obj
 0001:00009db0       ?BlockGUIState@FullScreenMinimap@@QAEXXZ 1000adb0 f   fullscreenminimap.obj
 0001:00009dc0       ?BlockTADraw@@YGHPAUtagInlineX86StackBuffer@@@Z 1000adc0 f   fullscreenminimap.obj
 0001:00009e10       ?DischargeGUIState@FullScreenMinimap@@QAEXXZ 1000ae10 f   fullscreenminimap.obj
 0001:00009e20       ?DischargeTADraw@@YGHPAUtagInlineX86StackBuffer@@@Z 1000ae20 f   fullscreenminimap.obj
 0001:00009e50       ?EnterMegaMap@FullScreenMinimap@@QAEXXZ 1000ae50 f   fullscreenminimap.obj
 0001:00009e70       ?ForceTADrawBlit@@YGHPAUtagInlineX86StackBuffer@@@Z 1000ae70 f   fullscreenminimap.obj
 0001:00009eb0       ?IfRenderMegaThenBlock2@@YGXXZ 1000aeb0 f   fullscreenminimap.obj
 0001:00009ee0       ?IfRenderMegaThenBlock@@YGXXZ 1000aee0 f   fullscreenminimap.obj
 0001:00009f20       ?InitMinimap@FullScreenMinimap@@QAEXPAUtagTNTHeaderStruct@@PAUtagRECT@@@Z 1000af20 f   fullscreenminimap.obj
 0001:0000aac0       ?InitSurface@FullScreenMinimap@@QAEXPAUIDirectDraw@@@Z 1000bac0 f   fullscreenminimap.obj
 0001:0000aaf0       ?InitSurface@FullScreenMinimap@@QAEXPAUIDirectDraw@@H@Z 1000baf0 f   fullscreenminimap.obj
 0001:0000abc0       ?IsBliting@FullScreenMinimap@@QAEHXZ 1000bbc0 f   fullscreenminimap.obj
 0001:0000abe0       ?LoadMap_Routine@@YGHPAUtagInlineX86StackBuffer@@@Z 1000bbe0 f   fullscreenminimap.obj
 0001:0000ac20       ?LockBlit@FullScreenMinimap@@QAEXPAXHHH@Z 1000bc20 f   fullscreenminimap.obj
 0001:0000aca0       ?MegamapFrameThd@@YGKXZ    1000bca0 f   fullscreenminimap.obj
 0001:0000ae70       ?Message@FullScreenMinimap@@QAE_NPAUHWND__@@IIJ@Z 1000be70 f   fullscreenminimap.obj
 0001:0000aed0       ?QuitMegaMap@FullScreenMinimap@@QAEXXZ 1000bed0 f   fullscreenminimap.obj
 0001:0000aef0       ?ReleaseSurface@FullScreenMinimap@@QAEXXZ 1000bef0 f   fullscreenminimap.obj
 0001:0000af50       ?Set@FullScreenMinimap@@QAEXH@Z 1000bf50 f   fullscreenminimap.obj
 0001:0000af90       ?SetVid@FullScreenMinimap@@QAEXH@Z 1000bf90 f   fullscreenminimap.obj
 0001:0000afb0       ?UpdateFrame@FullScreenMinimap@@QAGXPAXPAU_DDSURFACEDESC@@@Z 1000bfb0 f   fullscreenminimap.obj
 0001:0000b2e0       ?gametimeupdate@@YGXXZ     1000c2e0 f   fullscreenminimap.obj
 0001:0000b300       ?writejmp@FullScreenMinimap@@QAEXII@Z 1000c300 f i fullscreenminimap.obj
 0001:0000b350       ?CopyGafSequenceToBits@@YGPAEPAEPAUtagPOINT@@PAU_GAFSequence@@H@Z 1000c350 f   gaf.obj
 0001:0000b3c0       ?CopyGafToBits@@YGXPAEPAUtagPOINT@@IIPAU_GAFFrame@@PAUtagRECT@@@Z 1000c3c0 f   gaf.obj
 0001:0000b460       ?CreateSurfByGafFrame@@YGPAUIDirectDrawSurface@@PAUIDirectDraw@@PAU_GAFFrame@@H@Z 1000c460 f   gaf.obj
 0001:0000b5c0       ?CreateSurfByGafSequence@@YGPAUIDirectDrawSurface@@PAUIDirectDraw@@PAU_GAFSequence@@_N@Z 1000c5c0 f   gaf.obj
 0001:0000b810       ?InstanceGAFFrame@@YGPAEPAU_GAFFrame@@PAPAEPAUtagPOINT@@@Z 1000c810 f   gaf.obj
 0001:0000b8c0       ??0GUIExpand@@QAE@XZ       1000c8c0 f   GuiExpand.obj
 0001:0000bad0       ??1GUIExpand@@QAE@XZ       1000cad0 f   GuiExpand.obj
 0001:0000bb70       ??_GFullScreenMinimap@@QAEPAXI@Z 1000cb70 f i GuiExpand.obj
 0001:0000bbb0       ??_GMenuResolution@@QAEPAXI@Z 1000cbb0 f i GuiExpand.obj
 0001:0000bbe0       ??_GShareDialogExpand@@QAEPAXI@Z 1000cbe0 f i GuiExpand.obj
 0001:0000bc10       ?ApplySelectUnitMenu_Wapper@@YGXXZ 1000cc10 f   HardCodeFunctions.obj
 0001:0000bc50       ?ChatText@@YGHPAD@Z        1000cc50 f   HardCodeFunctions.obj
 0001:0000bcc0       ?CleanIDMaskInTypeAry@@YG_NGQAK@Z 1000ccc0 f   HardCodeFunctions.obj
 0001:0000bd20       ?CountSelectedUnits@@YGHXZ 1000cd20 f   HardCodeFunctions.obj
 0001:0000bdf0       ?DeselectUnits@@YGXXZ      1000cdf0 f   HardCodeFunctions.obj
 0001:0000beb0       ?DrawDotteCircle@@YGHPAEPAUtagPOINT@@HHHHHH@Z 1000ceb0 f   HardCodeFunctions.obj
 0001:0000bf40       ?DrawRadarCircle@@YGHPAEPAUtagPOINT@@HHHH@Z 1000cf40 f   HardCodeFunctions.obj
 0001:0000bfd0       ?DrawTextInScreen_ez@@YG_NPAU_OFFSCREEN@@PADHH@Z 1000cfd0 f   HardCodeFunctions.obj
 0001:0000c000       ?GetMaxScrollX@@YGHXZ      1000d000 f   HardCodeFunctions.obj
 0001:0000c040       ?GetMaxScrollY@@YGHXZ      1000d040 f   HardCodeFunctions.obj
 0001:0000c080       ?GetUnitIDMaskAryByCategory@@YGPAKPAD@Z 1000d080 f   HardCodeFunctions.obj
 0001:0000c110       ?IsPlayerAllyUnit@@YGHHH@Z 1000d110 f   HardCodeFunctions.obj
 0001:0000c1c0       ?MatchInTypeAry@@YG_NGQAK@Z 1000d1c0 f   HardCodeFunctions.obj
 0001:0000c1f0       ?PauseCDMusic@@YGHXZ       1000d1f0 f   HardCodeFunctions.obj
 0001:0000c220       ?ScrollToCenter@@YGXHH@Z   1000d220 f   HardCodeFunctions.obj
 0001:0000c2e0       ?SendOrder@@YGXIIIH_N@Z    1000d2e0 f   HardCodeFunctions.obj
 0001:0000c370       ?SetIDMaskInTypeAry@@YG_NGQAK@Z 1000d370 f   HardCodeFunctions.obj
 0001:0000c3b0       ?UpdateSelectUnitEffect@@YGXXZ 1000d3b0 f   HardCodeFunctions.obj
 0001:0000c3f0       ?UpdateTAProcess@@YGHXZ    1000d3f0 f   HardCodeFunctions.obj
 0001:0000c4a0       ?ViewPlayerLos_Replay@@YGHHH@Z 1000d4a0 f   HardCodeFunctions.obj
 0001:0000c700       ?freeTAMem@@YGXPAX@Z       1000d700 f   HardCodeFunctions.obj
 0001:0000c780       ?resumeOffScreen@@YGXXZ    1000d780 f   HardCodeFunctions.obj
 0001:0000c790       ?resumeScreenPlatte@@YGXXZ 1000d790 f   HardCodeFunctions.obj
 0001:0000c7f0       _sprintf_s                 1000d7f0 f i HardCodeFunctions.obj
 0001:0000c830       ??0ModifyHook@@QAE@IHKPAEKK@Z 1000d830 f   ModifyHook.obj
 0001:0000c8f0       ??0ModifyHook@@QAE@PAEHK0KK@Z 1000d8f0 f   ModifyHook.obj
 0001:0000c9b0       ??0ModifyHook@@QAE@XZ      1000d9b0 f   ModifyHook.obj
 0001:0000ca00       ??1ModifyHook@@QAE@XZ      1000da00 f   ModifyHook.obj
 0001:0000cad0       ?Hook@ModifyHook@@UAEXXZ   1000dad0 f   ModifyHook.obj
 0001:0000cc10       ?InitHookClass@ModifyHook@@AAEXPAEHK0KK@Z 1000dc10 f   ModifyHook.obj
 0001:0000ce10       ??0_TAHPI@@QAE@H@Z         1000de10 f   HPIfunc.obj
 0001:0000cf00       ??1_TAHPI@@QAE@XZ          1000df00 f   HPIfunc.obj
 0001:0000cf50       ?TADontInit@@YGHPAUtagInlineX86StackBuffer@@@Z 1000df50 f   HPIfunc.obj
 0001:0000cf70       ?fclose@_TAHPI@@QAEHPAU_OPENTAFILE@@@Z 1000df70 f   HPIfunc.obj
 0001:0000cf90       ?filelen@_TAHPI@@QAEIPAU_OPENTAFILE@@@Z 1000df90 f   HPIfunc.obj
 0001:0000cfb0       ?filelength@_TAHPI@@QAEIPAD@Z 1000dfb0 f   HPIfunc.obj
 0001:0000cfd0       ?fopen@_TAHPI@@QAEPAU_OPENTAFILE@@PAD0@Z 1000dfd0 f   HPIfunc.obj
 0001:0000cff0       ?free_readfile@_TAHPI@@QAEXPAD@Z 1000dff0 f   HPIfunc.obj
 0001:0000d010       ?read@_TAHPI@@QAEHPAU_OPENTAFILE@@PAXH@Z 1000e010 f   HPIfunc.obj
 0001:0000d030       ?readfile@_TAHPI@@QAEPADPADPAI@Z 1000e030 f   HPIfunc.obj
 0001:0000d050       ??0IDDraw@@QAE@PAUIDirectDraw@@_N@Z 1000e050 f   iddraw.obj
 0001:0000d0f0       ??0IDirectDraw@@QAE@XZ     1000e0f0 f i iddraw.obj
 0001:0000d110       ??0IUnknown@@QAE@XZ        1000e110 f i iddraw.obj
 0001:0000d120       ?AddRef@IDDraw@@UAGKXZ     1000e120 f   iddraw.obj
 0001:0000d150       ?Compact@IDDraw@@UAGJXZ    1000e150 f   iddraw.obj
 0001:0000d180       ?CreateClipper@IDDraw@@UAGJKPAPAUIDirectDrawClipper@@PAUIUnknown@@@Z 1000e180 f   iddraw.obj
 0001:0000d1c0       ?CreatePalette@IDDraw@@UAGJKPAUtagPALETTEENTRY@@PAPAUIDirectDrawPalette@@PAUIUnknown@@@Z 1000e1c0 f   iddraw.obj
 0001:0000d200       ?CreateSurface@IDDraw@@UAGJPAU_DDSURFACEDESC@@PAPAUIDirectDrawSurface@@PAUIUnknown@@@Z 1000e200 f   iddraw.obj
 0001:0000d2c0       ?DuplicateSurface@IDDraw@@UAGJPAUIDirectDrawSurface@@PAPAU2@@Z 1000e2c0 f   iddraw.obj
 0001:0000d2f0       ?EnumDisplayModes@IDDraw@@UAGJKPAU_DDSURFACEDESC@@PAXP6GJ01@Z@Z 1000e2f0 f   iddraw.obj
 0001:0000d330       ?EnumSurfaces@IDDraw@@UAGJKPAU_DDSURFACEDESC@@PAXP6GJPAUIDirectDrawSurface@@01@Z@Z 1000e330 f   iddraw.obj
 0001:0000d370       ?FlipToGDISurface@IDDraw@@UAGJXZ 1000e370 f   iddraw.obj
 0001:0000d3a0       ?GetCaps@IDDraw@@UAGJPAU_DDCAPS_DX7@@0@Z 1000e3a0 f   iddraw.obj
 0001:0000d3d0       ?GetDisplayMode@IDDraw@@UAGJPAU_DDSURFACEDESC@@@Z 1000e3d0 f   iddraw.obj
 0001:0000d400       ?GetFourCCCodes@IDDraw@@UAGJPAK0@Z 1000e400 f   iddraw.obj
 0001:0000d430       ?GetGDISurface@IDDraw@@UAGJPAPAUIDirectDrawSurface@@@Z 1000e430 f   iddraw.obj
 0001:0000d460       ?GetMonitorFrequency@IDDraw@@UAGJPAK@Z 1000e460 f   iddraw.obj
 0001:0000d490       ?GetScanLine@IDDraw@@UAGJPAK@Z 1000e490 f   iddraw.obj
 0001:0000d4c0       ?GetVerticalBlankStatus@IDDraw@@UAGJPAH@Z 1000e4c0 f   iddraw.obj
 0001:0000d4f0       ?Initialize@IDDraw@@UAGJPAU_GUID@@@Z 1000e4f0 f   iddraw.obj
 0001:0000d520       ?QueryInterface@IDDraw@@UAGJABU_GUID@@PAPAX@Z 1000e520 f   iddraw.obj
 0001:0000d550       ?Release@IDDraw@@UAGKXZ    1000e550 f   iddraw.obj
 0001:0000d5a0       ?RestoreDisplayMode@IDDraw@@UAGJXZ 1000e5a0 f   iddraw.obj
 0001:0000d5d0       ?SetCooperativeLevel@IDDraw@@UAGJPAUHWND__@@K@Z 1000e5d0 f   iddraw.obj
 0001:0000d630       ?SetDisplayMode@IDDraw@@UAGJKKK@Z 1000e630 f   iddraw.obj
 0001:0000d6a0       ?WaitForVerticalBlank@IDDraw@@UAGJKPAX@Z 1000e6a0 f   iddraw.obj
 0001:0000d6d0       ?resume@IDDraw@@QAGXXZ     1000e6d0 f   iddraw.obj
 0001:0000d700       ??0IDDrawSurface@@QAE@PAUIDirectDraw@@PAU_DDSURFACEDESC@@PAPAUIDirectDrawSurface@@PAUIUnknown@@PAJ_NHH@Z 1000e700 f   iddrawsurface.obj
 0001:0000dc60       ??0IDirectDrawSurface@@QAE@XZ 1000ec60 f i iddrawsurface.obj
 0001:0000dc80       ??_GAlliesWhiteboard@@QAEPAXI@Z 1000ec80 f i iddrawsurface.obj
 0001:0000dcc0       ??_GCChangeQueue@@QAEPAXI@Z 1000ecc0 f i iddrawsurface.obj
 0001:0000dcf0       ??_GCDDDTA@@QAEPAXI@Z      1000ecf0 f i iddrawsurface.obj
 0001:0000dd20       ??_GCMapRect@@QAEPAXI@Z    1000ed20 f i iddrawsurface.obj
 0001:0000dd50       ??_GCTAHook@@QAEPAXI@Z     1000ed50 f i iddrawsurface.obj
 0001:0000dd90       ??_GCWarp@@QAEPAXI@Z       1000ed90 f i iddrawsurface.obj
 0001:0000ddc0       ?AddAttachedSurface@IDDrawSurface@@UAGJPAUIDirectDrawSurface@@@Z 1000edc0 f   iddrawsurface.obj
 0001:0000ddf0       ?AddOverlayDirtyRect@IDDrawSurface@@UAGJPAUtagRECT@@@Z 1000edf0 f   iddrawsurface.obj
 0001:0000de20       ?AddRef@IDDrawSurface@@UAGKXZ 1000ee20 f   iddrawsurface.obj
 0001:0000de50       ?Blt@IDDrawSurface@@UAGJPAUtagRECT@@PAUIDirectDrawSurface@@0KPAU_DDBLTFX@@@Z 1000ee50 f   iddrawsurface.obj
 0001:0000dea0       ?BltBatch@IDDrawSurface@@UAGJPAU_DDBLTBATCH@@KK@Z 1000eea0 f   iddrawsurface.obj
 0001:0000dee0       ?BltFast@IDDrawSurface@@UAGJKKPAUIDirectDrawSurface@@PAUtagRECT@@K@Z 1000eee0 f   iddrawsurface.obj
 0001:0000df20       ?CorrectName@IDDrawSurface@@QAEXPAD@Z 1000ef20 f   iddrawsurface.obj
 0001:0000df80       ?CreateClipplist@IDDrawSurface@@QAEXXZ 1000ef80 f   iddrawsurface.obj
 0001:0000e1f0       ?CreateDir@IDDrawSurface@@QAEXPAD@Z 1000f1f0 f   iddrawsurface.obj
 0001:0000e2f0       ?CreateFileName@IDDrawSurface@@AAEXPADH@Z 1000f2f0 f   iddrawsurface.obj
 0001:0000e580       ?DeInterlace@IDDrawSurface@@AAEXXZ 1000f580 f   iddrawsurface.obj
 0001:0000e640       ?DeleteAttachedSurface@IDDrawSurface@@UAGJKPAUIDirectDrawSurface@@@Z 1000f640 f   iddrawsurface.obj
 0001:0000e680       ?EnumAttachedSurfaces@IDDrawSurface@@UAGJPAXP6GJPAUIDirectDrawSurface@@PAU_DDSURFACEDESC@@0@Z@Z 1000f680 f   iddrawsurface.obj
 0001:0000e6c0       ?EnumOverlayZOrders@IDDrawSurface@@UAGJKPAXP6GJPAUIDirectDrawSurface@@PAU_DDSURFACEDESC@@0@Z@Z 1000f6c0 f   iddrawsurface.obj
 0001:0000e700       ?Flip@IDDrawSurface@@UAGJPAUIDirectDrawSurface@@K@Z 1000f700 f   iddrawsurface.obj
 0001:0000e740       ?FrontSurface@IDDrawSurface@@QAEXPAUIDirectDrawSurface@@@Z 1000f740 f   iddrawsurface.obj
 0001:0000e760       ?GetAttachedSurface@IDDrawSurface@@UAGJPAU_DDSCAPS@@PAPAUIDirectDrawSurface@@@Z 1000f760 f   iddrawsurface.obj
 0001:0000e7c0       ?GetBltStatus@IDDrawSurface@@UAGJK@Z 1000f7c0 f   iddrawsurface.obj
 0001:0000e7f0       ?GetCaps@IDDrawSurface@@UAGJPAU_DDSCAPS@@@Z 1000f7f0 f   iddrawsurface.obj
 0001:0000e820       ?GetClipper@IDDrawSurface@@UAGJPAPAUIDirectDrawClipper@@@Z 1000f820 f   iddrawsurface.obj
 0001:0000e850       ?GetColorKey@IDDrawSurface@@UAGJKPAU_DDCOLORKEY@@@Z 1000f850 f   iddrawsurface.obj
 0001:0000e890       ?GetDC@IDDrawSurface@@UAGJPAPAUHDC__@@@Z 1000f890 f   iddrawsurface.obj
 0001:0000e8c0       ?GetFlipStatus@IDDrawSurface@@UAGJK@Z 1000f8c0 f   iddrawsurface.obj
 0001:0000e8f0       ?GetOverlayPosition@IDDrawSurface@@UAGJPAJ0@Z 1000f8f0 f   iddrawsurface.obj
 0001:0000e930       ?GetPalette@IDDrawSurface@@UAGJPAPAUIDirectDrawPalette@@@Z 1000f930 f   iddrawsurface.obj
 0001:0000e960       ?GetPixelFormat@IDDrawSurface@@UAGJPAU_DDPIXELFORMAT@@@Z 1000f960 f   iddrawsurface.obj
 0001:0000e990       ?GetSurfaceDesc@IDDrawSurface@@UAGJPAU_DDSURFACEDESC@@@Z 1000f990 f   iddrawsurface.obj
 0001:0000e9c0       ?Initialize@IDDrawSurface@@UAGJPAUIDirectDraw@@PAU_DDSURFACEDESC@@@Z 1000f9c0 f   iddrawsurface.obj
 0001:0000ea00       ?IsLost@IDDrawSurface@@UAGJXZ 1000fa00 f   iddrawsurface.obj
 0001:0000ea60       ?Lock@IDDrawSurface@@UAGJPAUtagRECT@@PAU_DDSURFACEDESC@@KPAX@Z 1000fa60 f   iddrawsurface.obj
 0001:0000eb60       ?OutptInt@IDDrawSurface@@SGXH@Z 1000fb60 f   iddrawsurface.obj
 0001:0000eba0       ?OutptTxt@IDDrawSurface@@SGXPAD@Z 1000fba0 f   iddrawsurface.obj
 0001:0000ebb0       ?QueryInterface@IDDrawSurface@@UAGJABU_GUID@@PAPAX@Z 1000fbb0 f   iddrawsurface.obj
 0001:0000ebf0       ?Release@IDDrawSurface@@UAGKXZ 1000fbf0 f   iddrawsurface.obj
 0001:0000ee50       ?ReleaseDC@IDDrawSurface@@UAGJPAUHDC__@@@Z 1000fe50 f   iddrawsurface.obj
 0001:0000ee80       ?Restore@IDDrawSurface@@UAGJXZ 1000fe80 f   iddrawsurface.obj
 0001:0000eee0       ?ScreenShot@IDDrawSurface@@QAEXXZ 1000fee0 f   iddrawsurface.obj
 0001:0000f150       ?Set@IDDrawSurface@@QAEX_N@Z 10010150 f   iddrawsurface.obj
 0001:0000f170       ?SetClipper@IDDrawSurface@@UAGJPAUIDirectDrawClipper@@@Z 10010170 f   iddrawsurface.obj
 0001:0000f1a0       ?SetColorKey@IDDrawSurface@@UAGJKPAU_DDCOLORKEY@@@Z 100101a0 f   iddrawsurface.obj
 0001:0000f1e0       ?SetOverlayPosition@IDDrawSurface@@UAGJJJ@Z 100101e0 f   iddrawsurface.obj
 0001:0000f220       ?SetPalette@IDDrawSurface@@UAGJPAUIDirectDrawPalette@@@Z 10010220 f   iddrawsurface.obj
 0001:0000f260       ?Unlock@IDDrawSurface@@UAGJPAX@Z 10010260 f   iddrawsurface.obj
 0001:0000f590       ?UpdateOverlay@IDDrawSurface@@UAGJPAUtagRECT@@PAUIDirectDrawSurface@@0KPAU_DDOVERLAYFX@@@Z 10010590 f   iddrawsurface.obj
 0001:0000f5d0       ?UpdateOverlayDisplay@IDDrawSurface@@UAGJK@Z 100105d0 f   iddrawsurface.obj
 0001:0000f600       ?UpdateOverlayZOrder@IDDrawSurface@@UAGJKPAUIDirectDrawSurface@@@Z 10010600 f   iddrawsurface.obj
 0001:0000f630       ?WinProc@@YGJPAUHWND__@@IIJ@Z 10010630 f   iddrawsurface.obj
 0001:0000fb10       ?strstr@@YAPADQADQBD@Z     10010b10 f i iddrawsurface.obj
 0001:0000fb70       ??0TAGameAreaReDrawer@@QAE@XZ 10010b70 f   GameRedrawer.obj
 0001:0000fba0       ??1TAGameAreaReDrawer@@QAE@XZ 10010ba0 f   GameRedrawer.obj
 0001:0000fbf0       ?Cls@TAGameAreaReDrawer@@QAEXXZ 10010bf0 f   GameRedrawer.obj
 0001:0000fc50       ?Flip@TAGameAreaReDrawer@@QAEPAEXZ 10010c50 f   GameRedrawer.obj
 0001:0000fc90       ?GrayBlitOfBits@TAGameAreaReDrawer@@QAEHPAUtagRECT@@PAEPAUtagPOINT@@0H@Z 10010c90 f   GameRedrawer.obj
 0001:00010090       ?InitOwnSurface@TAGameAreaReDrawer@@QAEPAEPAUIDirectDraw@@H@Z 10011090 f   GameRedrawer.obj
 0001:000101d0       ?MixBitsInBlit@TAGameAreaReDrawer@@QAEHPAUtagRECT@@PAEPAUtagPOINT@@0@Z 100111d0 f   GameRedrawer.obj
 0001:00010540       ?MixDSufInBlit@TAGameAreaReDrawer@@QAEHPAEPAUtagRECT@@01@Z 10011540 f   GameRedrawer.obj
 0001:000105d0       ?ReleaseSurface@TAGameAreaReDrawer@@QAEXXZ 100115d0 f   GameRedrawer.obj
 0001:00010620       ?TAWGameAreaRect@TAGameAreaReDrawer@@QAEQAUtagRECT@@PAU2@@Z 10011620 f   GameRedrawer.obj
 0001:00010690       ?backSurface_p@TAGameAreaReDrawer@@QAEQAEXZ 10011690 f   GameRedrawer.obj
 0001:000106b0       ?frontSurface_p@TAGameAreaReDrawer@@QAEQAEXZ 100116b0 f   GameRedrawer.obj
 0001:000106d0       ??0MiniMapPicture@@QAE@HH@Z 100116d0 f   MapParse.obj
 0001:00010720       ??0TNTtoMiniMap@@QAE@KK@Z  10011720 f   MapParse.obj
 0001:00010830       ??0TNTtoMiniMap@@QAE@XZ    10011830 f   MapParse.obj
 0001:00010940       ??1MiniMapPicture@@QAE@XZ  10011940 f   MapParse.obj
 0001:00010970       ??1TNTtoMiniMap@@QAE@XZ    10011970 f   MapParse.obj
 0001:00010a10       ??_GMiniMapPicture@@QAEPAXI@Z 10011a10 f i MapParse.obj
 0001:00010a40       ?DrawMiniMap@MiniMapPicture@@QAEHPAEPAUtagRECT@@HH1@Z 10011a40 f   MapParse.obj
 0001:00010e00       ?DrawMiniMap@TNTtoMiniMap@@QAEHPAEHH@Z 10011e00 f   MapParse.obj
 0001:00010e60       ?DrawRectMapToBuf@TNTtoMiniMap@@AAEPAEPAPAEPAUtagTNTHeaderStruct@@PAUtagRECT@@@Z 10011e60 f   MapParse.obj
 0001:00010f00       ?MapFromTNTFileA@TNTtoMiniMap@@QAEXPAD@Z 10011f00 f   MapParse.obj
 0001:00011000       ?MapFromTNTInMem@TNTtoMiniMap@@QAEXPAX@Z 10012000 f   MapParse.obj
 0001:00011030       ?MapFromValidTNTHeader@TNTtoMiniMap@@QAEXPAUtagTNTHeaderStruct@@@Z 10012030 f   MapParse.obj
 0001:000110a0       ?ParseMyTNTHeader@TNTtoMiniMap@@QAEPAUtagTNTHeaderStruct@@PAU2@@Z 100120a0 f   MapParse.obj
 0001:00011140       ?PictureInfo@MiniMapPicture@@QAEPAEPAPAEPAUtagPOINT@@@Z 10012140 f   MapParse.obj
 0001:00011170       ?PictureInfo@TNTtoMiniMap@@QAEPAEPAPAEPAUtagPOINT@@@Z 10012170 f   MapParse.obj
 0001:00011190       ?StretchTAMapToMiniMap@MiniMapPicture@@QAEPAEPAEPAUtagRECT@@@Z 10012190 f   MapParse.obj
 0001:000113c0       ?StretchTATNTDataToMiniMap@MiniMapPicture@@QAEPAEPAUtagTNTHeaderStruct@@@Z 100123c0 f   MapParse.obj
 0001:000117f0       ??0MenuResolution@@QAE@H@Z 100127f0 f   MenuResolution.obj
 0001:00011860       ??0MenuResolution@@QAE@HH@Z 10012860 f   MenuResolution.obj
 0001:000118f0       ??1MenuResolution@@QAE@XZ  100128f0 f   MenuResolution.obj
 0001:00011940       ?InstallHook@MenuResolution@@AAEXXZ 10012940 f   MenuResolution.obj
 0001:00011b80       ?UninstallHook@MenuResolution@@AAEXXZ 10012b80 f   MenuResolution.obj
 0001:00011ce0       ?sub_00491A75@@YGHPAUtagInlineX86StackBuffer@@@Z 10012ce0 f   MenuResolution.obj
 0001:00011da0       ?sub_00491B01@@YGHPAUtagInlineX86StackBuffer@@@Z 10012da0 f   MenuResolution.obj
 0001:00011e50       ?sub_0049E91C@@YGHPAUtagInlineX86StackBuffer@@@Z 10012e50 f   MenuResolution.obj
 0001:00011ec0       ?sub_0049E93B@@YGHPAUtagInlineX86StackBuffer@@@Z 10012ec0 f   MenuResolution.obj
 0001:00011f40       ??0ModifyWeaponPacket@@QAE@H@Z 10012f40 f   MultiGameWeaponID.obj
 0001:00011f80       ??0ModifyWeaponPacket@@QAE@XZ 10012f80 f   MultiGameWeaponID.obj
 0001:00011fb0       ??1ModifyWeaponPacket@@QAE@XZ 10012fb0 f   MultiGameWeaponID.obj
 0001:00012140       ??_GModifyHook@@QAEPAXI@Z  10013140 f i MultiGameWeaponID.obj
 0001:00012170       ?EnsureDplayx@ModifyWeaponPacket@@AAEXH@Z 10013170 f   MultiGameWeaponID.obj
 0001:000127b0       ?FeaturePacket@ModifyWeaponPacket@@AAEXH@Z 100137b0 f   MultiGameWeaponID.obj
 0001:00012970       ?ModifyRoutine@ModifyWeaponPacket@@AAEXH@Z 10013970 f   MultiGameWeaponID.obj
 0001:00012a80       ??$?0$$V@?$_Compressed_pair@V?$allocator@UTAShareMemStruct@CDDDTA@@@std@@V?$_Deque_val@U?$_Deque_simple_types@UTAShareMemStruct@CDDDTA@@@std@@@2@$00@std@@QAE@U_Zero_then_variadic_args_t@1@@Z 10013a80 f i dddta.obj
 0001:00012aa0       ??$?0UTAShareMemStruct@CDDDTA@@@?$allocator@PAUTAShareMemStruct@CDDDTA@@@std@@QAE@ABV?$allocator@UTAShareMemStruct@CDDDTA@@@1@@Z 10013aa0 f i dddta.obj
 0001:00012ab0       ??$?0UTAShareMemStruct@CDDDTA@@@?$allocator@U_Container_proxy@std@@@std@@QAE@ABV?$allocator@UTAShareMemStruct@CDDDTA@@@1@@Z 10013ab0 f i dddta.obj
 0001:00012ac0       ??$_Adl_verify_range@PAPAUTAShareMemStruct@CDDDTA@@PAPAU12@@std@@YGXABQAPAUTAShareMemStruct@CDDDTA@@0@Z 10013ac0 f i dddta.obj
 0001:00012ad0       ??$_Alloc_proxy@V?$allocator@U_Container_proxy@std@@@std@@@_Container_base12@std@@QAEX$$QAV?$allocator@U_Container_proxy@std@@@1@@Z 10013ad0 f i dddta.obj
 0001:00012b20       ??$_Construct_in_place@PAUTAShareMemStruct@CDDDTA@@AAPAU12@@std@@YGXAAPAUTAShareMemStruct@CDDDTA@@0@Z 10013b20 f i dddta.obj
 0001:00012b60       ??$_Construct_in_place@U_Container_proxy@std@@PAU_Container_base12@2@@std@@YGXAAU_Container_proxy@0@$$QAPAU_Container_base12@0@@Z 10013b60 f i dddta.obj
 0001:00012ba0       ??$_Copy_memmove@PAPAUTAShareMemStruct@CDDDTA@@PAPAU12@@std@@YGPAPAUTAShareMemStruct@CDDDTA@@PAPAU12@00@Z 10013ba0 f i dddta.obj
 0001:00012c10       ??$_Deallocate_plain@V?$allocator@U_Container_proxy@std@@@std@@@std@@YGXAAV?$allocator@U_Container_proxy@std@@@0@QAU_Container_proxy@0@@Z 10013c10 f i dddta.obj
 0001:00012c60       ??$_Delete_plain_internal@V?$allocator@U_Container_proxy@std@@@std@@@std@@YGXAAV?$allocator@U_Container_proxy@std@@@0@QAU_Container_proxy@0@@Z 10013c60 f i dddta.obj
 0001:00012c80       ??$_Destroy_in_place@PAUTAShareMemStruct@CDDDTA@@@std@@YGXAAPAUTAShareMemStruct@CDDDTA@@@Z 10013c80 f i dddta.obj
 0001:00012c90       ??$_Destroy_range@PAPAUTAShareMemStruct@CDDDTA@@PAPAU12@@std@@YGXPAPAUTAShareMemStruct@CDDDTA@@QAPAU12@@Z 10013c90 f i dddta.obj
 0001:00012ca0       ??$_Emplace_back@AAPAUTAShareMemStruct@CDDDTA@@@?$_Uninitialized_backout@PAPAUTAShareMemStruct@CDDDTA@@@std@@QAEXAAPAUTAShareMemStruct@CDDDTA@@@Z 10013ca0 f i dddta.obj
 0001:00012ce0       ??$_Get_size_of_n@$03@std@@YGII@Z 10013ce0 f i dddta.obj
 0001:00012d10       ??$_Get_size_of_n@$07@std@@YGII@Z 10013d10 f i dddta.obj
 0001:00012d40       ??$_Get_size_of_n@$0BE@@std@@YGII@Z 10013d40 f i dddta.obj
 0001:00012d70       ??$_Get_unwrapped@ABQAPAUTAShareMemStruct@CDDDTA@@@std@@YG?A_TABQAPAUTAShareMemStruct@CDDDTA@@@Z 10013d70 f i dddta.obj
 0001:00012d80       ??$_Get_unwrapped_n@AAPAPAUTAShareMemStruct@CDDDTA@@H@std@@YG?A_TAAPAPAUTAShareMemStruct@CDDDTA@@H@Z 10013d80 f i dddta.obj
 0001:00012d90       ??$_Idl_distance@PAPAUTAShareMemStruct@CDDDTA@@PAPAU12@@std@@YG?A_PABQAPAUTAShareMemStruct@CDDDTA@@0@Z 10013d90 f i dddta.obj
 0001:00012db0       ??$_Seek_wrapped@PAPAUTAShareMemStruct@CDDDTA@@PAPAU12@@std@@YGXAAPAPAUTAShareMemStruct@CDDDTA@@$$QAPAPAU12@@Z 10013db0 f i dddta.obj
 0001:00012dd0       ??$_To_address@PAPAUTAShareMemStruct@CDDDTA@@@std@@YG?A_PABQAPAUTAShareMemStruct@CDDDTA@@@Z 10013dd0 f i dddta.obj
 0001:00012de0       ??$_Unfancy@UTAShareMemStruct@CDDDTA@@@std@@YGPAUTAShareMemStruct@CDDDTA@@PAU12@@Z 10013de0 f i dddta.obj
 0001:00012df0       ??$_Unfancy@U_Container_proxy@std@@@std@@YGPAU_Container_proxy@0@PAU10@@Z 10013df0 f i dddta.obj
 0001:00012e00       ??$_Uninitialized_copy_unchecked@PAPAUTAShareMemStruct@CDDDTA@@PAPAU12@@std@@YGPAPAUTAShareMemStruct@CDDDTA@@PAPAU12@QAPAU12@0@Z 10013e00 f i dddta.obj
 0001:00012ea0       ??$_Uninitialized_value_construct_n_unchecked1@PAPAUTAShareMemStruct@CDDDTA@@I@std@@YGPAPAUTAShareMemStruct@CDDDTA@@PAPAU12@I@Z 10013ea0 f i dddta.obj
 0001:00012ec0       ??$_Voidify_iter@PAPAUTAShareMemStruct@CDDDTA@@@std@@YGPAXPAPAUTAShareMemStruct@CDDDTA@@@Z 10013ec0 f i dddta.obj
 0001:00012ed0       ??$_Voidify_iter@PAUTAShareMemStruct@CDDDTA@@@std@@YGPAXPAUTAShareMemStruct@CDDDTA@@@Z 10013ed0 f i dddta.obj
 0001:00012ee0       ??$_Voidify_iter@PAU_Container_proxy@std@@@std@@YGPAXPAU_Container_proxy@0@@Z 10013ee0 f i dddta.obj
 0001:00012ef0       ??$_Zero_range@PAPAUTAShareMemStruct@CDDDTA@@@std@@YGPAPAUTAShareMemStruct@CDDDTA@@QAPAU12@0@Z 10013ef0 f i dddta.obj
 0001:00012f30       ??$addressof@PAUTAShareMemStruct@CDDDTA@@@std@@YGPAPAUTAShareMemStruct@CDDDTA@@AAPAU12@@Z 10013f30 f i dddta.obj
 0001:00012f40       ??$addressof@U_Container_proxy@std@@@std@@YGPAU_Container_proxy@0@AAU10@@Z 10013f40 f i dddta.obj
 0001:00012f50       ??$addressof@V?$_Deque_val@U?$_Deque_simple_types@UTAShareMemStruct@CDDDTA@@@std@@@std@@@std@@YGPAV?$_Deque_val@U?$_Deque_simple_types@UTAShareMemStruct@CDDDTA@@@std@@@0@AAV10@@Z 10013f50 f i dddta.obj
 0001:00012f60       ??$construct@UTAShareMemStruct@CDDDTA@@ABU12@@?$_Default_allocator_traits@V?$allocator@UTAShareMemStruct@CDDDTA@@@std@@@std@@SGXAAV?$allocator@UTAShareMemStruct@CDDDTA@@@1@QAUTAShareMemStruct@CDDDTA@@ABU34@@Z 10013f60 f i dddta.obj
 0001:00012fb0       ??$destroy@UTAShareMemStruct@CDDDTA@@@?$_Default_allocator_traits@V?$allocator@UTAShareMemStruct@CDDDTA@@@std@@@std@@SGXAAV?$allocator@UTAShareMemStruct@CDDDTA@@@1@QAUTAShareMemStruct@CDDDTA@@@Z 10013fb0 f i dddta.obj
 0001:00012fc0       ??$emplace_front@ABUTAShareMemStruct@CDDDTA@@@?$deque@UTAShareMemStruct@CDDDTA@@V?$allocator@UTAShareMemStruct@CDDDTA@@@std@@@std@@QAE?A_TABUTAShareMemStruct@CDDDTA@@@Z 10013fc0 f i dddta.obj
 0001:00013120       ??$exchange@PAU_Container_proxy@std@@$$T@std@@YGPAU_Container_proxy@0@AAPAU10@$$QA$$T@Z 10014120 f i dddta.obj
 0001:00013140       ??$forward@AAPAUTAShareMemStruct@CDDDTA@@@std@@YGAAPAUTAShareMemStruct@CDDDTA@@AAPAU12@@Z 10014140 f i dddta.obj
 0001:00013150       ??$forward@ABUTAShareMemStruct@CDDDTA@@@std@@YGABUTAShareMemStruct@CDDDTA@@ABU12@@Z 10014150 f i dddta.obj
 0001:00013160       ??$forward@PAPAUTAShareMemStruct@CDDDTA@@@std@@YG$$QAPAPAUTAShareMemStruct@CDDDTA@@AAPAPAU12@@Z 10014160 f i dddta.obj
 0001:00013170       ??$forward@PAU_Container_base12@std@@@std@@YG$$QAPAU_Container_base12@0@AAPAU10@@Z 10014170 f i dddta.obj
 0001:00013180       ??$uninitialized_copy@PAPAUTAShareMemStruct@CDDDTA@@PAPAU12@@std@@YGPAPAUTAShareMemStruct@CDDDTA@@QAPAU12@0PAPAU12@@Z 10014180 f i dddta.obj
 0001:000131f0       ??0?$_Deque_unchecked_const_iterator@V?$_Deque_val@U?$_Deque_simple_types@UTAShareMemStruct@CDDDTA@@@std@@@std@@@std@@QAE@IPBU_Container_base12@1@@Z 100141f0 f i dddta.obj
 0001:00013220       ??0?$_Deque_unchecked_iterator@V?$_Deque_val@U?$_Deque_simple_types@UTAShareMemStruct@CDDDTA@@@std@@@std@@@std@@QAE@IPBU_Container_base12@1@@Z 10014220 f i dddta.obj
 0001:00013240       ??0?$_Deque_val@U?$_Deque_simple_types@UTAShareMemStruct@CDDDTA@@@std@@@std@@QAE@XZ 10014240 f i dddta.obj
 0001:00013280       ??0?$_Uninitialized_backout@PAPAUTAShareMemStruct@CDDDTA@@@std@@QAE@PAPAUTAShareMemStruct@CDDDTA@@@Z 10014280 f i dddta.obj
 0001:000132b0       ??0?$allocator@UTAShareMemStruct@CDDDTA@@@std@@QAE@XZ 100142b0 f i dddta.obj
 0001:000132c0       ??0?$deque@UTAShareMemStruct@CDDDTA@@V?$allocator@UTAShareMemStruct@CDDDTA@@@std@@@std@@QAE@XZ 100142c0 f i dddta.obj
 0001:00013300       ??0CDDDTA@@QAE@XZ          10014300 f   dddta.obj
 0001:000133f0       ??0_Container_base12@std@@QAE@XZ 100143f0 f i dddta.obj
 0001:00013410       ??0_Container_proxy@std@@QAE@PAU_Container_base12@1@@Z 10014410 f i dddta.obj
 0001:00013440       ??1?$_Uninitialized_backout@PAPAUTAShareMemStruct@CDDDTA@@@std@@QAE@XZ 10014440 f i dddta.obj
 0001:00013460       ??1?$deque@UTAShareMemStruct@CDDDTA@@V?$allocator@UTAShareMemStruct@CDDDTA@@@std@@@std@@QAE@XZ 10014460 f i dddta.obj
 0001:000134b0       ??1CDDDTA@@QAE@XZ          100144b0 f   dddta.obj
 0001:00013510       ??A?$deque@UTAShareMemStruct@CDDDTA@@V?$allocator@UTAShareMemStruct@CDDDTA@@@std@@@std@@QAEAAUTAShareMemStruct@CDDDTA@@I@Z 10014510 f i dddta.obj
 0001:00013550       ??D?$_Deque_unchecked_const_iterator@V?$_Deque_val@U?$_Deque_simple_types@UTAShareMemStruct@CDDDTA@@@std@@@std@@@std@@QBEABUTAShareMemStruct@CDDDTA@@XZ 10014550 f i dddta.obj
 0001:000135a0       ??D?$_Deque_unchecked_iterator@V?$_Deque_val@U?$_Deque_simple_types@UTAShareMemStruct@CDDDTA@@@std@@@std@@@std@@QBEAAUTAShareMemStruct@CDDDTA@@XZ 100145a0 f i dddta.obj
 0001:000135c0       ??H?$_Deque_unchecked_iterator@V?$_Deque_val@U?$_Deque_simple_types@UTAShareMemStruct@CDDDTA@@@std@@@std@@@std@@QBE?AV01@H@Z 100145c0 f i dddta.obj
 0001:00013600       ??Y?$_Deque_unchecked_const_iterator@V?$_Deque_val@U?$_Deque_simple_types@UTAShareMemStruct@CDDDTA@@@std@@@std@@@std@@QAEAAV01@H@Z 10014600 f i dddta.obj
 0001:00013620       ??Y?$_Deque_unchecked_iterator@V?$_Deque_val@U?$_Deque_simple_types@UTAShareMemStruct@CDDDTA@@@std@@@std@@@std@@QAEAAV01@H@Z 10014620 f i dddta.obj
 0001:00013640       ?Blit@CDDDTA@@QAEXPAUIDirectDrawSurface@@@Z 10014640 f   dddta.obj
 0001:000137b0       ?ChatStrnCpy@@YAPADPADPBDI@Z 100147b0 f   dddta.obj
 0001:000137f0       ?CheckMessages@CDDDTA@@AAEXXZ 100147f0 f   dddta.obj
 0001:00013940       ?CreateSharedTAMem@CDDDTA@@AAEXHHPAD@Z 10014940 f   dddta.obj
 0001:00013a70       ?DeInitDDDTA@CDDDTA@@QAEXXZ 10014a70 f   dddta.obj
 0001:00013b10       ?DeleteMem@@YAXPAX@Z       10014b10 f   dddta.obj
 0001:00013b40       ?FrameUpdate@CDDDTA@@QAEXXZ 10014b40 f   dddta.obj
 0001:00013c90       ?InitDDDTA@CDDDTA@@AAEXXZ  10014c90 f   dddta.obj
 0001:00014030       ?Message@CDDDTA@@QAE_NPAUHWND__@@IIJ@Z 10015030 f   dddta.obj
 0001:00014110       ?Moo@CDDDTA@@QAEXXZ        10015110 f   dddta.obj
 0001:000141e0       ?Print@CDDDTA@@AAEXPAUHDC__@@PAUPrimitiveStruct@@@Z 100151e0 f   dddta.obj
 0001:00014350       ?RestoreAllSharedTAMem@CDDDTA@@AAEXXZ 10015350 f   dddta.obj
 0001:00014420       ?SendTextToSpring@CDDDTA@@QAEXPBD@Z 10015420 f   dddta.obj
 0001:000144d0       ?SetActiveUnit@CDDDTA@@AAEXPAUBeginUnitsArray_p@@PAUUnitStruct@@@Z 100154d0 f i dddta.obj
 0001:000145d0       ?WriteExplosion@CDDDTA@@AAEXXZ 100155d0 f   dddta.obj
 0001:00014900       ?WriteProjectiles@CDDDTA@@AAEXXZ 10015900 f   dddta.obj
 0001:00014ae0       ?WriteSmoke@CDDDTA@@AAEXXZ 10015ae0 f   dddta.obj
 0001:00014d70       ?WriteSubPart@CDDDTA@@AAEXPAUSubPart@@PAUPrimitiveStruct@@@Z 10015d70 f   dddta.obj
 0001:00014e60       ?WriteUnits@CDDDTA@@AAEXXZ 10015e60 f   dddta.obj
 0001:00014f60       ?_Get_data@?$deque@UTAShareMemStruct@CDDDTA@@V?$allocator@UTAShareMemStruct@CDDDTA@@@std@@@std@@AAEAAV?$_Deque_val@U?$_Deque_simple_types@UTAShareMemStruct@CDDDTA@@@std@@@2@XZ 10015f60 f i dddta.obj
 0001:00014f70       ?_Get_data@?$deque@UTAShareMemStruct@CDDDTA@@V?$allocator@UTAShareMemStruct@CDDDTA@@@std@@@std@@ABEABV?$_Deque_val@U?$_Deque_simple_types@UTAShareMemStruct@CDDDTA@@@std@@@2@XZ 10015f70 f i dddta.obj
 0001:00014f80       ?_Get_first@?$_Compressed_pair@V?$allocator@UTAShareMemStruct@CDDDTA@@@std@@V?$_Deque_val@U?$_Deque_simple_types@UTAShareMemStruct@CDDDTA@@@std@@@2@$00@std@@QAEAAV?$allocator@UTAShareMemStruct@CDDDTA@@@2@XZ 10015f80 f i dddta.obj
 0001:00014f90       ?_Get_first@?$_Compressed_pair@V?$allocator@UTAShareMemStruct@CDDDTA@@@std@@V?$_Deque_val@U?$_Deque_simple_types@UTAShareMemStruct@CDDDTA@@@std@@@2@$00@std@@QBEABV?$allocator@UTAShareMemStruct@CDDDTA@@@2@XZ 10015f90 f i dddta.obj
 0001:00014fa0       ?_Getal@?$deque@UTAShareMemStruct@CDDDTA@@V?$allocator@UTAShareMemStruct@CDDDTA@@@std@@@std@@AAEAAV?$allocator@UTAShareMemStruct@CDDDTA@@@2@XZ 10015fa0 f i dddta.obj
 0001:00014fc0       ?_Getal@?$deque@UTAShareMemStruct@CDDDTA@@V?$allocator@UTAShareMemStruct@CDDDTA@@@std@@@std@@ABEABV?$allocator@UTAShareMemStruct@CDDDTA@@@2@XZ 10015fc0 f i dddta.obj
 0001:00014fe0       ?_Getblock@?$_Deque_val@U?$_Deque_simple_types@UTAShareMemStruct@CDDDTA@@@std@@@std@@QBEII@Z 10015fe0 f i dddta.obj
 0001:00015000       ?_Getblock@?$deque@UTAShareMemStruct@CDDDTA@@V?$allocator@UTAShareMemStruct@CDDDTA@@@std@@@std@@ABEII@Z 10016000 f i dddta.obj
 0001:00015020       ?_Growmap@?$deque@UTAShareMemStruct@CDDDTA@@V?$allocator@UTAShareMemStruct@CDDDTA@@@std@@@std@@AAEXI@Z 10016020 f i dddta.obj
 0001:00015250       ?_Map@?$deque@UTAShareMemStruct@CDDDTA@@V?$allocator@UTAShareMemStruct@CDDDTA@@@std@@@std@@AAEAAPAPAUTAShareMemStruct@CDDDTA@@XZ 10016250 f i dddta.obj
 0001:00015270       ?_Mapsize@?$deque@UTAShareMemStruct@CDDDTA@@V?$allocator@UTAShareMemStruct@CDDDTA@@@std@@@std@@AAEAAIXZ 10016270 f i dddta.obj
 0001:00015290       ?_Myoff@?$deque@UTAShareMemStruct@CDDDTA@@V?$allocator@UTAShareMemStruct@CDDDTA@@@std@@@std@@AAEAAIXZ 10016290 f i dddta.obj
 0001:000152b0       ?_Mysize@?$deque@UTAShareMemStruct@CDDDTA@@V?$allocator@UTAShareMemStruct@CDDDTA@@@std@@@std@@AAEAAIXZ 100162b0 f i dddta.obj
 0001:000152d0       ?_Mysize@?$deque@UTAShareMemStruct@CDDDTA@@V?$allocator@UTAShareMemStruct@CDDDTA@@@std@@@std@@ABEABIXZ 100162d0 f i dddta.obj
 0001:000152f0       ?_Orphan_all@?$deque@UTAShareMemStruct@CDDDTA@@V?$allocator@UTAShareMemStruct@CDDDTA@@@std@@@std@@AAEXXZ 100162f0 f i dddta.obj
 0001:00015310       ?_Orphan_all@_Container_base12@std@@QAEXXZ 10016310 f i dddta.obj
 0001:00015320       ?_Release@?$_Uninitialized_backout@PAPAUTAShareMemStruct@CDDDTA@@@std@@QAEPAPAUTAShareMemStruct@CDDDTA@@XZ 10016320 f i dddta.obj
 0001:00015340       ?_Tidy@?$deque@UTAShareMemStruct@CDDDTA@@V?$allocator@UTAShareMemStruct@CDDDTA@@@std@@@std@@AAEXXZ 10016340 f i dddta.obj
 0001:00015460       ?_Unchecked_begin@?$deque@UTAShareMemStruct@CDDDTA@@V?$allocator@UTAShareMemStruct@CDDDTA@@@std@@@std@@QAE?AV?$_Deque_unchecked_iterator@V?$_Deque_val@U?$_Deque_simple_types@UTAShareMemStruct@CDDDTA@@@std@@@std@@@2@XZ 10016460 f i dddta.obj
 0001:000154a0       ?_Xlen@?$deque@UTAShareMemStruct@CDDDTA@@V?$allocator@UTAShareMemStruct@CDDDTA@@@std@@@std@@ABEXXZ 100164a0 f i dddta.obj
 0001:000154c0       ?allocate@?$allocator@PAUTAShareMemStruct@CDDDTA@@@std@@QAEPAPAUTAShareMemStruct@CDDDTA@@I@Z 100164c0 f i dddta.obj
 0001:000154e0       ?allocate@?$allocator@UTAShareMemStruct@CDDDTA@@@std@@QAEPAUTAShareMemStruct@CDDDTA@@I@Z 100164e0 f i dddta.obj
 0001:00015500       ?allocate@?$allocator@U_Container_proxy@std@@@std@@QAEPAU_Container_proxy@2@I@Z 10016500 f i dddta.obj
 0001:00015520       ?clear@?$deque@UTAShareMemStruct@CDDDTA@@V?$allocator@UTAShareMemStruct@CDDDTA@@@std@@@std@@QAEXXZ 10016520 f i dddta.obj
 0001:00015540       ?deallocate@?$_Default_allocator_traits@V?$allocator@U_Container_proxy@std@@@std@@@std@@SGXAAV?$allocator@U_Container_proxy@std@@@2@QAU_Container_proxy@2@I@Z 10016540 f i dddta.obj
 0001:00015560       ?deallocate@?$allocator@PAUTAShareMemStruct@CDDDTA@@@std@@QAEXQAPAUTAShareMemStruct@CDDDTA@@I@Z 10016560 f i dddta.obj
 0001:00015580       ?deallocate@?$allocator@UTAShareMemStruct@CDDDTA@@@std@@QAEXQAUTAShareMemStruct@CDDDTA@@I@Z 10016580 f i dddta.obj
 0001:000155a0       ?empty@?$deque@UTAShareMemStruct@CDDDTA@@V?$allocator@UTAShareMemStruct@CDDDTA@@@std@@@std@@QBE_NXZ 100165a0 f i dddta.obj
 0001:000155d0       ?max_size@?$_Default_allocator_traits@V?$allocator@UTAShareMemStruct@CDDDTA@@@std@@@std@@SGIABV?$allocator@UTAShareMemStruct@CDDDTA@@@2@@Z 100165d0 f i dddta.obj
 0001:000155e0       ?max_size@?$deque@UTAShareMemStruct@CDDDTA@@V?$allocator@UTAShareMemStruct@CDDDTA@@@std@@@std@@QBEIXZ 100165e0 f i dddta.obj
 0001:00015620       ?pop_back@?$deque@UTAShareMemStruct@CDDDTA@@V?$allocator@UTAShareMemStruct@CDDDTA@@@std@@@std@@QAEXXZ 10016620 f i dddta.obj
 0001:000156f0       ?push_front@?$deque@UTAShareMemStruct@CDDDTA@@V?$allocator@UTAShareMemStruct@CDDDTA@@@std@@@std@@QAEXABUTAShareMemStruct@CDDDTA@@@Z 100166f0 f i dddta.obj
 0001:00015710       ?size@?$deque@UTAShareMemStruct@CDDDTA@@V?$allocator@UTAShareMemStruct@CDDDTA@@@std@@@std@@QBEIXZ 10016710 f i dddta.obj
 0001:00015730       ??0CBookmarks@@QAE@XZ      10016730 f   bookmarks.obj
 0001:00015740       ??1CBookmarks@@QAE@XZ      10016740 f   bookmarks.obj
 0001:00015750       ?Blit@CBookmarks@@QAEXPAUIDirectDrawSurface@@@Z 10016750 f   bookmarks.obj
 0001:00015760       ?Message@CBookmarks@@QAE_NPAUHWND__@@IIJ@Z 10016760 f   bookmarks.obj
 0001:00015770       ??0CChangeQueue@@QAE@XZ    10016770 f   changequeue.obj
 0001:000157a0       ??1CChangeQueue@@QAE@XZ    100167a0 f   changequeue.obj
 0001:000157b0       ?Blit@CChangeQueue@@QAEXPAUIDirectDrawSurface@@@Z 100167b0 f   changequeue.obj
 0001:000157c0       ?Message@CChangeQueue@@QAE_NPAUHWND__@@IIJ@Z 100167c0 f   changequeue.obj
 0001:00015880       ?Write@@YGXPAUHWND__@@@Z   10016880 f   changequeue.obj
 0001:00015910       ??$sprintf_s@$0GE@@@YAHAAY0GE@DPBDZZ 10016910 f i cinomce.obj
 0001:00015940       ??0CIncome@@QAE@H@Z        10016940 f   cinomce.obj
 0001:00015b40       ??1CIncome@@QAE@XZ         10016b40 f   cinomce.obj
 0001:00015b50       ?BlitIncome@CIncome@@QAEXPAE@Z 10016b50 f   cinomce.obj
 0001:00015cd0       ?CorrectPos@CIncome@@AAEXXZ 10016cd0 f   cinomce.obj
 0001:00015dc0       ?DrawPlayerRect@CIncome@@AAEXHHD@Z 10016dc0 f   cinomce.obj
 0001:00015e20       ?DrawStorageText@CIncome@@AAEHMHH@Z 10016e20 f   cinomce.obj
 0001:00015f40       ?DrawTextA@CIncome@@AAEXPADHHD@Z 10016f40 f   cinomce.obj
 0001:000160a0       ?FillRect@CIncome@@AAEXD@Z 100170a0 f   cinomce.obj
 0001:00016120       ?GetPlayerColor@CIncome@@AAEEH@Z 10017120 f   cinomce.obj
 0001:00016150       ?IsShow@CIncome@@QAE_NPAUtagRECT@@@Z 10017150 f   cinomce.obj
 0001:000161a0       ?Message@CIncome@@QAE_NPAUHWND__@@IIJ@Z 100171a0 f   cinomce.obj
 0001:000166f0       ?PaintStoragebar@CIncome@@AAEXHHHH@Z 100176f0 f   cinomce.obj
 0001:000168d0       ?ReadPos@CIncome@@AAEXXZ   100178d0 f   cinomce.obj
 0001:00016980       ?Set@CIncome@@QAEXH@Z      10017980 f   cinomce.obj
 0001:000169a0       ?ShowAllIncome@CIncome@@AAEHXZ 100179a0 f   cinomce.obj
 0001:00016a70       ?ShowAllyIncome@CIncome@@AAEHXZ 10017a70 f   cinomce.obj
 0001:00016b60       ?ShowMyViewIncome@CIncome@@AAEXHH@Z 10017b60 f   cinomce.obj
 0001:00016c30       ?ShowPlayerIncome@CIncome@@AAEXHHH@Z 10017c30 f   cinomce.obj
 0001:00016f10       ?WritePos@CIncome@@AAEXXZ  10017f10 f   cinomce.obj
 0001:00016fc0       ?inRect@CIncome@@AAE_NHH@Z 10017fc0 f   cinomce.obj
 0001:000170e0       ??0CWarp@@QAE@H@Z          100180e0 f   commanderwarp.obj
 0001:00017160       ??1CWarp@@QAE@XZ           10018160 f   commanderwarp.obj
 0001:000171d0       ?Blit@CWarp@@QAEXPAUIDirectDrawSurface@@@Z 100181d0 f   commanderwarp.obj
 0001:00017240       ?BlitBtn@CWarp@@AAEXPAE@Z  10018240 f   commanderwarp.obj
 0001:000173d0       ?Message@CWarp@@QAE_NPAUHWND__@@IIJ@Z 100183d0 f   commanderwarp.obj
 0001:000175a0       ?SetPos@CWarp@@AAEXHH@Z    100185a0 f   commanderwarp.obj
 0001:000175f0       ?WithinButton@CWarp@@AAE_NHH@Z 100185f0 f   commanderwarp.obj
 0001:00017640       ??$?0$$V@?$_Compressed_pair@V?$allocator@D@std@@V?$_String_val@U?$_Simple_types@D@std@@@2@$00@std@@QAE@U_Zero_then_variadic_args_t@1@@Z 10018640 f i dialog.obj
 0001:00017660       ??$_Construct_in_place@PADABQAD@std@@YGXAAPADABQAD@Z 10018660 f i dialog.obj
 0001:000176a0       ??$_Convert_size@I@std@@YGII@Z 100186a0 f i dialog.obj
 0001:000176b0       ??$_Destroy_in_place@PAD@std@@YGXAAPAD@Z 100186b0 f i dialog.obj
 0001:000176c0       ??$_Get_size_of_n@$00@std@@YGII@Z 100186c0 f i dialog.obj
 0001:000176e0       ??$_Reallocate_for@V<lambda_9366063389c5f42a00a5088cf24e69de>@@PBD@?$basic_string@DU?$char_traits@D@std@@V?$allocator@D@2@@std@@AAEAAV01@IV<lambda_9366063389c5f42a00a5088cf24e69de>@@PBD@Z 100186e0 f i dialog.obj
 0001:000177a0       ??$_Unfancy@D@std@@YGPADPAD@Z 100187a0 f i dialog.obj
 0001:000177b0       ??$_Voidify_iter@PAPAD@std@@YGPAXPAPAD@Z 100187b0 f i dialog.obj
 0001:000177c0       ??$addressof@PAD@std@@YGPAPADAAPAD@Z 100187c0 f i dialog.obj
 0001:000177d0       ??$forward@ABQAD@std@@YGABQADABQAD@Z 100187d0 f i dialog.obj
 0001:000177e0       ??$max@I@std@@YGABIABI0@Z  100187e0 f i dialog.obj
 0001:00017810       ??0?$_String_val@U?$_Simple_types@D@std@@@std@@QAE@XZ 10018810 f i dialog.obj
 0001:00017840       ??0?$allocator@D@std@@QAE@XZ 10018840 f i dialog.obj
 0001:00017850       ??0?$basic_string@DU?$char_traits@D@std@@V?$allocator@D@2@@std@@QAE@QBD@Z 10018850 f i dialog.obj
 0001:000178e0       ??0Dialog@@QAE@H@Z         100188e0 f   dialog.obj
 0001:00017b70       ??0_Bxty@?$_String_val@U?$_Simple_types@D@std@@@std@@QAE@XZ 10018b70 f i dialog.obj
 0001:00017b90       ??0_Fake_proxy_ptr_impl@std@@QAE@ABU_Fake_allocator@1@ABU_Container_base0@1@@Z 10018b90 f i dialog.obj
 0001:00017ba0       ??1?$_Compressed_pair@V?$allocator@D@std@@V?$_String_val@U?$_Simple_types@D@std@@@2@$00@std@@QAE@XZ 10018ba0 f i dialog.obj
 0001:00017bc0       ??1?$_String_val@U?$_Simple_types@D@std@@@std@@QAE@XZ 10018bc0 f i dialog.obj
 0001:00017be0       ??1?$basic_string@DU?$char_traits@D@std@@V?$allocator@D@2@@std@@QAE@XZ 10018be0 f i dialog.obj
 0001:00017c00       ??1Dialog@@QAE@XZ          10018c00 f   dialog.obj
 0001:00017c10       ??1_Bxty@?$_String_val@U?$_Simple_types@D@std@@@std@@QAE@XZ 10018c10 f i dialog.obj
 0001:00017c20       ??A?$basic_string@DU?$char_traits@D@std@@V?$allocator@D@2@@std@@QAEAADI@Z 10018c20 f i dialog.obj
 0001:00017c40       ??R<lambda_9366063389c5f42a00a5088cf24e69de>@@QBE@QADIQBD@Z 10018c40 f i dialog.obj
 0001:00017c80       ?BlitCursor@Dialog@@QAEXPAEHH@Z 10018c80 f   dialog.obj
 0001:00017e60       ?BlitDialog@Dialog@@QAEXPAE@Z 10018e60 f   dialog.obj
 0001:00018100       ?CorrectPos@Dialog@@AAEXXZ 10019100 f   dialog.obj
 0001:00018190       ?DrawBackgroundButton@Dialog@@AAEXXZ 10019190 f   dialog.obj
 0001:00018520       ?DrawDelay@Dialog@@AAEXXZ  10019520 f   dialog.obj
 0001:00018620       ?DrawFullRings@Dialog@@AAEXXZ 10019620 f   dialog.obj
 0001:000188b0       ?DrawKeyCode@Dialog@@AAEXXZ 100198b0 f   dialog.obj
 0001:000189f0       ?DrawMegaMapKey@Dialog@@AAEXXZ 100199f0 f   dialog.obj
 0001:00018ae0       ?DrawOptimizeDT@Dialog@@AAEXXZ 10019ae0 f   dialog.obj
 0001:00018d70       ?DrawShareBox@Dialog@@AAEXXZ 10019d70 f   dialog.obj
 0001:00019170       ?DrawSmallText@Dialog@@QAEXPAEHHPAD@Z 1001a170 f   dialog.obj
 0001:000197b0       ?DrawTextA@Dialog@@QAEXPAEHHPAD@Z 1001a7b0 f   dialog.obj
 0001:00019df0       ?DrawTinyText@Dialog@@AAEXPADHHD@Z 1001adf0 f   dialog.obj
 0001:00019f50       ?DrawVSync@Dialog@@AAEXXZ  1001af50 f   dialog.obj
 0001:0001a2c0       ?DrawVisibleButton@Dialog@@AAEXXZ 1001b2c0 f   dialog.obj
 0001:0001a380       ?DrawWhiteboardKey@Dialog@@AAEXXZ 1001b380 f   dialog.obj
 0001:0001a470       ?EnterOption@@YGHPAUtagInlineX86StackBuffer@@@Z 1001b470 f   dialog.obj
 0001:0001a490       ?FillRect@Dialog@@AAEXHHHHD@Z 1001b490 f   dialog.obj
 0001:0001a550       ?HideDialog@Dialog@@QAEXXZ 1001b550 f   dialog.obj
 0001:0001a590       ?Inside@Dialog@@AAE_NHHH@Z 1001b590 f   dialog.obj
 0001:0001a800       ?IsShow@Dialog@@QAE_NPAUtagRECT@@@Z 1001b800 f   dialog.obj
 0001:0001a860       ?Message@Dialog@@QAE_NPAUHWND__@@IIJ@Z 1001b860 f   dialog.obj
 0001:0001b5e0       ?PressInOption@@YGHPAUtagInlineX86StackBuffer@@@Z 1001c5e0 f   dialog.obj
 0001:0001b610       ?ReadPos@Dialog@@AAEXXZ    1001c610 f   dialog.obj
 0001:0001b6a0       ?ReadSettings@Dialog@@QAEXXZ 1001c6a0 f   dialog.obj
 0001:0001b9e0       ?RenderDialog@Dialog@@QAEXPAE@Z 1001c9e0 f   dialog.obj
 0001:0001bcc0       ?RestoreAll@Dialog@@QAEXXZ 1001ccc0 f   dialog.obj
 0001:0001be40       ?RestoreCursor@Dialog@@AAEXXZ 1001ce40 f   dialog.obj
 0001:0001c000       ?SetAll@Dialog@@QAEXXZ     1001d000 f   dialog.obj
 0001:0001c110       ?SetVisibleList@Dialog@@AAEXXZ 1001d110 f   dialog.obj
 0001:0001c120       ?ShowDialog@Dialog@@QAEXXZ 1001d120 f   dialog.obj
 0001:0001c190       ?WritePos@Dialog@@AAEXXZ   1001d190 f   dialog.obj
 0001:0001c240       ?WriteSettings@Dialog@@AAEXXZ 1001d240 f   dialog.obj
 0001:0001c3a0       ?_Calculate_growth@?$basic_string@DU?$char_traits@D@std@@V?$allocator@D@2@@std@@ABEII@Z 1001d3a0 f i dialog.obj
 0001:0001c3d0       ?_Calculate_growth@?$basic_string@DU?$char_traits@D@std@@V?$allocator@D@2@@std@@CGIIII@Z 1001d3d0 f i dialog.obj
 0001:0001c420       ?_Get_first@?$_Compressed_pair@V?$allocator@D@std@@V?$_String_val@U?$_Simple_types@D@std@@@2@$00@std@@QAEAAV?$allocator@D@2@XZ 1001d420 f i dialog.obj
 0001:0001c430       ?_Get_first@?$_Compressed_pair@V?$allocator@D@std@@V?$_String_val@U?$_Simple_types@D@std@@@2@$00@std@@QBEABV?$allocator@D@2@XZ 1001d430 f i dialog.obj
 0001:0001c440       ?_Getal@?$basic_string@DU?$char_traits@D@std@@V?$allocator@D@2@@std@@AAEAAV?$allocator@D@2@XZ 1001d440 f i dialog.obj
 0001:0001c460       ?_Getal@?$basic_string@DU?$char_traits@D@std@@V?$allocator@D@2@@std@@ABEABV?$allocator@D@2@XZ 1001d460 f i dialog.obj
 0001:0001c480       ?_Large_string_engaged@?$_String_val@U?$_Simple_types@D@std@@@std@@QBE_NXZ 1001d480 f i dialog.obj
 0001:0001c4b0       ?_Myptr@?$_String_val@U?$_Simple_types@D@std@@@std@@QAEPADXZ 1001d4b0 f i dialog.obj
 0001:0001c4f0       ?_Release@_Fake_proxy_ptr_impl@std@@QAEXXZ 1001d4f0 f i dialog.obj
 0001:0001c500       ?_Tidy_deallocate@?$basic_string@DU?$char_traits@D@std@@V?$allocator@D@2@@std@@AAEXXZ 1001d500 f i dialog.obj
 0001:0001c5c0       ?_Tidy_init@?$basic_string@DU?$char_traits@D@std@@V?$allocator@D@2@@std@@AAEXXZ 1001d5c0 f i dialog.obj
 0001:0001c600       ?_Xlen_string@std@@YGXXZ   1001d600 f i dialog.obj
 0001:0001c610       ?allocate@?$allocator@D@std@@QAEPADI@Z 1001d610 f i dialog.obj
 0001:0001c630       ?assign@?$_Narrow_char_traits@DH@std@@SGXAADABD@Z 1001d630 f i dialog.obj
 0001:0001c650       ?assign@?$basic_string@DU?$char_traits@D@std@@V?$allocator@D@2@@std@@QAEAAV12@QBD@Z 1001d650 f i dialog.obj
 0001:0001c680       ?assign@?$basic_string@DU?$char_traits@D@std@@V?$allocator@D@2@@std@@QAEAAV12@QBDI@Z 1001d680 f i dialog.obj
 0001:0001c700       ?copy@?$_Char_traits@DH@std@@SGPADQADQBDI@Z 1001d700 f i dialog.obj
 0001:0001c720       ?deallocate@?$allocator@D@std@@QAEXQADI@Z 1001d720 f i dialog.obj
 0001:0001c740       ?length@?$_Narrow_char_traits@DH@std@@SGIQBD@Z 1001d740 f i dialog.obj
 0001:0001c760       ?max_size@?$_Default_allocator_traits@V?$allocator@D@std@@@std@@SGIABV?$allocator@D@2@@Z 1001d760 f i dialog.obj
 0001:0001c770       ?max_size@?$basic_string@DU?$char_traits@D@std@@V?$allocator@D@2@@std@@QBEIXZ 1001d770 f i dialog.obj
 0001:0001c7d0       ?move@?$_Char_traits@DH@std@@SGPADQADQBDI@Z 1001d7d0 f i dialog.obj
 0001:0001c7f0       ?size@?$basic_string@DU?$char_traits@D@std@@V?$allocator@D@2@@std@@QBEIXZ 1001d7f0 f i dialog.obj
 0001:0001c810       ??0CMapRect@@QAE@H@Z       1001d810 f   maprect.obj
 0001:0001ccd0       ??1CMapRect@@QAE@XZ        1001dcd0 f   maprect.obj
 0001:0001cd30       ?Blit@CMapRect@@QAEXPAUIDirectDrawSurface@@@Z 1001dd30 f   maprect.obj
 0001:0001cf60       ?GetMapMaxX@CMapRect@@AAEHXZ 1001df60 f   maprect.obj
 0001:0001cf80       ?GetMapMaxY@CMapRect@@AAEHXZ 1001df80 f   maprect.obj
 0001:0001cfa0       ?LockBlit@CMapRect@@QAEXPADH@Z 1001dfa0 f   maprect.obj
 0001:0001d2e0       ?PaintRect@CMapRect@@AAEXXZ 1001e2e0 f   maprect.obj
 0001:0001d470       ?WorldToMiniX@CMapRect@@QAEHH@Z 1001e470 f   maprect.obj
 0001:0001d4b0       ?WorldToMiniY@CMapRect@@QAEHH@Z 1001e4b0 f   maprect.obj
 0001:0001d4f0       ??0CMinimapHandler@@QAE@XZ 1001e4f0 f   MinimapHandler.obj
 0001:0001d520       ??1CMinimapHandler@@UAE@XZ 1001e520 f   MinimapHandler.obj
 0001:0001d540       ??_ECMinimapHandler@@UAEPAXI@Z 1001e540 f i MinimapHandler.obj
 0001:0001d540       ??_GCMinimapHandler@@UAEPAXI@Z 1001e540 f i MinimapHandler.obj
 0001:0001d570       ?DeinitMinimap@CMinimapHandler@@QAEXXZ 1001e570 f   MinimapHandler.obj
 0001:0001d5c0       ?FrameUpdate@CMinimapHandler@@QAEXXZ 1001e5c0 f   MinimapHandler.obj
 0001:0001d640       ?InitMinimap@CMinimapHandler@@QAEXPAUSharedMem@@@Z 1001e640 f   MinimapHandler.obj
 0001:0001d720       ??0ShareDialogExpand@@QAE@H@Z 1001e720 f   sharedialog.obj
 0001:0001d830       ??1ShareDialogExpand@@QAE@XZ 1001e830 f   sharedialog.obj
 0001:0001d8a0       ?EnergyPosProc@@YGXPAU_GUIInfo@@H@Z 1001e8a0 f   sharedialog.obj
 0001:0001d9c0       ?GameSpeedPosProc@@YGXPAU_GUIInfo@@H@Z 1001e9c0 f   sharedialog.obj
 0001:0001da20       ?MetalPosProc@@YGXPAU_GUIInfo@@H@Z 1001ea20 f   sharedialog.obj
 0001:0001db40       ?ShareDialogInit@@YGHPAUtagInlineX86StackBuffer@@@Z 1001eb40 f   sharedialog.obj
 0001:0001e020       ?ShareDialogProc@@YGHPAUtagInlineX86StackBuffer@@@Z 1001f020 f   sharedialog.obj
 0001:0001e2e0       ??0TABugFixing@@QAE@XZ     1001f2e0 f   TABugFix.obj
 0001:0001e830       ??1TABugFixing@@QAE@XZ     1001f830 f   TABugFix.obj
 0001:0001eac0       ?AntiCheat@TABugFixing@@QAEHXZ 1001fac0 f   TABugFix.obj
 0001:0001eb20       ?BadModelHunter@@YGHPAUtagInlineX86StackBuffer@@@Z 1001fb20 f   TABugFix.obj
 0001:0001ec70       ?CDMusic_MenuProc@@YGHPAUtagInlineX86StackBuffer@@@Z 1001fc70 f   TABugFix.obj
 0001:0001ec90       ?CDMusic_VictoryProc@@YGHPAUtagInlineX86StackBuffer@@@Z 1001fc90 f   TABugFix.obj
 0001:0001eca0       ?EnterProc@@YGHPAUtagInlineX86StackBuffer@@@Z 1001fca0 f   TABugFix.obj
 0001:0001ecc0       ?LeaveProc@@YGHPAUtagInlineX86StackBuffer@@@Z 1001fcc0 f   TABugFix.obj
 0001:0001ece0       ?LogToErrorlog@@YGXPAD@Z   1001fce0 f   TABugFix.obj
 0001:0001ed60       ?Message@TABugFixing@@QAE_NPAUHWND__@@IIJ@Z 1001fd60 f   TABugFix.obj
 0001:0001ed70       ?UnitDeath_BeforeUpdateUI_Proc@@YGHPAUtagInlineX86StackBuffer@@@Z 1001fd70 f   TABugFix.obj
 0001:0001eda0       ?UnitIDOutRange_Proc@@YGHPAUtagInlineX86StackBuffer@@@Z 1001fda0 f   TABugFix.obj
 0001:0001ede0       ?UnitVolumeYequZero_Proc@@YGHPAUtagInlineX86StackBuffer@@@Z 1001fde0 f   TABugFix.obj
 0001:0001ee10       ?VectoredHandler@@YGJPAU_EXCEPTION_POINTERS@@@Z 1001fe10 f   TABugFix.obj
 0001:0001ee20       ?resume_EHA@@YGKPAX@Z      1001fe20 f   TABugFix.obj
 0001:0001ee50       ??$?0$$V@?$_Compressed_pair@V?$allocator@PAVRegDword@@@std@@V?$_Vector_val@U?$_Simple_types@PAVRegDword@@@std@@@2@$00@std@@QAE@U_Zero_then_variadic_args_t@1@@Z 1001fe50 f i TAConfig.obj
 0001:0001ee70       ??$?0$$V@?$_Compressed_pair@V?$allocator@PAVRegString@@@std@@V?$_Vector_val@U?$_Simple_types@PAVRegString@@@std@@@2@$00@std@@QAE@U_Zero_then_variadic_args_t@1@@Z 1001fe70 f i TAConfig.obj
 0001:0001ee90       ??$_Construct_in_place@PAVRegDword@@ABQAV1@@std@@YGXAAPAVRegDword@@ABQAV1@@Z 1001fe90 f i TAConfig.obj
 0001:0001eed0       ??$_Construct_in_place@PAVRegString@@ABQAV1@@std@@YGXAAPAVRegString@@ABQAV1@@Z 1001fed0 f i TAConfig.obj
 0001:0001ef10       ??$_Copy_memmove@PAPAVRegDword@@PAPAV1@@std@@YGPAPAVRegDword@@PAPAV1@00@Z 1001ff10 f i TAConfig.obj
 0001:0001ef80       ??$_Copy_memmove@PAPAVRegString@@PAPAV1@@std@@YGPAPAVRegString@@PAPAV1@00@Z 1001ff80 f i TAConfig.obj
 0001:0001eff0       ??$_Destroy_range@V?$allocator@PAVRegDword@@@std@@@std@@YGXPAPAVRegDword@@QAPAV1@AAV?$allocator@PAVRegDword@@@0@@Z 1001fff0 f i TAConfig.obj
 0001:0001f000       ??$_Destroy_range@V?$allocator@PAVRegString@@@std@@@std@@YGXPAPAVRegString@@QAPAV1@AAV?$allocator@PAVRegString@@@0@@Z 10020000 f i TAConfig.obj
 0001:0001f010       ??$_Emplace_back@PAVRegDword@@@?$_Uninitialized_backout_al@V?$allocator@PAVRegDword@@@std@@@std@@QAEX$$QAPAVRegDword@@@Z 10020010 f i TAConfig.obj
 0001:0001f050       ??$_Emplace_back@PAVRegString@@@?$_Uninitialized_backout_al@V?$allocator@PAVRegString@@@std@@@std@@QAEX$$QAPAVRegString@@@Z 10020050 f i TAConfig.obj
 0001:0001f090       ??$_Emplace_back_with_unused_capacity@ABQAVRegDword@@@?$vector@PAVRegDword@@V?$allocator@PAVRegDword@@@std@@@std@@AAEAAPAVRegDword@@ABQAV2@@Z 10020090 f i TAConfig.obj
 0001:0001f0f0       ??$_Emplace_back_with_unused_capacity@ABQAVRegString@@@?$vector@PAVRegString@@V?$allocator@PAVRegString@@@std@@@std@@AAEAAPAVRegString@@ABQAV2@@Z 100200f0 f i TAConfig.obj
 0001:0001f150       ??$_Emplace_one_at_back@ABQAVRegDword@@@?$vector@PAVRegDword@@V?$allocator@PAVRegDword@@@std@@@std@@AAEAAPAVRegDword@@ABQAV2@@Z 10020150 f i TAConfig.obj
 0001:0001f1b0       ??$_Emplace_one_at_back@ABQAVRegString@@@?$vector@PAVRegString@@V?$allocator@PAVRegString@@@std@@@std@@AAEAAPAVRegString@@ABQAV2@@Z 100201b0 f i TAConfig.obj
 0001:0001f210       ??$_Emplace_reallocate@ABQAVRegDword@@@?$vector@PAVRegDword@@V?$allocator@PAVRegDword@@@std@@@std@@AAEPAPAVRegDword@@QAPAV2@ABQAV2@@Z 10020210 f i TAConfig.obj
 0001:0001f3e0       ??$_Emplace_reallocate@ABQAVRegString@@@?$vector@PAVRegString@@V?$allocator@PAVRegString@@@std@@@std@@AAEPAPAVRegString@@QAPAV2@ABQAV2@@Z 100203e0 f i TAConfig.obj
 0001:0001f5b0       ??$_Get_unwrapped@ABQAPAVRegDword@@@std@@YG?A_TABQAPAVRegDword@@@Z 100205b0 f i TAConfig.obj
 0001:0001f5c0       ??$_Get_unwrapped@ABQAPAVRegString@@@std@@YG?A_TABQAPAVRegString@@@Z 100205c0 f i TAConfig.obj
 0001:0001f5d0       ??$_To_address@PAPAVRegDword@@@std@@YG?A_PABQAPAVRegDword@@@Z 100205d0 f i TAConfig.obj
 0001:0001f5e0       ??$_To_address@PAPAVRegString@@@std@@YG?A_PABQAPAVRegString@@@Z 100205e0 f i TAConfig.obj
 0001:0001f5f0       ??$_Unfancy@PAVRegDword@@@std@@YGPAPAVRegDword@@PAPAV1@@Z 100205f0 f i TAConfig.obj
 0001:0001f600       ??$_Unfancy@PAVRegString@@@std@@YGPAPAVRegString@@PAPAV1@@Z 10020600 f i TAConfig.obj
 0001:0001f610       ??$_Uninitialized_move@PAPAVRegDword@@V?$allocator@PAVRegDword@@@std@@@std@@YGPAPAVRegDword@@QAPAV1@0PAPAV1@AAV?$allocator@PAVRegDword@@@0@@Z 10020610 f i TAConfig.obj
 0001:0001f6f0       ??$_Uninitialized_move@PAPAVRegString@@V?$allocator@PAVRegString@@@std@@@std@@YGPAPAVRegString@@QAPAV1@0PAPAV1@AAV?$allocator@PAVRegString@@@0@@Z 100206f0 f i TAConfig.obj
 0001:0001f7d0       ??$_Voidify_iter@PAPAVRegDword@@@std@@YGPAXPAPAVRegDword@@@Z 100207d0 f i TAConfig.obj
 0001:0001f7e0       ??$_Voidify_iter@PAPAVRegString@@@std@@YGPAXPAPAVRegString@@@Z 100207e0 f i TAConfig.obj
 0001:0001f7f0       ??$addressof@PAVRegDword@@@std@@YGPAPAVRegDword@@AAPAV1@@Z 100207f0 f i TAConfig.obj
 0001:0001f800       ??$addressof@PAVRegString@@@std@@YGPAPAVRegString@@AAPAV1@@Z 10020800 f i TAConfig.obj
 0001:0001f810       ??$addressof@V?$_Vector_val@U?$_Simple_types@PAVRegDword@@@std@@@std@@@std@@YGPAV?$_Vector_val@U?$_Simple_types@PAVRegDword@@@std@@@0@AAV10@@Z 10020810 f i TAConfig.obj
 0001:0001f820       ??$addressof@V?$_Vector_val@U?$_Simple_types@PAVRegString@@@std@@@std@@@std@@YGPAV?$_Vector_val@U?$_Simple_types@PAVRegString@@@std@@@0@AAV10@@Z 10020820 f i TAConfig.obj
 0001:0001f830       ??$construct@PAVRegDword@@ABQAV1@@?$_Default_allocator_traits@V?$allocator@PAVRegDword@@@std@@@std@@SGXAAV?$allocator@PAVRegDword@@@1@QAPAVRegDword@@ABQAV3@@Z 10020830 f i TAConfig.obj
 0001:0001f870       ??$construct@PAVRegDword@@PAV1@@?$_Default_allocator_traits@V?$allocator@PAVRegDword@@@std@@@std@@SGXAAV?$allocator@PAVRegDword@@@1@QAPAVRegDword@@$$QAPAV3@@Z 10020870 f i TAConfig.obj
 0001:0001f8b0       ??$construct@PAVRegString@@ABQAV1@@?$_Default_allocator_traits@V?$allocator@PAVRegString@@@std@@@std@@SGXAAV?$allocator@PAVRegString@@@1@QAPAVRegString@@ABQAV3@@Z 100208b0 f i TAConfig.obj
 0001:0001f8f0       ??$construct@PAVRegString@@PAV1@@?$_Default_allocator_traits@V?$allocator@PAVRegString@@@std@@@std@@SGXAAV?$allocator@PAVRegString@@@1@QAPAVRegString@@$$QAPAV3@@Z 100208f0 f i TAConfig.obj
 0001:0001f930       ??$destroy@PAVRegDword@@@?$_Default_allocator_traits@V?$allocator@PAVRegDword@@@std@@@std@@SGXAAV?$allocator@PAVRegDword@@@1@QAPAVRegDword@@@Z 10020930 f i TAConfig.obj
 0001:0001f940       ??$destroy@PAVRegString@@@?$_Default_allocator_traits@V?$allocator@PAVRegString@@@std@@@std@@SGXAAV?$allocator@PAVRegString@@@1@QAPAVRegString@@@Z 10020940 f i TAConfig.obj
 0001:0001f950       ??$emplace_back@ABQAVRegDword@@@?$vector@PAVRegDword@@V?$allocator@PAVRegDword@@@std@@@std@@QAE?A_TABQAVRegDword@@@Z 10020950 f i TAConfig.obj
 0001:0001f980       ??$emplace_back@ABQAVRegString@@@?$vector@PAVRegString@@V?$allocator@PAVRegString@@@std@@@std@@QAE?A_TABQAVRegString@@@Z 10020980 f i TAConfig.obj
 0001:0001f9b0       ??$forward@ABQAVRegDword@@@std@@YGABQAVRegDword@@ABQAV1@@Z 100209b0 f i TAConfig.obj
 0001:0001f9c0       ??$forward@ABQAVRegString@@@std@@YGABQAVRegString@@ABQAV1@@Z 100209c0 f i TAConfig.obj
 0001:0001f9d0       ??$forward@PAVRegDword@@@std@@YG$$QAPAVRegDword@@AAPAV1@@Z 100209d0 f i TAConfig.obj
 0001:0001f9e0       ??$forward@PAVRegString@@@std@@YG$$QAPAVRegString@@AAPAV1@@Z 100209e0 f i TAConfig.obj
 0001:0001f9f0       ??$move@AAPAVRegDword@@@std@@YG$$QAPAVRegDword@@AAPAV1@@Z 100209f0 f i TAConfig.obj
 0001:0001fa00       ??$move@AAPAVRegString@@@std@@YG$$QAPAVRegString@@AAPAV1@@Z 10020a00 f i TAConfig.obj
 0001:0001fa10       ??0?$CTraceCategoryEx@$00$0A@@ATL@@QAE@PBD@Z 10020a10 f i TAConfig.obj
 0001:0001fa20       ??0?$CTraceCategoryEx@$01$0A@@ATL@@QAE@PBD@Z 10020a20 f i TAConfig.obj
 0001:0001fa30       ??0?$CTraceCategoryEx@$03$0A@@ATL@@QAE@PBD@Z 10020a30 f i TAConfig.obj
 0001:0001fa40       ??0?$CTraceCategoryEx@$07$0A@@ATL@@QAE@PBD@Z 10020a40 f i TAConfig.obj
 0001:0001fa50       ??0?$CTraceCategoryEx@$0BA@$0A@@ATL@@QAE@PBD@Z 10020a50 f i TAConfig.obj
 0001:0001fa60       ??0?$CTraceCategoryEx@$0BAA@$0A@@ATL@@QAE@PBD@Z 10020a60 f i TAConfig.obj
 0001:0001fa70       ??0?$CTraceCategoryEx@$0BAAA@$0A@@ATL@@QAE@PBD@Z 10020a70 f i TAConfig.obj
 0001:0001fa80       ??0?$CTraceCategoryEx@$0BAAAA@$0A@@ATL@@QAE@PBD@Z 10020a80 f i TAConfig.obj
 0001:0001fa90       ??0?$CTraceCategoryEx@$0BAAAAA@$0A@@ATL@@QAE@PBD@Z 10020a90 f i TAConfig.obj
 0001:0001faa0       ??0?$CTraceCategoryEx@$0CA@$0A@@ATL@@QAE@PBD@Z 10020aa0 f i TAConfig.obj
 0001:0001fab0       ??0?$CTraceCategoryEx@$0CAA@$0A@@ATL@@QAE@PBD@Z 10020ab0 f i TAConfig.obj
 0001:0001fac0       ??0?$CTraceCategoryEx@$0CAAA@$0A@@ATL@@QAE@PBD@Z 10020ac0 f i TAConfig.obj
 0001:0001fad0       ??0?$CTraceCategoryEx@$0CAAAA@$0A@@ATL@@QAE@PBD@Z 10020ad0 f i TAConfig.obj
 0001:0001fae0       ??0?$CTraceCategoryEx@$0CAAAAA@$0A@@ATL@@QAE@PBD@Z 10020ae0 f i TAConfig.obj
 0001:0001faf0       ??0?$CTraceCategoryEx@$0EA@$0A@@ATL@@QAE@PBD@Z 10020af0 f i TAConfig.obj
 0001:0001fb00       ??0?$CTraceCategoryEx@$0EAA@$0A@@ATL@@QAE@PBD@Z 10020b00 f i TAConfig.obj
 0001:0001fb10       ??0?$CTraceCategoryEx@$0EAAA@$0A@@ATL@@QAE@PBD@Z 10020b10 f i TAConfig.obj
 0001:0001fb20       ??0?$CTraceCategoryEx@$0EAAAA@$0A@@ATL@@QAE@PBD@Z 10020b20 f i TAConfig.obj
 0001:0001fb30       ??0?$CTraceCategoryEx@$0EAAAAA@$0A@@ATL@@QAE@PBD@Z 10020b30 f i TAConfig.obj
 0001:0001fb40       ??0?$CTraceCategoryEx@$0IA@$0A@@ATL@@QAE@PBD@Z 10020b40 f i TAConfig.obj
 0001:0001fb50       ??0?$CTraceCategoryEx@$0IAA@$0A@@ATL@@QAE@PBD@Z 10020b50 f i TAConfig.obj
 0001:0001fb60       ??0?$CTraceCategoryEx@$0IAAA@$0A@@ATL@@QAE@PBD@Z 10020b60 f i TAConfig.obj
 0001:0001fb70       ??0?$CTraceCategoryEx@$0IAAAA@$0A@@ATL@@QAE@PBD@Z 10020b70 f i TAConfig.obj
 0001:0001fb80       ??0?$_Uninitialized_backout_al@V?$allocator@PAVRegDword@@@std@@@std@@QAE@PAPAVRegDword@@AAV?$allocator@PAVRegDword@@@1@@Z 10020b80 f i TAConfig.obj
 0001:0001fbb0       ??0?$_Uninitialized_backout_al@V?$allocator@PAVRegString@@@std@@@std@@QAE@PAPAVRegString@@AAV?$allocator@PAVRegString@@@1@@Z 10020bb0 f i TAConfig.obj
 0001:0001fbe0       ??0?$_Vector_const_iterator@V?$_Vector_val@U?$_Simple_types@PAVRegDword@@@std@@@std@@@std@@QAE@PAPAVRegDword@@PBU_Container_base0@1@@Z 10020be0 f i TAConfig.obj
 0001:0001fc10       ??0?$_Vector_const_iterator@V?$_Vector_val@U?$_Simple_types@PAVRegString@@@std@@@std@@@std@@QAE@PAPAVRegString@@PBU_Container_base0@1@@Z 10020c10 f i TAConfig.obj
 0001:0001fc40       ??0?$_Vector_iterator@V?$_Vector_val@U?$_Simple_types@PAVRegDword@@@std@@@std@@@std@@QAE@PAPAVRegDword@@PBU_Container_base0@1@@Z 10020c40 f i TAConfig.obj
 0001:0001fc60       ??0?$_Vector_iterator@V?$_Vector_val@U?$_Simple_types@PAVRegString@@@std@@@std@@@std@@QAE@PAPAVRegString@@PBU_Container_base0@1@@Z 10020c60 f i TAConfig.obj
 0001:0001fc80       ??0?$_Vector_val@U?$_Simple_types@PAVRegDword@@@std@@@std@@QAE@XZ 10020c80 f i TAConfig.obj
 0001:0001fcb0       ??0?$_Vector_val@U?$_Simple_types@PAVRegString@@@std@@@std@@QAE@XZ 10020cb0 f i TAConfig.obj
 0001:0001fce0       ??0?$allocator@PAVRegDword@@@std@@QAE@XZ 10020ce0 f i TAConfig.obj
 0001:0001fcf0       ??0?$allocator@PAVRegString@@@std@@QAE@XZ 10020cf0 f i TAConfig.obj
 0001:0001fd00       ??0?$vector@PAVRegDword@@V?$allocator@PAVRegDword@@@std@@@std@@QAE@XZ 10020d00 f i TAConfig.obj
 0001:0001fd30       ??0?$vector@PAVRegString@@V?$allocator@PAVRegString@@@std@@@std@@QAE@XZ 10020d30 f i TAConfig.obj
 0001:0001fd60       ??0CAtlException@ATL@@QAE@J@Z 10020d60 f i TAConfig.obj
 0001:0001fd80       ??0RegDword@@QAE@PADHK@Z   10020d80 f   TAConfig.obj
 0001:0001fdf0       ??0RegString@@QAE@PADH0H@Z 10020df0 f   TAConfig.obj
 0001:0001fe90       ??0TADRConfig@@QAE@XZ      10020e90 f   TAConfig.obj
 0001:00020280       ??1?$_Uninitialized_backout_al@V?$allocator@PAVRegDword@@@std@@@std@@QAE@XZ 10021280 f i TAConfig.obj
 0001:000202b0       ??1?$_Uninitialized_backout_al@V?$allocator@PAVRegString@@@std@@@std@@QAE@XZ 100212b0 f i TAConfig.obj
 0001:000202e0       ??1?$vector@PAVRegDword@@V?$allocator@PAVRegDword@@@std@@@std@@QAE@XZ 100212e0 f i TAConfig.obj
 0001:00020300       ??1?$vector@PAVRegString@@V?$allocator@PAVRegString@@@std@@@std@@QAE@XZ 10021300 f i TAConfig.obj
 0001:00020320       ??1RegDword@@QAE@XZ        10021320 f   TAConfig.obj
 0001:00020350       ??1RegString@@QAE@XZ       10021350 f   TAConfig.obj
 0001:000203a0       ??1TADRConfig@@QAE@XZ      100213a0 f   TAConfig.obj
 0001:00020480       ??8?$_Vector_const_iterator@V?$_Vector_val@U?$_Simple_types@PAVRegDword@@@std@@@std@@@std@@QBE_NABV01@@Z 10021480 f i TAConfig.obj
 0001:000204c0       ??8?$_Vector_const_iterator@V?$_Vector_val@U?$_Simple_types@PAVRegString@@@std@@@std@@@std@@QBE_NABV01@@Z 100214c0 f i TAConfig.obj
 0001:00020500       ??9?$_Vector_const_iterator@V?$_Vector_val@U?$_Simple_types@PAVRegString@@@std@@@std@@@std@@QBE_NABV01@@Z 10021500 f i TAConfig.obj
 0001:00020540       ??D?$_Vector_const_iterator@V?$_Vector_val@U?$_Simple_types@PAVRegDword@@@std@@@std@@@std@@QBEABQAVRegDword@@XZ 10021540 f i TAConfig.obj
 0001:00020550       ??D?$_Vector_const_iterator@V?$_Vector_val@U?$_Simple_types@PAVRegString@@@std@@@std@@@std@@QBEABQAVRegString@@XZ 10021550 f i TAConfig.obj
 0001:00020560       ??D?$_Vector_iterator@V?$_Vector_val@U?$_Simple_types@PAVRegDword@@@std@@@std@@@std@@QBEAAPAVRegDword@@XZ 10021560 f i TAConfig.obj
 0001:00020580       ??D?$_Vector_iterator@V?$_Vector_val@U?$_Simple_types@PAVRegString@@@std@@@std@@@std@@QBEAAPAVRegString@@XZ 10021580 f i TAConfig.obj
 0001:000205a0       ??E?$_Vector_const_iterator@V?$_Vector_val@U?$_Simple_types@PAVRegDword@@@std@@@std@@@std@@QAEAAV01@XZ 100215a0 f i TAConfig.obj
 0001:000205c0       ??E?$_Vector_const_iterator@V?$_Vector_val@U?$_Simple_types@PAVRegString@@@std@@@std@@@std@@QAEAAV01@XZ 100215c0 f i TAConfig.obj
 0001:000205e0       ??E?$_Vector_iterator@V?$_Vector_val@U?$_Simple_types@PAVRegDword@@@std@@@std@@@std@@QAEAAV01@XZ 100215e0 f i TAConfig.obj
 0001:00020600       ??E?$_Vector_iterator@V?$_Vector_val@U?$_Simple_types@PAVRegString@@@std@@@std@@@std@@QAEAAV01@XZ 10021600 f i TAConfig.obj
 0001:00020620       ??_GRegDword@@QAEPAXI@Z    10021620 f i TAConfig.obj
 0001:00020650       ??_GRegString@@QAEPAXI@Z   10021650 f i TAConfig.obj
 0001:00020680       ?AtlCrtErrorCheck@ATL@@YGHH@Z 10021680 f i TAConfig.obj
 0001:00020740       ?AtlThrowImpl@ATL@@YGXJ@Z  10021740 f i TAConfig.obj
 0001:00020770       ?EnumIniRegInfo_Begin@TADRConfig@@QAEHPAPAU_EnumRegInfo@@PAPBDPAPBX@Z 10021770 f   TAConfig.obj
 0001:00020800       ?EnumIniRegInfo_End@TADRConfig@@QAEHPAPAU_EnumRegInfo@@@Z 10021800 f   TAConfig.obj
 0001:00020860       ?EnumIniRegInfo_Next@TADRConfig@@QAEHPAPAU_EnumRegInfo@@PAPBDPAPBX@Z 10021860 f   TAConfig.obj
 0001:00020980       ?FindRegDword@TADRConfig@@QAEKPADK@Z 10021980 f   TAConfig.obj
 0001:00020a10       ?FindRegStr@TADRConfig@@QAEPBDPADPBD@Z 10021a10 f   TAConfig.obj
 0001:00020aa0       ?GetIniBool@TADRConfig@@QAEHPBDH@Z 10021aa0 f   TAConfig.obj
 0001:00020b50       ?GetIniCrc@TADRConfig@@QAEIXZ 10021b50 f   TAConfig.obj
 0001:00020c30       ?GetIniInt@TADRConfig@@QAEHPBDH@Z 10021c30 f   TAConfig.obj
 0001:00020c60       ?GetIniStr@TADRConfig@@QAEHPBDPADK1@Z 10021c60 f   TAConfig.obj
 0001:00020cc0       ?LoadIniRegSetting@TADRConfig@@AAEXPAE@Z 10021cc0 f   TAConfig.obj
 0001:00021450       ?Name@RegDword@@QAEPBDXZ   10022450 f   TAConfig.obj
 0001:00021460       ?Name@RegString@@QAEPBDXZ  10022460 f   TAConfig.obj
 0001:00021470       ?ReadTAReg_Dword@TADRConfig@@QAEJPADPAK@Z 10022470 f   TAConfig.obj
 0001:000214b0       ?ReadTAReg_Str@TADRConfig@@QAEJPADPBDK@Z 100224b0 f   TAConfig.obj
 0001:00021500       ?SetIniBool@TADRConfig@@QAEHPBDH@Z 10022500 f   TAConfig.obj
 0001:000215f0       ?Str@RegString@@QAEPBDXZ   100225f0 f   TAConfig.obj
 0001:00021610       ?TARegPath_HKEY@TADRConfig@@AAEPAUHKEY__@@XZ 10022610 f   TAConfig.obj
 0001:00021680       ?Value@RegDword@@QAEKXZ    10022680 f   TAConfig.obj
 0001:000216a0       ?WriteTAReg_Dword@TADRConfig@@QAEJPADK@Z 100226a0 f   TAConfig.obj
 0001:000216e0       ?WriteTAReg_Str@TADRConfig@@QAEJPADPBDK@Z 100226e0 f   TAConfig.obj
 0001:00021730       ?_Calculate_growth@?$vector@PAVRegDword@@V?$allocator@PAVRegDword@@@std@@@std@@ABEII@Z 10022730 f i TAConfig.obj
 0001:00021790       ?_Calculate_growth@?$vector@PAVRegString@@V?$allocator@PAVRegString@@@std@@@std@@ABEII@Z 10022790 f i TAConfig.obj
 0001:000217f0       ?_Change_array@?$vector@PAVRegDword@@V?$allocator@PAVRegDword@@@std@@@std@@AAEXQAPAVRegDword@@II@Z 100227f0 f i TAConfig.obj
 0001:00021890       ?_Change_array@?$vector@PAVRegString@@V?$allocator@PAVRegString@@@std@@@std@@AAEXQAPAVRegString@@II@Z 10022890 f i TAConfig.obj
 0001:00021930       ?_Compat@?$_Vector_const_iterator@V?$_Vector_val@U?$_Simple_types@PAVRegDword@@@std@@@std@@@std@@QBEXABV12@@Z 10022930 f i TAConfig.obj
 0001:00021940       ?_Compat@?$_Vector_const_iterator@V?$_Vector_val@U?$_Simple_types@PAVRegString@@@std@@@std@@@std@@QBEXABV12@@Z 10022940 f i TAConfig.obj
 0001:00021950       ?_Get_first@?$_Compressed_pair@V?$allocator@PAVRegDword@@@std@@V?$_Vector_val@U?$_Simple_types@PAVRegDword@@@std@@@2@$00@std@@QAEAAV?$allocator@PAVRegDword@@@2@XZ 10022950 f i TAConfig.obj
 0001:00021960       ?_Get_first@?$_Compressed_pair@V?$allocator@PAVRegDword@@@std@@V?$_Vector_val@U?$_Simple_types@PAVRegDword@@@std@@@2@$00@std@@QBEABV?$allocator@PAVRegDword@@@2@XZ 10022960 f i TAConfig.obj
 0001:00021970       ?_Get_first@?$_Compressed_pair@V?$allocator@PAVRegString@@@std@@V?$_Vector_val@U?$_Simple_types@PAVRegString@@@std@@@2@$00@std@@QAEAAV?$allocator@PAVRegString@@@2@XZ 10022970 f i TAConfig.obj
 0001:00021980       ?_Get_first@?$_Compressed_pair@V?$allocator@PAVRegString@@@std@@V?$_Vector_val@U?$_Simple_types@PAVRegString@@@std@@@2@$00@std@@QBEABV?$allocator@PAVRegString@@@2@XZ 10022980 f i TAConfig.obj
 0001:00021990       ?_Getal@?$vector@PAVRegDword@@V?$allocator@PAVRegDword@@@std@@@std@@AAEAAV?$allocator@PAVRegDword@@@2@XZ 10022990 f i TAConfig.obj
 0001:000219b0       ?_Getal@?$vector@PAVRegDword@@V?$allocator@PAVRegDword@@@std@@@std@@ABEABV?$allocator@PAVRegDword@@@2@XZ 100229b0 f i TAConfig.obj
 0001:000219d0       ?_Getal@?$vector@PAVRegString@@V?$allocator@PAVRegString@@@std@@@std@@AAEAAV?$allocator@PAVRegString@@@2@XZ 100229d0 f i TAConfig.obj
 0001:000219f0       ?_Getal@?$vector@PAVRegString@@V?$allocator@PAVRegString@@@std@@@std@@ABEABV?$allocator@PAVRegString@@@2@XZ 100229f0 f i TAConfig.obj
 0001:00021a10       ?_Orphan_range@?$vector@PAVRegDword@@V?$allocator@PAVRegDword@@@std@@@std@@ABEXPAPAVRegDword@@0@Z 10022a10 f i TAConfig.obj
 0001:00021a20       ?_Orphan_range@?$vector@PAVRegString@@V?$allocator@PAVRegString@@@std@@@std@@ABEXPAPAVRegString@@0@Z 10022a20 f i TAConfig.obj
 0001:00021a30       ?_Release@?$_Uninitialized_backout_al@V?$allocator@PAVRegDword@@@std@@@std@@QAEPAPAVRegDword@@XZ 10022a30 f i TAConfig.obj
 0001:00021a50       ?_Release@?$_Uninitialized_backout_al@V?$allocator@PAVRegString@@@std@@@std@@QAEPAPAVRegString@@XZ 10022a50 f i TAConfig.obj
 0001:00021a70       ?_Tidy@?$vector@PAVRegDword@@V?$allocator@PAVRegDword@@@std@@@std@@AAEXXZ 10022a70 f i TAConfig.obj
 0001:00021b40       ?_Tidy@?$vector@PAVRegString@@V?$allocator@PAVRegString@@@std@@@std@@AAEXXZ 10022b40 f i TAConfig.obj
 0001:00021c10       ?_Xlength@?$vector@PAVRegDword@@V?$allocator@PAVRegDword@@@std@@@std@@CGXXZ 10022c10 f i TAConfig.obj
 0001:00021c20       ?_Xlength@?$vector@PAVRegString@@V?$allocator@PAVRegString@@@std@@@std@@CGXXZ 10022c20 f i TAConfig.obj
 0001:00021c30       ?allocate@?$allocator@PAVRegDword@@@std@@QAEPAPAVRegDword@@I@Z 10022c30 f i TAConfig.obj
 0001:00021c50       ?allocate@?$allocator@PAVRegString@@@std@@QAEPAPAVRegString@@I@Z 10022c50 f i TAConfig.obj
 0001:00021c70       ?back@?$vector@PAVRegDword@@V?$allocator@PAVRegDword@@@std@@@std@@QAEAAPAVRegDword@@XZ 10022c70 f i TAConfig.obj
 0001:00021ca0       ?back@?$vector@PAVRegString@@V?$allocator@PAVRegString@@@std@@@std@@QAEAAPAVRegString@@XZ 10022ca0 f i TAConfig.obj
 0001:00021cd0       ?begin@?$vector@PAVRegDword@@V?$allocator@PAVRegDword@@@std@@@std@@QAE?AV?$_Vector_iterator@V?$_Vector_val@U?$_Simple_types@PAVRegDword@@@std@@@std@@@2@XZ 10022cd0 f i TAConfig.obj
 0001:00021d00       ?begin@?$vector@PAVRegString@@V?$allocator@PAVRegString@@@std@@@std@@QAE?AV?$_Vector_iterator@V?$_Vector_val@U?$_Simple_types@PAVRegString@@@std@@@std@@@2@XZ 10022d00 f i TAConfig.obj
 0001:00021d30       ?capacity@?$vector@PAVRegDword@@V?$allocator@PAVRegDword@@@std@@@std@@QBEIXZ 10022d30 f i TAConfig.obj
 0001:00021d60       ?capacity@?$vector@PAVRegString@@V?$allocator@PAVRegString@@@std@@@std@@QBEIXZ 10022d60 f i TAConfig.obj
 0001:00021d90       ?deallocate@?$allocator@PAVRegDword@@@std@@QAEXQAPAVRegDword@@I@Z 10022d90 f i TAConfig.obj
 0001:00021db0       ?deallocate@?$allocator@PAVRegString@@@std@@QAEXQAPAVRegString@@I@Z 10022db0 f i TAConfig.obj
 0001:00021dd0       ?empty@?$vector@PAVRegDword@@V?$allocator@PAVRegDword@@@std@@@std@@QBE_NXZ 10022dd0 f i TAConfig.obj
 0001:00021e10       ?empty@?$vector@PAVRegString@@V?$allocator@PAVRegString@@@std@@@std@@QBE_NXZ 10022e10 f i TAConfig.obj
 0001:00021e50       ?end@?$vector@PAVRegDword@@V?$allocator@PAVRegDword@@@std@@@std@@QAE?AV?$_Vector_iterator@V?$_Vector_val@U?$_Simple_types@PAVRegDword@@@std@@@std@@@2@XZ 10022e50 f i TAConfig.obj
 0001:00021e90       ?end@?$vector@PAVRegString@@V?$allocator@PAVRegString@@@std@@@std@@QAE?AV?$_Vector_iterator@V?$_Vector_val@U?$_Simple_types@PAVRegString@@@std@@@std@@@2@XZ 10022e90 f i TAConfig.obj
 0001:00021ed0       ?max_size@?$_Default_allocator_traits@V?$allocator@PAVRegDword@@@std@@@std@@SGIABV?$allocator@PAVRegDword@@@2@@Z 10022ed0 f i TAConfig.obj
 0001:00021ee0       ?max_size@?$_Default_allocator_traits@V?$allocator@PAVRegString@@@std@@@std@@SGIABV?$allocator@PAVRegString@@@2@@Z 10022ee0 f i TAConfig.obj
 0001:00021ef0       ?max_size@?$vector@PAVRegDword@@V?$allocator@PAVRegDword@@@std@@@std@@QBEIXZ 10022ef0 f i TAConfig.obj
 0001:00021f30       ?max_size@?$vector@PAVRegString@@V?$allocator@PAVRegString@@@std@@@std@@QBEIXZ 10022f30 f i TAConfig.obj
 0001:00021f70       ?pop_back@?$vector@PAVRegDword@@V?$allocator@PAVRegDword@@@std@@@std@@QAEXXZ 10022f70 f i TAConfig.obj
 0001:00022000       ?pop_back@?$vector@PAVRegString@@V?$allocator@PAVRegString@@@std@@@std@@QAEXXZ 10023000 f i TAConfig.obj
 0001:00022090       ?push_back@?$vector@PAVRegDword@@V?$allocator@PAVRegDword@@@std@@@std@@QAEXABQAVRegDword@@@Z 10023090 f i TAConfig.obj
 0001:000220b0       ?push_back@?$vector@PAVRegString@@V?$allocator@PAVRegString@@@std@@@std@@QAEXABQAVRegString@@@Z 100230b0 f i TAConfig.obj
 0001:000220d0       ?size@?$vector@PAVRegDword@@V?$allocator@PAVRegDword@@@std@@@std@@QBEIXZ 100230d0 f i TAConfig.obj
 0001:00022100       ?size@?$vector@PAVRegString@@V?$allocator@PAVRegString@@@std@@@std@@QBEIXZ 10023100 f i TAConfig.obj
 0001:00022130       ?strchr@@YAPADQADH@Z       10023130 f i TAConfig.obj
 0001:00022150       ?strlwr_s@Checked@ATL@@YAXPADI@Z 10023150 f i TAConfig.obj
 0001:00022170       ?strupr_s@Checked@ATL@@YAXPADI@Z 10023170 f i TAConfig.obj
 0001:00022190       ??$?0ABV?$allocator@D@std@@$$V@?$_Compressed_pair@V?$allocator@D@std@@V?$_String_val@U?$_Simple_types@D@std@@@2@$00@std@@QAE@U_One_then_variadic_args_t@1@ABV?$allocator@D@1@@Z 10023190 f i tahook.obj
 0001:000221c0       ??$?0PAD$0A@@?$basic_string@DU?$char_traits@D@std@@V?$allocator@D@2@@std@@QAE@PAD0ABV?$allocator@D@1@@Z 100231c0 f i tahook.obj
 0001:00022290       ??$?0V?$allocator@D@std@@$$V@?$_Compressed_pair@V?$allocator@D@std@@V?$_String_val@U?$_Simple_types@D@std@@@2@$00@std@@QAE@U_One_then_variadic_args_t@1@$$QAV?$allocator@D@1@@Z 10023290 f i tahook.obj
 0001:000222c0       ??$?HDU?$char_traits@D@std@@V?$allocator@D@1@@std@@YG?AV?$basic_string@DU?$char_traits@D@std@@V?$allocator@D@2@@0@QBD$$QAV10@@Z 100232c0 f i tahook.obj
 0001:00022300       ??$_Adl_verify_range@PADPAD@std@@YGXABQAD0@Z 10023300 f i tahook.obj
 0001:00022310       ??$_Construct_in_place@PADAAPAD@std@@YGXAAPAD0@Z 10023310 f i tahook.obj
 0001:00022350       ??$_Get_unwrapped@AAPAD@std@@YG?A_TAAPAD@Z 10023350 f i tahook.obj
 0001:00022360       ??$_Integral_to_string@DH@std@@YG?AV?$basic_string@DU?$char_traits@D@std@@V?$allocator@D@2@@0@H@Z 10023360 f i tahook.obj
 0001:00022400       ??$_Pocma@V?$allocator@D@std@@@std@@YGXAAV?$allocator@D@0@0@Z 10023400 f i tahook.obj
 0001:00022410       ??$_Reallocate_grow_by@V<lambda_15711c68e099a15a58f4d77303cb286d>@@D@?$basic_string@DU?$char_traits@D@std@@V?$allocator@D@2@@std@@AAEAAV01@IV<lambda_15711c68e099a15a58f4d77303cb286d>@@D@Z 10023410 f i tahook.obj
 0001:00022520       ??$_Reallocate_grow_by@V<lambda_4d79bb85f269e6e8002a4599002d832c>@@IPBDI@?$basic_string@DU?$char_traits@D@std@@V?$allocator@D@2@@std@@AAEAAV01@IV<lambda_4d79bb85f269e6e8002a4599002d832c>@@IPBDI@Z 10023520 f i tahook.obj
 0001:00022640       ??$_UIntegral_to_buff@DI@std@@YGPADPADI@Z 10023640 f i tahook.obj
 0001:00022690       ??$addressof@$$CBV?$_String_val@U?$_Simple_types@D@std@@@std@@@std@@YGPBV?$_String_val@U?$_Simple_types@D@std@@@0@ABV10@@Z 10023690 f i tahook.obj
 0001:000226a0       ??$addressof@V?$_String_val@U?$_Simple_types@D@std@@@std@@@std@@YGPAV?$_String_val@U?$_Simple_types@D@std@@@0@AAV10@@Z 100236a0 f i tahook.obj
 0001:000226b0       ??$addressof@V?$basic_string@DU?$char_traits@D@std@@V?$allocator@D@2@@std@@@std@@YGPAV?$basic_string@DU?$char_traits@D@std@@V?$allocator@D@2@@0@AAV10@@Z 100236b0 f i tahook.obj
 0001:000226c0       ??$end@D$0BF@@std@@YGPADAAY0BF@D@Z 100236c0 f i tahook.obj
 0001:000226d0       ??$forward@AAPAD@std@@YGAAPADAAPAD@Z 100236d0 f i tahook.obj
 0001:000226e0       ??$forward@ABV?$allocator@D@std@@@std@@YGABV?$allocator@D@0@ABV10@@Z 100236e0 f i tahook.obj
 0001:000226f0       ??$forward@V?$allocator@D@std@@@std@@YG$$QAV?$allocator@D@0@AAV10@@Z 100236f0 f i tahook.obj
 0001:00022700       ??$move@AAV?$allocator@D@std@@@std@@YG$$QAV?$allocator@D@0@AAV10@@Z 10023700 f i tahook.obj
 0001:00022710       ??$move@AAV?$basic_string@DU?$char_traits@D@std@@V?$allocator@D@2@@std@@@std@@YG$$QAV?$basic_string@DU?$char_traits@D@std@@V?$allocator@D@2@@0@AAV10@@Z 10023710 f i tahook.obj
 0001:00022720       ??0?$basic_string@DU?$char_traits@D@std@@V?$allocator@D@2@@std@@QAE@$$QAV01@@Z 10023720 f i tahook.obj
 0001:00022770       ??0?$basic_string@DU?$char_traits@D@std@@V?$allocator@D@2@@std@@QAE@XZ 10023770 f i tahook.obj
 0001:000227b0       ??0CTAHook@@QAE@H@Z        100237b0 f   tahook.obj
 0001:00022a80       ??1CTAHook@@QAE@XZ         10023a80 f   tahook.obj
 0001:00022af0       ??4?$basic_string@DU?$char_traits@D@std@@V?$allocator@D@2@@std@@QAEAAV01@$$QAV01@@Z 10023af0 f i tahook.obj
 0001:00022b60       ??4?$basic_string@DU?$char_traits@D@std@@V?$allocator@D@2@@std@@QAEAAV01@QBD@Z 10023b60 f i tahook.obj
 0001:00022b80       ??R<lambda_15711c68e099a15a58f4d77303cb286d>@@QBE@QADQBDID@Z 10023b80 f i tahook.obj
 0001:00022bd0       ??R<lambda_4d79bb85f269e6e8002a4599002d832c>@@QBE@QADQBDII1I@Z 10023bd0 f i tahook.obj
 0001:00022c30       ??Y?$basic_string@DU?$char_traits@D@std@@V?$allocator@D@2@@std@@QAEAAV01@D@Z 10023c30 f i tahook.obj
 0001:00022c50       ?Blit@CTAHook@@QAEXPAUIDirectDrawSurface@@@Z 10023c50 f   tahook.obj
 0001:00022c60       ?CalculateLine@CTAHook@@AAEXXZ 10023c60 f   tahook.obj
 0001:00022f00       ?CalculateRing@CTAHook@@AAEXHHHH@Z 10023f00 f   tahook.obj
 0001:00023250       ?CalculateRing@CTAHook@@AAEXXZ 10024250 f   tahook.obj
 0001:00023350       ?ClickBuilding@CTAHook@@AAEXHH@Z 10024350 f   tahook.obj
 0001:00023400       ?DisableTABuildRect@CTAHook@@AAEXXZ 10024400 f   tahook.obj
 0001:00023430       ?DrawBuildRect@CTAHook@@AAEXHHHHH@Z 10024430 f   tahook.obj
 0001:00023620       ?EnableTABuildRect@CTAHook@@AAEXXZ 10024620 f   tahook.obj
 0001:00023650       ?GetFootX@CTAHook@@AAEFXZ  10024650 f   tahook.obj
 0001:00023680       ?GetFootY@CTAHook@@AAEFXZ  10024680 f   tahook.obj
 0001:000236b0       ?IsLineBuilding@CTAHook@@QAEHXZ 100246b0 f   tahook.obj
 0001:000236f0       ?Message@CTAHook@@QAE_NPAUHWND__@@IIJ@Z 100246f0 f   tahook.obj
 0001:00023e50       ?OptimizeDTRows@CTAHook@@AAEXXZ 10024e50 f   tahook.obj
 0001:000241c0       ?PaintMinimapRect@CTAHook@@AAEXXZ 100251c0 f   tahook.obj
 0001:000241f0       ?Set@CTAHook@@QAEXHPAD_N1H@Z 100251f0 f   tahook.obj
 0001:00024240       ?TABlit@CTAHook@@QAEXXZ    10025240 f   tahook.obj
 0001:000242c0       ?UpdateSpacing@CTAHook@@AAEXXZ 100252c0 f   tahook.obj
 0001:00024300       ?VisualizeRow@CTAHook@@AAEXXZ 10025300 f   tahook.obj
 0001:00024470       ?VisualizeRow_ForME_megamap@CTAHook@@QAEXPAU_OFFSCREEN@@@Z 10025470 f   tahook.obj
 0001:000245e0       ?WriteDTLine@CTAHook@@AAEXXZ 100255e0 f   tahook.obj
 0001:00024680       ?WriteScrollDTLine@CTAHook@@AAEXXZ 10025680 f   tahook.obj
 0001:00024690       ?WriteShareMacro@CTAHook@@QAEXXZ 10025690 f   tahook.obj
 0001:00024ae0       ?_Check_offset@?$_String_val@U?$_Simple_types@D@std@@@std@@QBEXI@Z 10025ae0 f i tahook.obj
 0001:00024b00       ?_Memcpy_val_from@?$basic_string@DU?$char_traits@D@std@@V?$allocator@D@2@@std@@AAEXABV12@@Z 10025b00 f i tahook.obj
 0001:00024b40       ?_Myptr@?$_String_val@U?$_Simple_types@D@std@@@std@@QBEPBDXZ 10025b40 f i tahook.obj
 0001:00024b80       ?_Swap_proxy_and_iterators@?$basic_string@DU?$char_traits@D@std@@V?$allocator@D@2@@std@@AAEXAAV12@@Z 10025b80 f i tahook.obj
 0001:00024ba0       ?_Swap_proxy_and_iterators@_Container_base0@std@@QAEXAAU12@@Z 10025ba0 f i tahook.obj
 0001:00024bb0       ?_Take_contents@?$basic_string@DU?$char_traits@D@std@@V?$allocator@D@2@@std@@AAEXAAV12@@Z 10025bb0 f i tahook.obj
 0001:00024c90       ?_Xran@?$_String_val@U?$_Simple_types@D@std@@@std@@SGXXZ 10025c90 f i tahook.obj
 0001:00024ca0       ?c_str@?$basic_string@DU?$char_traits@D@std@@V?$allocator@D@2@@std@@QBEPBDXZ 10025ca0 f i tahook.obj
 0001:00024cc0       ?insert@?$basic_string@DU?$char_traits@D@std@@V?$allocator@D@2@@std@@QAEAAV12@IQBD@Z 10025cc0 f i tahook.obj
 0001:00024cf0       ?insert@?$basic_string@DU?$char_traits@D@std@@V?$allocator@D@2@@std@@QAEAAV12@IQBDI@Z 10025cf0 f i tahook.obj
 0001:00024e10       ?push_back@?$basic_string@DU?$char_traits@D@std@@V?$allocator@D@2@@std@@QAEXD@Z 10025e10 f i tahook.obj
 0001:00024e90       ?to_string@std@@YG?AV?$basic_string@DU?$char_traits@D@std@@V?$allocator@D@2@@1@H@Z 10025e90 f i tahook.obj
 0001:00024ec0       ??$?0$$V@?$_Compressed_pair@V?$allocator@PAD@std@@V?$_Vector_val@U?$_Simple_types@PAD@std@@@2@$00@std@@QAE@U_Zero_then_variadic_args_t@1@@Z 10025ec0 f i UnicodeSupport.obj
 0001:00024ee0       ??$_Construct_in_place@PADPAD@std@@YGXAAPAD$$QAPAD@Z 10025ee0 f i UnicodeSupport.obj
 0001:00024f20       ??$_Copy_memmove@PAPADPAPAD@std@@YGPAPADPAPAD00@Z 10025f20 f i UnicodeSupport.obj
 0001:00024f90       ??$_Destroy_range@V?$allocator@PAD@std@@@std@@YGXPAPADQAPADAAV?$allocator@PAD@0@@Z 10025f90 f i UnicodeSupport.obj
 0001:00024fa0       ??$_Emplace_back@PAD@?$_Uninitialized_backout_al@V?$allocator@PAD@std@@@std@@QAEX$$QAPAD@Z 10025fa0 f i UnicodeSupport.obj
 0001:00024fe0       ??$_Emplace_back_with_unused_capacity@PAD@?$vector@PADV?$allocator@PAD@std@@@std@@AAEAAPAD$$QAPAD@Z 10025fe0 f i UnicodeSupport.obj
 0001:00025040       ??$_Emplace_one_at_back@PAD@?$vector@PADV?$allocator@PAD@std@@@std@@AAEAAPAD$$QAPAD@Z 10026040 f i UnicodeSupport.obj
 0001:000250a0       ??$_Emplace_reallocate@PAD@?$vector@PADV?$allocator@PAD@std@@@std@@AAEPAPADQAPAD$$QAPAD@Z 100260a0 f i UnicodeSupport.obj
 0001:00025270       ??$_Get_unwrapped@ABQAPAD@std@@YG?A_TABQAPAD@Z 10026270 f i UnicodeSupport.obj
 0001:00025280       ??$_To_address@PAPAD@std@@YG?A_PABQAPAD@Z 10026280 f i UnicodeSupport.obj
 0001:00025290       ??$_Unfancy@PAD@std@@YGPAPADPAPAD@Z 10026290 f i UnicodeSupport.obj
 0001:000252a0       ??$_Uninitialized_move@PAPADV?$allocator@PAD@std@@@std@@YGPAPADQAPAD0PAPADAAV?$allocator@PAD@0@@Z 100262a0 f i UnicodeSupport.obj
 0001:00025380       ??$addressof@V?$_Vector_val@U?$_Simple_types@PAD@std@@@std@@@std@@YGPAV?$_Vector_val@U?$_Simple_types@PAD@std@@@0@AAV10@@Z 10026380 f i UnicodeSupport.obj
 0001:00025390       ??$construct@PADPAD@?$_Default_allocator_traits@V?$allocator@PAD@std@@@std@@SGXAAV?$allocator@PAD@1@QAPAD$$QAPAD@Z 10026390 f i UnicodeSupport.obj
 0001:000253d0       ??$destroy@PAD@?$_Default_allocator_traits@V?$allocator@PAD@std@@@std@@SGXAAV?$allocator@PAD@1@QAPAD@Z 100263d0 f i UnicodeSupport.obj
 0001:000253e0       ??$emplace_back@PAD@?$vector@PADV?$allocator@PAD@std@@@std@@QAE?A_T$$QAPAD@Z 100263e0 f i UnicodeSupport.obj
 0001:00025410       ??$forward@PAD@std@@YG$$QAPADAAPAD@Z 10026410 f i UnicodeSupport.obj
 0001:00025420       ??$move@AAPAD@std@@YG$$QAPADAAPAD@Z 10026420 f i UnicodeSupport.obj
 0001:00025430       ??0?$_Uninitialized_backout_al@V?$allocator@PAD@std@@@std@@QAE@PAPADAAV?$allocator@PAD@1@@Z 10026430 f i UnicodeSupport.obj
 0001:00025460       ??0?$_Vector_const_iterator@V?$_Vector_val@U?$_Simple_types@PAD@std@@@std@@@std@@QAE@PAPADPBU_Container_base0@1@@Z 10026460 f i UnicodeSupport.obj
 0001:00025490       ??0?$_Vector_iterator@V?$_Vector_val@U?$_Simple_types@PAD@std@@@std@@@std@@QAE@PAPADPBU_Container_base0@1@@Z 10026490 f i UnicodeSupport.obj
 0001:000254b0       ??0?$_Vector_val@U?$_Simple_types@PAD@std@@@std@@QAE@XZ 100264b0 f i UnicodeSupport.obj
 0001:000254e0       ??0?$allocator@PAD@std@@QAE@XZ 100264e0 f i UnicodeSupport.obj
 0001:000254f0       ??0?$vector@PADV?$allocator@PAD@std@@@std@@QAE@XZ 100264f0 f i UnicodeSupport.obj
 0001:00025520       ??0UnicodeSupport@@QAE@H@Z 10026520 f   UnicodeSupport.obj
 0001:00025710       ??0UnicodeSupport@@QAE@PBDKKH@Z 10026710 f   UnicodeSupport.obj
 0001:00025d30       ??1?$_Uninitialized_backout_al@V?$allocator@PAD@std@@@std@@QAE@XZ 10026d30 f i UnicodeSupport.obj
 0001:00025d60       ??1?$vector@PADV?$allocator@PAD@std@@@std@@QAE@XZ 10026d60 f i UnicodeSupport.obj
 0001:00025d80       ??1UnicodeSupport@@QAE@XZ  10026d80 f   UnicodeSupport.obj
 0001:00025fd0       ??8?$_Vector_const_iterator@V?$_Vector_val@U?$_Simple_types@PAD@std@@@std@@@std@@QBE_NABV01@@Z 10026fd0 f i UnicodeSupport.obj
 0001:00026010       ??9?$_Vector_const_iterator@V?$_Vector_val@U?$_Simple_types@PAD@std@@@std@@@std@@QBE_NABV01@@Z 10027010 f i UnicodeSupport.obj
 0001:00026050       ??D?$_Vector_const_iterator@V?$_Vector_val@U?$_Simple_types@PAD@std@@@std@@@std@@QBEABQADXZ 10027050 f i UnicodeSupport.obj
 0001:00026060       ??D?$_Vector_iterator@V?$_Vector_val@U?$_Simple_types@PAD@std@@@std@@@std@@QBEAAPADXZ 10027060 f i UnicodeSupport.obj
 0001:00026080       ??E?$_Vector_const_iterator@V?$_Vector_val@U?$_Simple_types@PAD@std@@@std@@@std@@QAEAAV01@XZ 10027080 f i UnicodeSupport.obj
 0001:000260a0       ??E?$_Vector_iterator@V?$_Vector_val@U?$_Simple_types@PAD@std@@@std@@@std@@QAEAAV01@XZ 100270a0 f i UnicodeSupport.obj
 0001:000260c0       ?Blt@UnicodeSupport@@QAE_NPAUIDirectDrawSurface@@@Z 100270c0 f   UnicodeSupport.obj
 0001:000262b0       ?Blt_BottomState0_Text@@YGHPAUtagInlineX86StackBuffer@@@Z 100272b0 f   UnicodeSupport.obj
 0001:000263e0       ?Blt_BottomState1_Text@@YGHPAUtagInlineX86StackBuffer@@@Z 100273e0 f   UnicodeSupport.obj
 0001:00026500       ?CopyToContextScreenMem@@YGXPAU_OFFSCREEN@@PAUtagSpecScreenSurface@@@Z 10027500 f   UnicodeSupport.obj
 0001:00026580       ?CopyToSpecSurfaceMem@@YGXPAUtagSpecScreenSurface@@PAU_OFFSCREEN@@@Z 10027580 f   UnicodeSupport.obj
 0001:00026600       ?CreateSurfaceFromContextScreen@UnicodeSupport@@QAEPAUIDirectDrawSurface@@PAU_OFFSCREEN@@PAUIDirectDraw@@PAPAU2@@Z 10027600 f   UnicodeSupport.obj
 0001:000266c0       ?DBSC2rdByte@@YGHPAUtagInlineX86StackBuffer@@@Z 100276c0 f   UnicodeSupport.obj
 0001:00026760       ?DrawALine_Ime@UnicodeSupport@@AAEXPAUHDC__@@PADPAH2@Z 10027760 f   UnicodeSupport.obj
 0001:00026800       ?DrawSeparator@UnicodeSupport@@AAEHPAUHDC__@@HPAH1PAUHBRUSH__@@@Z 10027800 f   UnicodeSupport.obj
 0001:00026870       ?FreeSpecScreenSurface@UnicodeSupport@@AAEXPAUtagSpecScreenSurface@@@Z 10027870 f   UnicodeSupport.obj
 0001:00026950       ?GetSpecScreenSurface@UnicodeSupport@@AAEPAUtagSpecScreenSurface@@PAU_OFFSCREEN@@@Z 10027950 f   UnicodeSupport.obj
 0001:00026a20       ?GetStrExtent@@YGHPAUtagInlineX86StackBuffer@@@Z 10027a20 f   UnicodeSupport.obj
 0001:00026a80       ?GetTextExtent_AssignCharLen@@YGHPAUtagInlineX86StackBuffer@@@Z 10027a80 f   UnicodeSupport.obj
 0001:00026ae0       ?IsIDDrawLost@UnicodeSupport@@AAEHXZ 10027ae0 f   UnicodeSupport.obj
 0001:00026b10       ?Message@UnicodeSupport@@QAE_NPAUHWND__@@IIJ@Z 10027b10 f   UnicodeSupport.obj
 0001:00027030       ?NewSpecScreenSurface@UnicodeSupport@@AAEPAUtagSpecScreenSurface@@PAU_OFFSCREEN@@@Z 10028030 f   UnicodeSupport.obj
 0001:00027120       ?PopadState@@YGHPAUtagInlineX86StackBuffer@@@Z 10028120 f   UnicodeSupport.obj
 0001:000271c0       ?ReleaseCandidateList@UnicodeSupport@@AAEXXZ 100281c0 f   UnicodeSupport.obj
 0001:00027240       ?RestoreLocalSurf@UnicodeSupport@@AAEXH@Z 10028240 f   UnicodeSupport.obj
 0001:00027340       ?SendStr@UnicodeSupport@@AAEXPAD@Z 10028340 f   UnicodeSupport.obj
 0001:00027390       ?Set@UnicodeSupport@@QAEXH@Z 10028390 f   UnicodeSupport.obj
 0001:000273b0       ?SetHDCFont@UnicodeSupport@@AAEXPAUHDC__@@PAUHFONT__@@@Z 100283b0 f   UnicodeSupport.obj
 0001:000273f0       ?USDrawTextInScreen_HookRouter@@YGHPAUtagInlineX86StackBuffer@@@Z 100283f0 f   UnicodeSupport.obj
 0001:00027520       ?UnicodeDrawTextA@UnicodeSupport@@QAEHPAU_OFFSCREEN@@PADPAUIDirectDraw@@HH@Z 10028520 f   UnicodeSupport.obj
 0001:00027810       ?UpdateImeFrame@UnicodeSupport@@AAE_NXZ 10028810 f   UnicodeSupport.obj
 0001:00027c20       ?UpdateImeInput@UnicodeSupport@@AAE_NXZ 10028c20 f   UnicodeSupport.obj
 0001:00027e50       ?_Calculate_growth@?$vector@PADV?$allocator@PAD@std@@@std@@ABEII@Z 10028e50 f i UnicodeSupport.obj
 0001:00027eb0       ?_Change_array@?$vector@PADV?$allocator@PAD@std@@@std@@AAEXQAPADII@Z 10028eb0 f i UnicodeSupport.obj
 0001:00027f50       ?_Compat@?$_Vector_const_iterator@V?$_Vector_val@U?$_Simple_types@PAD@std@@@std@@@std@@QBEXABV12@@Z 10028f50 f i UnicodeSupport.obj
 0001:00027f60       ?_Get_first@?$_Compressed_pair@V?$allocator@PAD@std@@V?$_Vector_val@U?$_Simple_types@PAD@std@@@2@$00@std@@QAEAAV?$allocator@PAD@2@XZ 10028f60 f i UnicodeSupport.obj
 0001:00027f70       ?_Get_first@?$_Compressed_pair@V?$allocator@PAD@std@@V?$_Vector_val@U?$_Simple_types@PAD@std@@@2@$00@std@@QBEABV?$allocator@PAD@2@XZ 10028f70 f i UnicodeSupport.obj
 0001:00027f80       ?_Getal@?$vector@PADV?$allocator@PAD@std@@@std@@AAEAAV?$allocator@PAD@2@XZ 10028f80 f i UnicodeSupport.obj
 0001:00027fa0       ?_Getal@?$vector@PADV?$allocator@PAD@std@@@std@@ABEABV?$allocator@PAD@2@XZ 10028fa0 f i UnicodeSupport.obj
 0001:00027fc0       ?_Orphan_range@?$vector@PADV?$allocator@PAD@std@@@std@@ABEXPAPAD0@Z 10028fc0 f i UnicodeSupport.obj
 0001:00027fd0       ?_Release@?$_Uninitialized_backout_al@V?$allocator@PAD@std@@@std@@QAEPAPADXZ 10028fd0 f i UnicodeSupport.obj
 0001:00027ff0       ?_Tidy@?$vector@PADV?$allocator@PAD@std@@@std@@AAEXXZ 10028ff0 f i UnicodeSupport.obj
 0001:000280c0       ?_Xlength@?$vector@PADV?$allocator@PAD@std@@@std@@CGXXZ 100290c0 f i UnicodeSupport.obj
 0001:000280d0       ?allocate@?$allocator@PAD@std@@QAEPAPADI@Z 100290d0 f i UnicodeSupport.obj
 0001:000280f0       ?back@?$vector@PADV?$allocator@PAD@std@@@std@@QAEAAPADXZ 100290f0 f i UnicodeSupport.obj
 0001:00028120       ?begin@?$vector@PADV?$allocator@PAD@std@@@std@@QAE?AV?$_Vector_iterator@V?$_Vector_val@U?$_Simple_types@PAD@std@@@std@@@2@XZ 10029120 f i UnicodeSupport.obj
 0001:00028150       ?capacity@?$vector@PADV?$allocator@PAD@std@@@std@@QBEIXZ 10029150 f i UnicodeSupport.obj
 0001:00028180       ?deallocate@?$allocator@PAD@std@@QAEXQAPADI@Z 10029180 f i UnicodeSupport.obj
 0001:000281a0       ?empty@?$vector@PADV?$allocator@PAD@std@@@std@@QBE_NXZ 100291a0 f i UnicodeSupport.obj
 0001:000281e0       ?end@?$vector@PADV?$allocator@PAD@std@@@std@@QAE?AV?$_Vector_iterator@V?$_Vector_val@U?$_Simple_types@PAD@std@@@std@@@2@XZ 100291e0 f i UnicodeSupport.obj
 0001:00028220       ?freelpImeSurface@UnicodeSupport@@AAEXXZ 10029220 f   UnicodeSupport.obj
 0001:000282b0       ?max_size@?$_Default_allocator_traits@V?$allocator@PAD@std@@@std@@SGIABV?$allocator@PAD@2@@Z 100292b0 f i UnicodeSupport.obj
 0001:000282c0       ?max_size@?$vector@PADV?$allocator@PAD@std@@@std@@QBEIXZ 100292c0 f i UnicodeSupport.obj
 0001:00028300       ?myDeleteChar@@YGHPAUtagInlineX86StackBuffer@@@Z 10029300 f   UnicodeSupport.obj
 0001:000283e0       ?myValidChar@@YGHPAUtagInlineX86StackBuffer@@@Z 100293e0 f   UnicodeSupport.obj
 0001:00028540       ?pop_back@?$vector@PADV?$allocator@PAD@std@@@std@@QAEXXZ 10029540 f i UnicodeSupport.obj
 0001:000285d0       ?push_back@?$vector@PADV?$allocator@PAD@std@@@std@@QAEX$$QAPAD@Z 100295d0 f i UnicodeSupport.obj
 0001:00028700       ??0IncreaseAISearchMapEntriesLimit@@QAE@K@Z 10029700 f   LimitCrack.obj
 0001:000287b0       ??0IncreaseAISearchMapEntriesLimit@@QAE@XZ 100297b0 f   LimitCrack.obj
 0001:00028850       ??0IncreaseCompositeBuf@@QAE@KK@Z 10029850 f   LimitCrack.obj
 0001:00028870       ??0IncreaseCompositeBuf@@QAE@XZ 10029870 f   LimitCrack.obj
 0001:00028890       ??0IncreaseSfxLimit@@QAE@K@Z 10029890 f   LimitCrack.obj
 0001:000288c0       ??0IncreaseSfxLimit@@QAE@XZ 100298c0 f   LimitCrack.obj
 0001:000288e0       ??0IncreaseUnitTypeLimit@@QAE@H@Z 100298e0 f   LimitCrack.obj
 0001:00028900       ??0IncreaseUnitTypeLimit@@QAE@XZ 10029900 f   LimitCrack.obj
 0001:00028920       ??0IncreaseWeaponTypeLimit@@QAE@K@Z 10029920 f   LimitCrack.obj
 0001:00028940       ??0IncreaseWeaponTypeLimit@@QAE@XZ 10029940 f   LimitCrack.obj
 0001:00028960       ??0LimitCrack@@QAE@XZ      10029960 f   LimitCrack.obj
 0001:00028cb0       ??0UnitLimit@@QAE@K@Z      10029cb0 f   LimitCrack.obj
 0001:00028d00       ??0UnitLimit@@QAE@XZ       10029d00 f   LimitCrack.obj
 0001:00028d40       ??1IncreaseAISearchMapEntriesLimit@@QAE@XZ 10029d40 f   LimitCrack.obj
 0001:00028d80       ??1IncreaseCompositeBuf@@QAE@XZ 10029d80 f   LimitCrack.obj
 0001:00028dc0       ??1IncreaseSfxLimit@@QAE@XZ 10029dc0 f   LimitCrack.obj
 0001:00028e50       ??1IncreaseUnitTypeLimit@@QAE@XZ 10029e50 f   LimitCrack.obj
 0001:00029060       ??1IncreaseWeaponTypeLimit@@QAE@XZ 1002a060 f   LimitCrack.obj
 0001:000291f0       ??1LimitCrack@@QAE@XZ      1002a1f0 f   LimitCrack.obj
 0001:00029300       ??1UnitLimit@@QAE@XZ       1002a300 f   LimitCrack.obj
 0001:000293f0       ??_GExternHotKey@@QAEPAXI@Z 1002a3f0 f i LimitCrack.obj
 0001:00029430       ??_GIncreaseAISearchMapEntriesLimit@@QAEPAXI@Z 1002a430 f i LimitCrack.obj
 0001:00029460       ??_GIncreaseCompositeBuf@@QAEPAXI@Z 1002a460 f i LimitCrack.obj
 0001:00029490       ??_GIncreaseSfxLimit@@QAEPAXI@Z 1002a490 f i LimitCrack.obj
 0001:000294c0       ??_GIncreaseUnitTypeLimit@@QAEPAXI@Z 1002a4c0 f i LimitCrack.obj
 0001:000294f0       ??_GIncreaseWeaponTypeLimit@@QAEPAXI@Z 1002a4f0 f i LimitCrack.obj
 0001:00029530       ??_GModifyWeaponPacket@@QAEPAXI@Z 1002a530 f i LimitCrack.obj
 0001:00029560       ?NewLimit@IncreaseWeaponTypeLimit@@AAEXK@Z 1002a560 f   LimitCrack.obj
 0001:000296d0       ?NewUnitLimit@UnitLimit@@AAEXK@Z 1002a6d0 f   LimitCrack.obj
 0001:00029860       ?SetNewLimit@IncreaseSfxLimit@@AAEXKK@Z 1002a860 f   LimitCrack.obj
 0001:000299b0       ?Sfx_mallocBufSizeRouter@@YGHPAUtagInlineX86StackBuffer@@@Z 1002a9b0 f   LimitCrack.obj
 0001:000299d0       ?WeaponType_IdLimit@IncreaseWeaponTypeLimit@@AAEXXZ 1002a9d0 f   LimitCrack.obj
 0001:00029b00       ?WriteNewLimit@IncreaseCompositeBuf@@AAEXKK@Z 1002ab00 f   LimitCrack.obj
 0001:00029c00       ?WriteNewLimit@IncreaseUnitTypeLimit@@AAEXK@Z 1002ac00 f   LimitCrack.obj
 0001:0002a390       ?WriteWeaponAryLen@IncreaseWeaponTypeLimit@@AAEKK@Z 1002b390 f   LimitCrack.obj
 0001:0002a460       ?WriteWeaponAryPtr@IncreaseWeaponTypeLimit@@AAEPAXPAPAX@Z 1002b460 f   LimitCrack.obj
 0001:0002a5d0       ??0UnitsMinimap@@QAE@PAVFullScreenMinimap@@HHHHHHHHHHHHHHHHPAH@Z 1002b5d0 f   UnitMinimap.obj
 0001:0002a640       ??0UnitsMinimap@@QAE@PAVFullScreenMinimap@@HHHHHHHHHHHHHHPAH@Z 1002b640 f   UnitMinimap.obj
 0001:0002a6b0       ??1UnitsMinimap@@QAE@XZ    1002b6b0 f   UnitMinimap.obj
 0001:0002a700       ??_GUnitIcon@@QAEPAXI@Z    1002b700 f i UnitMinimap.obj
 0001:0002a730       ?DrawUnit@UnitsMinimap@@AAEXPAEPAUtagPOINT@@PAUUnitStruct@@@Z 1002b730 f   UnitMinimap.obj
 0001:0002b220       ?FreeUnitPicture@UnitsMinimap@@QAEXXZ 1002c220 f   UnitMinimap.obj
 0001:0002b520       ?GetSurface@UnitsMinimap@@QAEPAEXZ 1002c520 f   UnitMinimap.obj
 0001:0002b530       ?GetTransparentColor@UnitsMinimap@@QAEHXZ 1002c530 f   UnitMinimap.obj
 0001:0002b550       ?Init@UnitsMinimap@@QAEXHHHHHHHHHHHHHHPAH@Z 1002c550 f   UnitMinimap.obj
 0001:0002b940       ?InitHoverPicturePlayerColors@UnitsMinimap@@AAEXHHHHPAPAPAE@Z 1002c940 f   UnitMinimap.obj
 0001:0002baf0       ?InitPicturePlayerColors@UnitsMinimap@@AAEXHHPAPAPAE@Z 1002caf0 f   UnitMinimap.obj
 0001:0002bc90       ?InitSurface@UnitsMinimap@@QAEPAEPAUIDirectDraw@@H@Z 1002cc90 f   UnitMinimap.obj
 0001:0002bd80       ?InitUnSelectedPicturePlayerColors@UnitsMinimap@@AAEXHHHHPAPAPAE@Z 1002cd80 f   UnitMinimap.obj
 0001:0002bf30       ?LoadUnitPicture@UnitsMinimap@@QAEXXZ 1002cf30 f   UnitMinimap.obj
 0001:0002d400       ?LockOn@UnitsMinimap@@QAEPAEPAPAEPAUtagPOINT@@@Z 1002e400 f   UnitMinimap.obj
 0001:0002d440       ?NowDrawUnits@UnitsMinimap@@QAEXPAEPAUtagPOINT@@@Z 1002e440 f   UnitMinimap.obj
 0001:0002d5a0       ?NukePicture@UnitsMinimap@@QAEPAEHPAPAEPAUtagPOINT@@@Z 1002e5a0 f   UnitMinimap.obj
 0001:0002d690       ?ReSet@UnitsMinimap@@QAEXHH@Z 1002e690 f   UnitMinimap.obj
 0001:0002d6e0       ?ReleaseSurface@UnitsMinimap@@QAEXXZ 1002e6e0 f   UnitMinimap.obj
 0001:0002d710       ?UnitPicture@UnitsMinimap@@QAEPAEPAUUnitStruct@@HPAPAEPAUtagPOINT@@@Z 1002e710 f   UnitMinimap.obj
 0001:0002df50       ?Unlock@UnitsMinimap@@QAEXPAE@Z 1002ef50 f   UnitMinimap.obj
 0001:0002df60       ??0CUnitRotate@@QAE@XZ     1002ef60 f   unitrotate.obj
 0001:0002df80       ??1CUnitRotate@@QAE@XZ     1002ef80 f   unitrotate.obj
 0001:0002df90       ?Message@CUnitRotate@@QAE_NPAUHWND__@@IIJ@Z 1002ef90 f   unitrotate.obj
 0001:0002dfe0       ?Rotate@CUnitRotate@@AAEXXZ 1002efe0 f   unitrotate.obj
 0001:0002e1f0       ?SetMem@CUnitRotate@@AAEXXZ 1002f1f0 f   unitrotate.obj
 0001:0002e250       ??$?0$$V@?$_Compressed_pair@V?$allocator@PAVGraphicElement@@@std@@V?$_Deque_val@U?$_Deque_simple_types@PAVGraphicElement@@@std@@@2@$00@std@@QAE@U_Zero_then_variadic_args_t@1@@Z 1002f250 f i whiteboard.obj
 0001:0002e270       ??$?0$$V@?$_Compressed_pair@V?$allocator@PAVGraphicElement@@@std@@V?$_Vector_val@U?$_Simple_types@PAVGraphicElement@@@std@@@2@$00@std@@QAE@U_Zero_then_variadic_args_t@1@@Z 1002f270 f i whiteboard.obj
 0001:0002e290       ??$?0$$V@?$_Compressed_pair@V?$allocator@UMMHS@AlliesWhiteboard@@@std@@V?$_Deque_val@U?$_Deque_simple_types@UMMHS@AlliesWhiteboard@@@std@@@2@$00@std@@QAE@U_Zero_then_variadic_args_t@1@@Z 1002f290 f i whiteboard.obj
 0001:0002e2b0       ??$?0PAVGraphicElement@@@?$allocator@PAPAVGraphicElement@@@std@@QAE@ABV?$allocator@PAVGraphicElement@@@1@@Z 1002f2b0 f i whiteboard.obj
 0001:0002e2c0       ??$?0PAVGraphicElement@@@?$allocator@U_Container_proxy@std@@@std@@QAE@ABV?$allocator@PAVGraphicElement@@@1@@Z 1002f2c0 f i whiteboard.obj
 0001:0002e2d0       ??$?0UMMHS@AlliesWhiteboard@@@?$allocator@PAUMMHS@AlliesWhiteboard@@@std@@QAE@ABV?$allocator@UMMHS@AlliesWhiteboard@@@1@@Z 1002f2d0 f i whiteboard.obj
 0001:0002e2e0       ??$?0UMMHS@AlliesWhiteboard@@@?$allocator@U_Container_proxy@std@@@std@@QAE@ABV?$allocator@UMMHS@AlliesWhiteboard@@@1@@Z 1002f2e0 f i whiteboard.obj
 0001:0002e2f0       ??$_Adl_verify_range@PAPAPAVGraphicElement@@PAPAPAV1@@std@@YGXABQAPAPAVGraphicElement@@0@Z 1002f2f0 f i whiteboard.obj
 0001:0002e300       ??$_Adl_verify_range@PAPAUMMHS@AlliesWhiteboard@@PAPAU12@@std@@YGXABQAPAUMMHS@AlliesWhiteboard@@0@Z 1002f300 f i whiteboard.obj
 0001:0002e310       ??$_Construct_in_place@PAPAVGraphicElement@@AAPAPAV1@@std@@YGXAAPAPAVGraphicElement@@0@Z 1002f310 f i whiteboard.obj
 0001:0002e350       ??$_Construct_in_place@PAUMMHS@AlliesWhiteboard@@AAPAU12@@std@@YGXAAPAUMMHS@AlliesWhiteboard@@0@Z 1002f350 f i whiteboard.obj
 0001:0002e390       ??$_Copy_memmove@PAPAPAVGraphicElement@@PAPAPAV1@@std@@YGPAPAPAVGraphicElement@@PAPAPAV1@00@Z 1002f390 f i whiteboard.obj
 0001:0002e400       ??$_Copy_memmove@PAPAUMMHS@AlliesWhiteboard@@PAPAU12@@std@@YGPAPAUMMHS@AlliesWhiteboard@@PAPAU12@00@Z 1002f400 f i whiteboard.obj
 0001:0002e470       ??$_Destroy_in_place@PAPAVGraphicElement@@@std@@YGXAAPAPAVGraphicElement@@@Z 1002f470 f i whiteboard.obj
 0001:0002e480       ??$_Destroy_in_place@PAUMMHS@AlliesWhiteboard@@@std@@YGXAAPAUMMHS@AlliesWhiteboard@@@Z 1002f480 f i whiteboard.obj
 0001:0002e490       ??$_Destroy_range@PAPAPAVGraphicElement@@PAPAPAV1@@std@@YGXPAPAPAVGraphicElement@@QAPAPAV1@@Z 1002f490 f i whiteboard.obj
 0001:0002e4a0       ??$_Destroy_range@PAPAUMMHS@AlliesWhiteboard@@PAPAU12@@std@@YGXPAPAUMMHS@AlliesWhiteboard@@QAPAU12@@Z 1002f4a0 f i whiteboard.obj
 0001:0002e4b0       ??$_Destroy_range@V?$allocator@PAVGraphicElement@@@std@@@std@@YGXPAPAVGraphicElement@@QAPAV1@AAV?$allocator@PAVGraphicElement@@@0@@Z 1002f4b0 f i whiteboard.obj
 0001:0002e4c0       ??$_Emplace_back@AAPAPAVGraphicElement@@@?$_Uninitialized_backout@PAPAPAVGraphicElement@@@std@@QAEXAAPAPAVGraphicElement@@@Z 1002f4c0 f i whiteboard.obj
 0001:0002e500       ??$_Emplace_back@AAPAUMMHS@AlliesWhiteboard@@@?$_Uninitialized_backout@PAPAUMMHS@AlliesWhiteboard@@@std@@QAEXAAPAUMMHS@AlliesWhiteboard@@@Z 1002f500 f i whiteboard.obj
 0001:0002e540       ??$_Emplace_back_internal@PAVGraphicElement@@@?$deque@PAVGraphicElement@@V?$allocator@PAVGraphicElement@@@std@@@std@@AAEX$$QAPAVGraphicElement@@@Z 1002f540 f i whiteboard.obj
 0001:0002e680       ??$_Get_unwrapped@ABQAPAPAVGraphicElement@@@std@@YG?A_TABQAPAPAVGraphicElement@@@Z 1002f680 f i whiteboard.obj
 0001:0002e690       ??$_Get_unwrapped@ABQAPAUMMHS@AlliesWhiteboard@@@std@@YG?A_TABQAPAUMMHS@AlliesWhiteboard@@@Z 1002f690 f i whiteboard.obj
 0001:0002e6a0       ??$_Get_unwrapped_n@AAPAPAPAVGraphicElement@@H@std@@YG?A_TAAPAPAPAVGraphicElement@@H@Z 1002f6a0 f i whiteboard.obj
 0001:0002e6b0       ??$_Get_unwrapped_n@AAPAPAUMMHS@AlliesWhiteboard@@H@std@@YG?A_TAAPAPAUMMHS@AlliesWhiteboard@@H@Z 1002f6b0 f i whiteboard.obj
 0001:0002e6c0       ??$_Idl_distance@PAPAPAVGraphicElement@@PAPAPAV1@@std@@YG?A_PABQAPAPAVGraphicElement@@0@Z 1002f6c0 f i whiteboard.obj
 0001:0002e6e0       ??$_Idl_distance@PAPAUMMHS@AlliesWhiteboard@@PAPAU12@@std@@YG?A_PABQAPAUMMHS@AlliesWhiteboard@@0@Z 1002f6e0 f i whiteboard.obj
 0001:0002e700       ??$_Pocma@V?$allocator@PAVGraphicElement@@@std@@@std@@YGXAAV?$allocator@PAVGraphicElement@@@0@0@Z 1002f700 f i whiteboard.obj
 0001:0002e710       ??$_Prev_iter@V?$_Deque_unchecked_iterator@V?$_Deque_val@U?$_Deque_simple_types@UMMHS@AlliesWhiteboard@@@std@@@std@@@std@@@std@@YG?AV?$_Deque_unchecked_iterator@V?$_Deque_val@U?$_Deque_simple_types@UMMHS@AlliesWhiteboard@@@std@@@std@@@0@V10@@Z 1002f710 f i whiteboard.obj
 0001:0002e730       ??$_Seek_wrapped@PAPAPAVGraphicElement@@PAPAPAV1@@std@@YGXAAPAPAPAVGraphicElement@@$$QAPAPAPAV1@@Z 1002f730 f i whiteboard.obj
 0001:0002e750       ??$_Seek_wrapped@PAPAUMMHS@AlliesWhiteboard@@PAPAU12@@std@@YGXAAPAPAUMMHS@AlliesWhiteboard@@$$QAPAPAU12@@Z 1002f750 f i whiteboard.obj
 0001:0002e770       ??$_To_address@PAPAPAVGraphicElement@@@std@@YG?A_PABQAPAPAVGraphicElement@@@Z 1002f770 f i whiteboard.obj
 0001:0002e780       ??$_To_address@PAPAUMMHS@AlliesWhiteboard@@@std@@YG?A_PABQAPAUMMHS@AlliesWhiteboard@@@Z 1002f780 f i whiteboard.obj
 0001:0002e790       ??$_Unfancy@PAVGraphicElement@@@std@@YGPAPAVGraphicElement@@PAPAV1@@Z 1002f790 f i whiteboard.obj
 0001:0002e7a0       ??$_Unfancy@UMMHS@AlliesWhiteboard@@@std@@YGPAUMMHS@AlliesWhiteboard@@PAU12@@Z 1002f7a0 f i whiteboard.obj
 0001:0002e7b0       ??$_Uninitialized_copy_unchecked@PAPAPAVGraphicElement@@PAPAPAV1@@std@@YGPAPAPAVGraphicElement@@PAPAPAV1@QAPAPAV1@0@Z 1002f7b0 f i whiteboard.obj
 0001:0002e850       ??$_Uninitialized_copy_unchecked@PAPAUMMHS@AlliesWhiteboard@@PAPAU12@@std@@YGPAPAUMMHS@AlliesWhiteboard@@PAPAU12@QAPAU12@0@Z 1002f850 f i whiteboard.obj
 0001:0002e8f0       ??$_Uninitialized_value_construct_n_unchecked1@PAPAPAVGraphicElement@@I@std@@YGPAPAPAVGraphicElement@@PAPAPAV1@I@Z 1002f8f0 f i whiteboard.obj
 0001:0002e910       ??$_Uninitialized_value_construct_n_unchecked1@PAPAUMMHS@AlliesWhiteboard@@I@std@@YGPAPAUMMHS@AlliesWhiteboard@@PAPAU12@I@Z 1002f910 f i whiteboard.obj
 0001:0002e930       ??$_Voidify_iter@PAPAPAVGraphicElement@@@std@@YGPAXPAPAPAVGraphicElement@@@Z 1002f930 f i whiteboard.obj
 0001:0002e940       ??$_Voidify_iter@PAPAUMMHS@AlliesWhiteboard@@@std@@YGPAXPAPAUMMHS@AlliesWhiteboard@@@Z 1002f940 f i whiteboard.obj
 0001:0002e950       ??$_Voidify_iter@PAPAVGraphicElement@@@std@@YGPAXPAPAVGraphicElement@@@Z 1002f950 f i whiteboard.obj
 0001:0002e960       ??$_Voidify_iter@PAUMMHS@AlliesWhiteboard@@@std@@YGPAXPAUMMHS@AlliesWhiteboard@@@Z 1002f960 f i whiteboard.obj
 0001:0002e970       ??$_Zero_range@PAPAPAVGraphicElement@@@std@@YGPAPAPAVGraphicElement@@QAPAPAV1@0@Z 1002f970 f i whiteboard.obj
 0001:0002e9b0       ??$_Zero_range@PAPAUMMHS@AlliesWhiteboard@@@std@@YGPAPAUMMHS@AlliesWhiteboard@@QAPAU12@0@Z 1002f9b0 f i whiteboard.obj
 0001:0002e9f0       ??$addressof@PAPAVGraphicElement@@@std@@YGPAPAPAVGraphicElement@@AAPAPAV1@@Z 1002f9f0 f i whiteboard.obj
 0001:0002ea00       ??$addressof@PAUMMHS@AlliesWhiteboard@@@std@@YGPAPAUMMHS@AlliesWhiteboard@@AAPAU12@@Z 1002fa00 f i whiteboard.obj
 0001:0002ea10       ??$addressof@V?$_Deque_val@U?$_Deque_simple_types@PAVGraphicElement@@@std@@@std@@@std@@YGPAV?$_Deque_val@U?$_Deque_simple_types@PAVGraphicElement@@@std@@@0@AAV10@@Z 1002fa10 f i whiteboard.obj
 0001:0002ea20       ??$addressof@V?$_Deque_val@U?$_Deque_simple_types@UMMHS@AlliesWhiteboard@@@std@@@std@@@std@@YGPAV?$_Deque_val@U?$_Deque_simple_types@UMMHS@AlliesWhiteboard@@@std@@@0@AAV10@@Z 1002fa20 f i whiteboard.obj
 0001:0002ea30       ??$addressof@V?$vector@PAVGraphicElement@@V?$allocator@PAVGraphicElement@@@std@@@std@@@std@@YGPAV?$vector@PAVGraphicElement@@V?$allocator@PAVGraphicElement@@@std@@@0@AAV10@@Z 1002fa30 f i whiteboard.obj
 0001:0002ea40       ??$construct@PAVGraphicElement@@PAV1@@?$_Default_allocator_traits@V?$allocator@PAVGraphicElement@@@std@@@std@@SGXAAV?$allocator@PAVGraphicElement@@@1@QAPAVGraphicElement@@$$QAPAV3@@Z 1002fa40 f i whiteboard.obj
 0001:0002ea80       ??$construct@UMMHS@AlliesWhiteboard@@ABU12@@?$_Default_allocator_traits@V?$allocator@UMMHS@AlliesWhiteboard@@@std@@@std@@SGXAAV?$allocator@UMMHS@AlliesWhiteboard@@@1@QAUMMHS@AlliesWhiteboard@@ABU34@@Z 1002fa80 f i whiteboard.obj
 0001:0002eac0       ??$destroy@PAVGraphicElement@@@?$_Default_allocator_traits@V?$allocator@PAVGraphicElement@@@std@@@std@@SGXAAV?$allocator@PAVGraphicElement@@@1@QAPAVGraphicElement@@@Z 1002fac0 f i whiteboard.obj
 0001:0002ead0       ??$destroy@UMMHS@AlliesWhiteboard@@@?$_Default_allocator_traits@V?$allocator@UMMHS@AlliesWhiteboard@@@std@@@std@@SGXAAV?$allocator@UMMHS@AlliesWhiteboard@@@1@QAUMMHS@AlliesWhiteboard@@@Z 1002fad0 f i whiteboard.obj
 0001:0002eae0       ??$emplace_front@ABUMMHS@AlliesWhiteboard@@@?$deque@UMMHS@AlliesWhiteboard@@V?$allocator@UMMHS@AlliesWhiteboard@@@std@@@std@@QAE?A_TABUMMHS@AlliesWhiteboard@@@Z 1002fae0 f i whiteboard.obj
 0001:0002ec40       ??$forward@AAPAPAVGraphicElement@@@std@@YGAAPAPAVGraphicElement@@AAPAPAV1@@Z 1002fc40 f i whiteboard.obj
 0001:0002ec50       ??$forward@AAPAUMMHS@AlliesWhiteboard@@@std@@YGAAPAUMMHS@AlliesWhiteboard@@AAPAU12@@Z 1002fc50 f i whiteboard.obj
 0001:0002ec60       ??$forward@ABUMMHS@AlliesWhiteboard@@@std@@YGABUMMHS@AlliesWhiteboard@@ABU12@@Z 1002fc60 f i whiteboard.obj
 0001:0002ec70       ??$forward@PAPAPAVGraphicElement@@@std@@YG$$QAPAPAPAVGraphicElement@@AAPAPAPAV1@@Z 1002fc70 f i whiteboard.obj
 0001:0002ec80       ??$forward@PAPAUMMHS@AlliesWhiteboard@@@std@@YG$$QAPAPAUMMHS@AlliesWhiteboard@@AAPAPAU12@@Z 1002fc80 f i whiteboard.obj
 0001:0002ec90       ??$forward@PAVGraphicElement@@@std@@YG$$QAPAVGraphicElement@@AAPAV1@@Z 1002fc90 f i whiteboard.obj
 0001:0002eca0       ??$move@AAPAVGraphicElement@@@std@@YG$$QAPAVGraphicElement@@AAPAV1@@Z 1002fca0 f i whiteboard.obj
 0001:0002ecb0       ??$move@AAV?$allocator@PAVGraphicElement@@@std@@@std@@YG$$QAV?$allocator@PAVGraphicElement@@@0@AAV10@@Z 1002fcb0 f i whiteboard.obj
 0001:0002ecc0       ??$uninitialized_copy@PAPAPAVGraphicElement@@PAPAPAV1@@std@@YGPAPAPAVGraphicElement@@QAPAPAV1@0PAPAPAV1@@Z 1002fcc0 f i whiteboard.obj
 0001:0002ed30       ??$uninitialized_copy@PAPAUMMHS@AlliesWhiteboard@@PAPAU12@@std@@YGPAPAUMMHS@AlliesWhiteboard@@QAPAU12@0PAPAU12@@Z 1002fd30 f i whiteboard.obj
 0001:0002eda0       ??0?$_Deque_unchecked_const_iterator@V?$_Deque_val@U?$_Deque_simple_types@PAVGraphicElement@@@std@@@std@@@std@@QAE@IPBU_Container_base12@1@@Z 1002fda0 f i whiteboard.obj
 0001:0002edd0       ??0?$_Deque_unchecked_const_iterator@V?$_Deque_val@U?$_Deque_simple_types@UMMHS@AlliesWhiteboard@@@std@@@std@@@std@@QAE@IPBU_Container_base12@1@@Z 1002fdd0 f i whiteboard.obj
 0001:0002ee00       ??0?$_Deque_unchecked_iterator@V?$_Deque_val@U?$_Deque_simple_types@PAVGraphicElement@@@std@@@std@@@std@@QAE@IPBU_Container_base12@1@@Z 1002fe00 f i whiteboard.obj
 0001:0002ee20       ??0?$_Deque_unchecked_iterator@V?$_Deque_val@U?$_Deque_simple_types@UMMHS@AlliesWhiteboard@@@std@@@std@@@std@@QAE@IPBU_Container_base12@1@@Z 1002fe20 f i whiteboard.obj
 0001:0002ee40       ??0?$_Deque_val@U?$_Deque_simple_types@PAVGraphicElement@@@std@@@std@@QAE@XZ 1002fe40 f i whiteboard.obj
 0001:0002ee80       ??0?$_Deque_val@U?$_Deque_simple_types@UMMHS@AlliesWhiteboard@@@std@@@std@@QAE@XZ 1002fe80 f i whiteboard.obj
 0001:0002eec0       ??0?$_Uninitialized_backout@PAPAPAVGraphicElement@@@std@@QAE@PAPAPAVGraphicElement@@@Z 1002fec0 f i whiteboard.obj
 0001:0002eef0       ??0?$_Uninitialized_backout@PAPAUMMHS@AlliesWhiteboard@@@std@@QAE@PAPAUMMHS@AlliesWhiteboard@@@Z 1002fef0 f i whiteboard.obj
 0001:0002ef20       ??0?$_Vector_val@U?$_Simple_types@PAVGraphicElement@@@std@@@std@@QAE@XZ 1002ff20 f i whiteboard.obj
 0001:0002ef50       ??0?$allocator@PAVGraphicElement@@@std@@QAE@XZ 1002ff50 f i whiteboard.obj
 0001:0002ef60       ??0?$allocator@UMMHS@AlliesWhiteboard@@@std@@QAE@XZ 1002ff60 f i whiteboard.obj
 0001:0002ef70       ??0?$deque@PAVGraphicElement@@V?$allocator@PAVGraphicElement@@@std@@@std@@QAE@XZ 1002ff70 f i whiteboard.obj
 0001:0002efb0       ??0?$deque@UMMHS@AlliesWhiteboard@@V?$allocator@UMMHS@AlliesWhiteboard@@@std@@@std@@QAE@XZ 1002ffb0 f i whiteboard.obj
 0001:0002eff0       ??0?$vector@PAVGraphicElement@@V?$allocator@PAVGraphicElement@@@std@@@std@@QAE@XZ 1002fff0 f i whiteboard.obj
 0001:0002f020       ??0AlliesWhiteboard@@QAE@H@Z 10030020 f   whiteboard.obj
 0001:0002f5b0       ??0DeleteGraphic@@QAE@HHD@Z 100305b0 f i whiteboard.obj
 0001:0002f5e0       ??0GraphicElement@@QAE@HHHD@Z 100305e0 f i whiteboard.obj
 0001:0002f620       ??0GraphicLine@@QAE@HHHHD@Z 10030620 f i whiteboard.obj
 0001:0002f670       ??0GraphicMoveText@@QAE@HHHHD@Z 10030670 f i whiteboard.obj
 0001:0002f6c0       ??0GraphicText@@QAE@HHPADD@Z 100306c0 f i whiteboard.obj
 0001:0002f770       ??0GraphicTextEdited@@QAE@HHPADD@Z 10030770 f i whiteboard.obj
 0001:0002f820       ??1?$_Uninitialized_backout@PAPAPAVGraphicElement@@@std@@QAE@XZ 10030820 f i whiteboard.obj
 0001:0002f840       ??1?$_Uninitialized_backout@PAPAUMMHS@AlliesWhiteboard@@@std@@QAE@XZ 10030840 f i whiteboard.obj
 0001:0002f860       ??1?$deque@PAVGraphicElement@@V?$allocator@PAVGraphicElement@@@std@@@std@@QAE@XZ 10030860 f i whiteboard.obj
 0001:0002f8b0       ??1?$deque@UMMHS@AlliesWhiteboard@@V?$allocator@UMMHS@AlliesWhiteboard@@@std@@@std@@QAE@XZ 100308b0 f i whiteboard.obj
 0001:0002f900       ??1?$vector@PAVGraphicElement@@V?$allocator@PAVGraphicElement@@@std@@@std@@QAE@XZ 10030900 f i whiteboard.obj
 0001:0002f920       ??1AlliesWhiteboard@@QAE@XZ 10030920 f   whiteboard.obj
 0001:0002f9f0       ??1DeleteGraphic@@UAE@XZ   100309f0 f i whiteboard.obj
 0001:0002fa10       ??1GraphicElement@@UAE@XZ  10030a10 f i whiteboard.obj
 0001:0002fa30       ??1GraphicLine@@UAE@XZ     10030a30 f i whiteboard.obj
 0001:0002fa50       ??1GraphicMoveText@@UAE@XZ 10030a50 f i whiteboard.obj
 0001:0002fa70       ??1GraphicText@@UAE@XZ     10030a70 f i whiteboard.obj
 0001:0002fab0       ??1GraphicTextEdited@@UAE@XZ 10030ab0 f i whiteboard.obj
 0001:0002faf0       ??4?$vector@PAVGraphicElement@@V?$allocator@PAVGraphicElement@@@std@@@std@@QAEAAV01@$$QAV01@@Z 10030af0 f i whiteboard.obj
 0001:0002fb60       ??A?$deque@UMMHS@AlliesWhiteboard@@V?$allocator@UMMHS@AlliesWhiteboard@@@std@@@std@@QAEAAUMMHS@AlliesWhiteboard@@I@Z 10030b60 f i whiteboard.obj
 0001:0002fba0       ??A?$vector@PAVGraphicElement@@V?$allocator@PAVGraphicElement@@@std@@@std@@QAEAAPAVGraphicElement@@I@Z 10030ba0 f i whiteboard.obj
 0001:0002fbc0       ??D?$_Deque_unchecked_const_iterator@V?$_Deque_val@U?$_Deque_simple_types@PAVGraphicElement@@@std@@@std@@@std@@QBEABQAVGraphicElement@@XZ 10030bc0 f i whiteboard.obj
 0001:0002fc10       ??D?$_Deque_unchecked_const_iterator@V?$_Deque_val@U?$_Deque_simple_types@UMMHS@AlliesWhiteboard@@@std@@@std@@@std@@QBEABUMMHS@AlliesWhiteboard@@XZ 10030c10 f i whiteboard.obj
 0001:0002fc60       ??D?$_Deque_unchecked_iterator@V?$_Deque_val@U?$_Deque_simple_types@PAVGraphicElement@@@std@@@std@@@std@@QBEAAPAVGraphicElement@@XZ 10030c60 f i whiteboard.obj
 0001:0002fc80       ??D?$_Deque_unchecked_iterator@V?$_Deque_val@U?$_Deque_simple_types@UMMHS@AlliesWhiteboard@@@std@@@std@@@std@@QBEAAUMMHS@AlliesWhiteboard@@XZ 10030c80 f i whiteboard.obj
 0001:0002fca0       ??F?$_Deque_unchecked_const_iterator@V?$_Deque_val@U?$_Deque_simple_types@UMMHS@AlliesWhiteboard@@@std@@@std@@@std@@QAEAAV01@XZ 10030ca0 f i whiteboard.obj
 0001:0002fcc0       ??F?$_Deque_unchecked_iterator@V?$_Deque_val@U?$_Deque_simple_types@UMMHS@AlliesWhiteboard@@@std@@@std@@@std@@QAEAAV01@XZ 10030cc0 f i whiteboard.obj
 0001:0002fce0       ??H?$_Deque_unchecked_iterator@V?$_Deque_val@U?$_Deque_simple_types@UMMHS@AlliesWhiteboard@@@std@@@std@@@std@@QBE?AV01@H@Z 10030ce0 f i whiteboard.obj
 0001:0002fd20       ??Y?$_Deque_unchecked_const_iterator@V?$_Deque_val@U?$_Deque_simple_types@UMMHS@AlliesWhiteboard@@@std@@@std@@@std@@QAEAAV01@H@Z 10030d20 f i whiteboard.obj
 0001:0002fd40       ??Y?$_Deque_unchecked_iterator@V?$_Deque_val@U?$_Deque_simple_types@UMMHS@AlliesWhiteboard@@@std@@@std@@@std@@QAEAAV01@H@Z 10030d40 f i whiteboard.obj
 0001:0002fd60       ??_EDeleteGraphic@@UAEPAXI@Z 10030d60 f i whiteboard.obj
 0001:0002fd60       ??_GDeleteGraphic@@UAEPAXI@Z 10030d60 f i whiteboard.obj
 0001:0002fd90       ??_EGraphicElement@@UAEPAXI@Z 10030d90 f i whiteboard.obj
 0001:0002fd90       ??_GGraphicElement@@UAEPAXI@Z 10030d90 f i whiteboard.obj
 0001:0002fdc0       ??_EGraphicLine@@UAEPAXI@Z 10030dc0 f i whiteboard.obj
 0001:0002fdc0       ??_GGraphicLine@@UAEPAXI@Z 10030dc0 f i whiteboard.obj
 0001:0002fdf0       ??_EGraphicMoveText@@UAEPAXI@Z 10030df0 f i whiteboard.obj
 0001:0002fdf0       ??_GGraphicMoveText@@UAEPAXI@Z 10030df0 f i whiteboard.obj
 0001:0002fe20       ??_EGraphicText@@UAEPAXI@Z 10030e20 f i whiteboard.obj
 0001:0002fe20       ??_GGraphicText@@UAEPAXI@Z 10030e20 f i whiteboard.obj
 0001:0002fe50       ??_EGraphicTextEdited@@UAEPAXI@Z 10030e50 f i whiteboard.obj
 0001:0002fe50       ??_GGraphicTextEdited@@UAEPAXI@Z 10030e50 f i whiteboard.obj
 0001:0002fe80       ?AddTextMarker@AlliesWhiteboard@@AAEXHHPADD@Z 10030e80 f   whiteboard.obj
 0001:0002ff40       ?AddTextMarker@AlliesWhiteboard@@AAEXXZ 10030f40 f   whiteboard.obj
 0001:00030090       ?Blit@AlliesWhiteboard@@QAEXPAE@Z 10031090 f   whiteboard.obj
 0001:00030100       ?Clip_Line@AlliesWhiteboard@@QAEHAAH000@Z 10031100 f   whiteboard.obj
 0001:00030c00       ?DeleteMarker@AlliesWhiteboard@@AAEXHH@Z 10031c00 f   whiteboard.obj
 0001:00030cb0       ?Draw@GraphicElement@@UAEXXZ 10031cb0 f i whiteboard.obj
 0001:00030cc0       ?Draw@GraphicLine@@UAEXXZ  10031cc0 f i whiteboard.obj
 0001:00030cd0       ?Draw@GraphicText@@UAEXXZ  10031cd0 f i whiteboard.obj
 0001:00030ce0       ?DrawFreeLine@AlliesWhiteboard@@QAEXHHHHDPADH@Z 10031ce0 f   whiteboard.obj
 0001:00030d30       ?DrawLine@AlliesWhiteboard@@QAEXHHHHDPADH@Z 10031d30 f   whiteboard.obj
 0001:00030de0       ?DrawMarkers@AlliesWhiteboard@@AAEXPAE@Z 10031de0 f   whiteboard.obj
 0001:00030f40       ?DrawMinimapMarkers@AlliesWhiteboard@@QAEXPADH_N@Z 10031f40 f   whiteboard.obj
 0001:000311c0       ?DrawRotateRect@AlliesWhiteboard@@AAEXHHHPADH@Z 100321c0 f   whiteboard.obj
 0001:000314a0       ?DrawTextInput@AlliesWhiteboard@@AAEXPAE@Z 100324a0 f   whiteboard.obj
 0001:00031760       ?DrawTextMarker@AlliesWhiteboard@@AAEXPAEHHPADD@Z 10032760 f   whiteboard.obj
 0001:00031af0       ?Draw_Line@AlliesWhiteboard@@QAEHHHHHEPAEH@Z 10032af0 f   whiteboard.obj
 0001:00031c30       ?EchoMarker@AlliesWhiteboard@@AAEXPAD@Z 10032c30 f   whiteboard.obj
 0001:00031c90       ?EreaseArea@AlliesWhiteboard@@AAEXHH@Z 10032c90 f   whiteboard.obj
 0001:00031d80       ?GenerateLookupTables@AlliesWhiteboard@@AAEXXZ 10032d80 f   whiteboard.obj
 0001:00031e10       ?GetMapX@AlliesWhiteboard@@QAEHXZ 10032e10 f   whiteboard.obj
 0001:00031e30       ?GetMapY@AlliesWhiteboard@@QAEHXZ 10032e30 f   whiteboard.obj
 0001:00031e50       ?GetMarkers@AlliesWhiteboard@@QAEXPAUMarkerArray@@@Z 10032e50 f   whiteboard.obj
 0001:00031f40       ?GetTextElementAt@AlliesWhiteboard@@AAEPAVGraphicElement@@HHH@Z 10032f40 f   whiteboard.obj
 0001:00032040       ?InstantScrollTo@AlliesWhiteboard@@QAEXHH@Z 10033040 f   whiteboard.obj
 0001:00032090       ?Line@AlliesWhiteboard@@QAEXHHHHEPADH@Z 10033090 f   whiteboard.obj
 0001:00032140       ?LockBlit@AlliesWhiteboard@@QAEXPADH@Z 10033140 f   whiteboard.obj
 0001:00032340       ?Message@AlliesWhiteboard@@QAE_NPAUHWND__@@IIJ@Z 10033340 f   whiteboard.obj
 0001:00032c50       ?MouseMove@AlliesWhiteboard@@AAEXHHHH@Z 10033c50 f   whiteboard.obj
 0001:00032db0       ?ReceiveMarkers@AlliesWhiteboard@@AAEXXZ 10033db0 f   whiteboard.obj
 0001:000331a0       ?RestoreAll@AlliesWhiteboard@@AAEXXZ 100341a0 f   whiteboard.obj
 0001:00033250       ?ScrollToCenter@AlliesWhiteboard@@QAEXHH@Z 10034250 f   whiteboard.obj
 0001:000332f0       ?SendMarkers@AlliesWhiteboard@@AAEXXZ 100342f0 f   whiteboard.obj
 0001:00033810       ?Set@AlliesWhiteboard@@QAEXH@Z 10034810 f   whiteboard.obj
 0001:00033830       ?TextInputChar@AlliesWhiteboard@@AAEXD@Z 10034830 f   whiteboard.obj
 0001:000338b0       ?TextInputKeyDown@AlliesWhiteboard@@AAEXH@Z 100348b0 f   whiteboard.obj
 0001:00033a80       ?_Get_data@?$deque@PAVGraphicElement@@V?$allocator@PAVGraphicElement@@@std@@@std@@AAEAAV?$_Deque_val@U?$_Deque_simple_types@PAVGraphicElement@@@std@@@2@XZ 10034a80 f i whiteboard.obj
 0001:00033a90       ?_Get_data@?$deque@PAVGraphicElement@@V?$allocator@PAVGraphicElement@@@std@@@std@@ABEABV?$_Deque_val@U?$_Deque_simple_types@PAVGraphicElement@@@std@@@2@XZ 10034a90 f i whiteboard.obj
 0001:00033aa0       ?_Get_data@?$deque@UMMHS@AlliesWhiteboard@@V?$allocator@UMMHS@AlliesWhiteboard@@@std@@@std@@AAEAAV?$_Deque_val@U?$_Deque_simple_types@UMMHS@AlliesWhiteboard@@@std@@@2@XZ 10034aa0 f i whiteboard.obj
 0001:00033ab0       ?_Get_data@?$deque@UMMHS@AlliesWhiteboard@@V?$allocator@UMMHS@AlliesWhiteboard@@@std@@@std@@ABEABV?$_Deque_val@U?$_Deque_simple_types@UMMHS@AlliesWhiteboard@@@std@@@2@XZ 10034ab0 f i whiteboard.obj
 0001:00033ac0       ?_Get_first@?$_Compressed_pair@V?$allocator@PAVGraphicElement@@@std@@V?$_Deque_val@U?$_Deque_simple_types@PAVGraphicElement@@@std@@@2@$00@std@@QAEAAV?$allocator@PAVGraphicElement@@@2@XZ 10034ac0 f i whiteboard.obj
 0001:00033ad0       ?_Get_first@?$_Compressed_pair@V?$allocator@PAVGraphicElement@@@std@@V?$_Deque_val@U?$_Deque_simple_types@PAVGraphicElement@@@std@@@2@$00@std@@QBEABV?$allocator@PAVGraphicElement@@@2@XZ 10034ad0 f i whiteboard.obj
 0001:00033ae0       ?_Get_first@?$_Compressed_pair@V?$allocator@PAVGraphicElement@@@std@@V?$_Vector_val@U?$_Simple_types@PAVGraphicElement@@@std@@@2@$00@std@@QAEAAV?$allocator@PAVGraphicElement@@@2@XZ 10034ae0 f i whiteboard.obj
 0001:00033af0       ?_Get_first@?$_Compressed_pair@V?$allocator@UMMHS@AlliesWhiteboard@@@std@@V?$_Deque_val@U?$_Deque_simple_types@UMMHS@AlliesWhiteboard@@@std@@@2@$00@std@@QAEAAV?$allocator@UMMHS@AlliesWhiteboard@@@2@XZ 10034af0 f i whiteboard.obj
 0001:00033b00       ?_Get_first@?$_Compressed_pair@V?$allocator@UMMHS@AlliesWhiteboard@@@std@@V?$_Deque_val@U?$_Deque_simple_types@UMMHS@AlliesWhiteboard@@@std@@@2@$00@std@@QBEABV?$allocator@UMMHS@AlliesWhiteboard@@@2@XZ 10034b00 f i whiteboard.obj
 0001:00033b10       ?_Getal@?$deque@PAVGraphicElement@@V?$allocator@PAVGraphicElement@@@std@@@std@@AAEAAV?$allocator@PAVGraphicElement@@@2@XZ 10034b10 f i whiteboard.obj
 0001:00033b30       ?_Getal@?$deque@PAVGraphicElement@@V?$allocator@PAVGraphicElement@@@std@@@std@@ABEABV?$allocator@PAVGraphicElement@@@2@XZ 10034b30 f i whiteboard.obj
 0001:00033b50       ?_Getal@?$deque@UMMHS@AlliesWhiteboard@@V?$allocator@UMMHS@AlliesWhiteboard@@@std@@@std@@AAEAAV?$allocator@UMMHS@AlliesWhiteboard@@@2@XZ 10034b50 f i whiteboard.obj
 0001:00033b70       ?_Getal@?$deque@UMMHS@AlliesWhiteboard@@V?$allocator@UMMHS@AlliesWhiteboard@@@std@@@std@@ABEABV?$allocator@UMMHS@AlliesWhiteboard@@@2@XZ 10034b70 f i whiteboard.obj
 0001:00033b90       ?_Getal@?$vector@PAVGraphicElement@@V?$allocator@PAVGraphicElement@@@std@@@std@@AAEAAV?$allocator@PAVGraphicElement@@@2@XZ 10034b90 f i whiteboard.obj
 0001:00033bb0       ?_Getblock@?$_Deque_val@U?$_Deque_simple_types@PAVGraphicElement@@@std@@@std@@QBEII@Z 10034bb0 f i whiteboard.obj
 0001:00033bd0       ?_Getblock@?$_Deque_val@U?$_Deque_simple_types@UMMHS@AlliesWhiteboard@@@std@@@std@@QBEII@Z 10034bd0 f i whiteboard.obj
 0001:00033bf0       ?_Getblock@?$deque@PAVGraphicElement@@V?$allocator@PAVGraphicElement@@@std@@@std@@ABEII@Z 10034bf0 f i whiteboard.obj
 0001:00033c10       ?_Getblock@?$deque@UMMHS@AlliesWhiteboard@@V?$allocator@UMMHS@AlliesWhiteboard@@@std@@@std@@ABEII@Z 10034c10 f i whiteboard.obj
 0001:00033c30       ?_Growmap@?$deque@PAVGraphicElement@@V?$allocator@PAVGraphicElement@@@std@@@std@@AAEXI@Z 10034c30 f i whiteboard.obj
 0001:00033e70       ?_Growmap@?$deque@UMMHS@AlliesWhiteboard@@V?$allocator@UMMHS@AlliesWhiteboard@@@std@@@std@@AAEXI@Z 10034e70 f i whiteboard.obj
 0001:000340a0       ?_Map@?$deque@PAVGraphicElement@@V?$allocator@PAVGraphicElement@@@std@@@std@@AAEAAPAPAPAVGraphicElement@@XZ 100350a0 f i whiteboard.obj
 0001:000340c0       ?_Map@?$deque@UMMHS@AlliesWhiteboard@@V?$allocator@UMMHS@AlliesWhiteboard@@@std@@@std@@AAEAAPAPAUMMHS@AlliesWhiteboard@@XZ 100350c0 f i whiteboard.obj
 0001:000340e0       ?_Mapsize@?$deque@PAVGraphicElement@@V?$allocator@PAVGraphicElement@@@std@@@std@@AAEAAIXZ 100350e0 f i whiteboard.obj
 0001:00034100       ?_Mapsize@?$deque@UMMHS@AlliesWhiteboard@@V?$allocator@UMMHS@AlliesWhiteboard@@@std@@@std@@AAEAAIXZ 10035100 f i whiteboard.obj
 0001:00034120       ?_Myoff@?$deque@PAVGraphicElement@@V?$allocator@PAVGraphicElement@@@std@@@std@@AAEAAIXZ 10035120 f i whiteboard.obj
 0001:00034140       ?_Myoff@?$deque@UMMHS@AlliesWhiteboard@@V?$allocator@UMMHS@AlliesWhiteboard@@@std@@@std@@AAEAAIXZ 10035140 f i whiteboard.obj
 0001:00034160       ?_Mysize@?$deque@PAVGraphicElement@@V?$allocator@PAVGraphicElement@@@std@@@std@@AAEAAIXZ 10035160 f i whiteboard.obj
 0001:00034180       ?_Mysize@?$deque@PAVGraphicElement@@V?$allocator@PAVGraphicElement@@@std@@@std@@ABEABIXZ 10035180 f i whiteboard.obj
 0001:000341a0       ?_Mysize@?$deque@UMMHS@AlliesWhiteboard@@V?$allocator@UMMHS@AlliesWhiteboard@@@std@@@std@@AAEAAIXZ 100351a0 f i whiteboard.obj
 0001:000341c0       ?_Mysize@?$deque@UMMHS@AlliesWhiteboard@@V?$allocator@UMMHS@AlliesWhiteboard@@@std@@@std@@ABEABIXZ 100351c0 f i whiteboard.obj
 0001:000341e0       ?_Orphan_all@?$deque@PAVGraphicElement@@V?$allocator@PAVGraphicElement@@@std@@@std@@AAEXXZ 100351e0 f i whiteboard.obj
 0001:00034200       ?_Orphan_all@?$deque@UMMHS@AlliesWhiteboard@@V?$allocator@UMMHS@AlliesWhiteboard@@@std@@@std@@AAEXXZ 10035200 f i whiteboard.obj
 0001:00034220       ?_Release@?$_Uninitialized_backout@PAPAPAVGraphicElement@@@std@@QAEPAPAPAVGraphicElement@@XZ 10035220 f i whiteboard.obj
 0001:00034240       ?_Release@?$_Uninitialized_backout@PAPAUMMHS@AlliesWhiteboard@@@std@@QAEPAPAUMMHS@AlliesWhiteboard@@XZ 10035240 f i whiteboard.obj
 0001:00034260       ?_Take_contents@?$_Vector_val@U?$_Simple_types@PAVGraphicElement@@@std@@@std@@QAEXAAV12@@Z 10035260 f i whiteboard.obj
 0001:000342c0       ?_Tidy@?$deque@PAVGraphicElement@@V?$allocator@PAVGraphicElement@@@std@@@std@@AAEXXZ 100352c0 f i whiteboard.obj
 0001:000343e0       ?_Tidy@?$deque@UMMHS@AlliesWhiteboard@@V?$allocator@UMMHS@AlliesWhiteboard@@@std@@@std@@AAEXXZ 100353e0 f i whiteboard.obj
 0001:00034500       ?_Tidy@?$vector@PAVGraphicElement@@V?$allocator@PAVGraphicElement@@@std@@@std@@AAEXXZ 10035500 f i whiteboard.obj
 0001:000345d0       ?_Unchecked_begin@?$deque@PAVGraphicElement@@V?$allocator@PAVGraphicElement@@@std@@@std@@QAE?AV?$_Deque_unchecked_iterator@V?$_Deque_val@U?$_Deque_simple_types@PAVGraphicElement@@@std@@@std@@@2@XZ 100355d0 f i whiteboard.obj
 0001:00034610       ?_Unchecked_begin@?$deque@UMMHS@AlliesWhiteboard@@V?$allocator@UMMHS@AlliesWhiteboard@@@std@@@std@@QAE?AV?$_Deque_unchecked_iterator@V?$_Deque_val@U?$_Deque_simple_types@UMMHS@AlliesWhiteboard@@@std@@@std@@@2@XZ 10035610 f i whiteboard.obj
 0001:00034650       ?_Unchecked_end@?$deque@UMMHS@AlliesWhiteboard@@V?$allocator@UMMHS@AlliesWhiteboard@@@std@@@std@@QAE?AV?$_Deque_unchecked_iterator@V?$_Deque_val@U?$_Deque_simple_types@UMMHS@AlliesWhiteboard@@@std@@@std@@@2@XZ 10035650 f i whiteboard.obj
 0001:00034690       ?_Xlen@?$deque@PAVGraphicElement@@V?$allocator@PAVGraphicElement@@@std@@@std@@ABEXXZ 10035690 f i whiteboard.obj
 0001:000346b0       ?_Xlen@?$deque@UMMHS@AlliesWhiteboard@@V?$allocator@UMMHS@AlliesWhiteboard@@@std@@@std@@ABEXXZ 100356b0 f i whiteboard.obj
 0001:000346d0       ?allocate@?$allocator@PAPAVGraphicElement@@@std@@QAEPAPAPAVGraphicElement@@I@Z 100356d0 f i whiteboard.obj
 0001:000346f0       ?allocate@?$allocator@PAUMMHS@AlliesWhiteboard@@@std@@QAEPAPAUMMHS@AlliesWhiteboard@@I@Z 100356f0 f i whiteboard.obj
 0001:00034710       ?allocate@?$allocator@PAVGraphicElement@@@std@@QAEPAPAVGraphicElement@@I@Z 10035710 f i whiteboard.obj
 0001:00034730       ?allocate@?$allocator@UMMHS@AlliesWhiteboard@@@std@@QAEPAUMMHS@AlliesWhiteboard@@I@Z 10035730 f i whiteboard.obj
 0001:00034750       ?back@?$deque@UMMHS@AlliesWhiteboard@@V?$allocator@UMMHS@AlliesWhiteboard@@@std@@@std@@QAEAAUMMHS@AlliesWhiteboard@@XZ 10035750 f i whiteboard.obj
 0001:000347b0       ?clear@?$deque@UMMHS@AlliesWhiteboard@@V?$allocator@UMMHS@AlliesWhiteboard@@@std@@@std@@QAEXXZ 100357b0 f i whiteboard.obj
 0001:000347d0       ?deallocate@?$allocator@PAPAVGraphicElement@@@std@@QAEXQAPAPAVGraphicElement@@I@Z 100357d0 f i whiteboard.obj
 0001:000347f0       ?deallocate@?$allocator@PAUMMHS@AlliesWhiteboard@@@std@@QAEXQAPAUMMHS@AlliesWhiteboard@@I@Z 100357f0 f i whiteboard.obj
 0001:00034810       ?deallocate@?$allocator@PAVGraphicElement@@@std@@QAEXQAPAVGraphicElement@@I@Z 10035810 f i whiteboard.obj
 0001:00034830       ?deallocate@?$allocator@UMMHS@AlliesWhiteboard@@@std@@QAEXQAUMMHS@AlliesWhiteboard@@I@Z 10035830 f i whiteboard.obj
 0001:00034850       ?empty@?$deque@PAVGraphicElement@@V?$allocator@PAVGraphicElement@@@std@@@std@@QBE_NXZ 10035850 f i whiteboard.obj
 0001:00034880       ?empty@?$deque@UMMHS@AlliesWhiteboard@@V?$allocator@UMMHS@AlliesWhiteboard@@@std@@@std@@QBE_NXZ 10035880 f i whiteboard.obj
 0001:000348b0       ?front@?$deque@PAVGraphicElement@@V?$allocator@PAVGraphicElement@@@std@@@std@@QAEAAPAVGraphicElement@@XZ 100358b0 f i whiteboard.obj
 0001:000348d0       ?max_size@?$_Default_allocator_traits@V?$allocator@PAVGraphicElement@@@std@@@std@@SGIABV?$allocator@PAVGraphicElement@@@2@@Z 100358d0 f i whiteboard.obj
 0001:000348e0       ?max_size@?$_Default_allocator_traits@V?$allocator@UMMHS@AlliesWhiteboard@@@std@@@std@@SGIABV?$allocator@UMMHS@AlliesWhiteboard@@@2@@Z 100358e0 f i whiteboard.obj
 0001:000348f0       ?max_size@?$deque@PAVGraphicElement@@V?$allocator@PAVGraphicElement@@@std@@@std@@QBEIXZ 100358f0 f i whiteboard.obj
 0001:00034930       ?max_size@?$deque@UMMHS@AlliesWhiteboard@@V?$allocator@UMMHS@AlliesWhiteboard@@@std@@@std@@QBEIXZ 10035930 f i whiteboard.obj
 0001:00034970       ?pop_back@?$deque@PAVGraphicElement@@V?$allocator@PAVGraphicElement@@@std@@@std@@QAEXXZ 10035970 f i whiteboard.obj
 0001:00034a40       ?pop_back@?$deque@UMMHS@AlliesWhiteboard@@V?$allocator@UMMHS@AlliesWhiteboard@@@std@@@std@@QAEXXZ 10035a40 f i whiteboard.obj
 0001:00034b10       ?pop_front@?$deque@PAVGraphicElement@@V?$allocator@PAVGraphicElement@@@std@@@std@@QAEXXZ 10035b10 f i whiteboard.obj
 0001:00034bf0       ?push_back@?$deque@PAVGraphicElement@@V?$allocator@PAVGraphicElement@@@std@@@std@@QAEX$$QAPAVGraphicElement@@@Z 10035bf0 f i whiteboard.obj
 0001:00034c20       ?push_front@?$deque@UMMHS@AlliesWhiteboard@@V?$allocator@UMMHS@AlliesWhiteboard@@@std@@@std@@QAEXABUMMHS@AlliesWhiteboard@@@Z 10035c20 f i whiteboard.obj
 0001:00034c40       ?size@?$deque@PAVGraphicElement@@V?$allocator@PAVGraphicElement@@@std@@@std@@QBEIXZ 10035c40 f i whiteboard.obj
 0001:00034c60       ?size@?$deque@UMMHS@AlliesWhiteboard@@V?$allocator@UMMHS@AlliesWhiteboard@@@std@@@std@@QBEIXZ 10035c60 f i whiteboard.obj
 0001:00034c80       ?size@?$vector@PAVGraphicElement@@V?$allocator@PAVGraphicElement@@@std@@@std@@QBEIXZ 10035c80 f i whiteboard.obj
 0001:00034cb0       ??0PCX@@QAE@XZ             10035cb0 f   PCX.obj
 0001:00034cf0       ??1PCX@@QAE@XZ             10035cf0 f   PCX.obj
 0001:00034d60       ?CopyPalette@PCX@@QAEXPAUtagPALETTEENTRY@@@Z 10035d60 f   PCX.obj
 0001:00034dc0       ?Erase@PCX@@QAEXXZ         10035dc0 f   PCX.obj
 0001:00034e00       ?Height@PCX@@QAEJXZ        10035e00 f   PCX.obj
 0001:00034e20       ?Load24@PCX@@QAEHPBD@Z     10035e20 f   PCX.obj
 0001:00035010       ?Load@PCX@@QAEHPBDH@Z      10036010 f   PCX.obj
 0001:00035370       ?NewBuffer@PCX@@QAEPAEFF@Z 10036370 f   PCX.obj
 0001:000353d0       ?ReadLine24@PCX@@AAEPAEPAEKF@Z 100363d0 f   PCX.obj
 0001:000354c0       ?Save@PCX@@QAEHPBD@Z       100364c0 f   PCX.obj
 0001:000357e0       ?SetBuffer@PCX@@QAEPAEPAE@Z 100367e0 f   PCX.obj
 0001:00035810       ?SetPalette@PCX@@QAEXPAUtagPALETTEENTRY@@@Z 10036810 f   PCX.obj
 0001:00035850       ?Width@PCX@@QAEJXZ         10036850 f   PCX.obj
 0001:00035860       ?WriteLine@PCX@@AAEPAEPAEK@Z 10036860 f   PCX.obj
 0001:000359e0       ?CreateSurfPCXResource@@YGPAUIDirectDrawSurface@@GH@Z 100369e0 f   pcxread.obj
 0001:00035be0       ?PCX2BitMap@@YGXPAEPAUpcx_picture_typ@@J@Z 10036be0 f   pcxread.obj
 0001:00035dd0       ?RestoreFromPCX@@YGXGPAUIDirectDrawSurface@@@Z 10036dd0 f   pcxread.obj
 0001:00035f60       ?RestoreFromPCXFile@@YGXPADPAUIDirectDrawSurface@@@Z 10036f60 f   pcxread.obj
 0001:00036140       ?strrchr@@YAPADQADH@Z      10037140 f i etc.obj
 0001:00036160       _CalcCRC@8                 10037160 f   etc.obj
 0001:00036200       _GetMinValidLenWithMatchOpcode@8 10037200 f   etc.obj
 0001:00036240       _GetOpCodeSize@4           10037240 f   etc.obj
 0001:000364e0       _MemWriteWithBackup@16     100374e0 f   etc.obj
 0001:000365d0       _RegReadData@24            100375d0 f   etc.obj
 0001:00036660       _RegReadDword@16           10037660 f   etc.obj
 0001:00036680       _RegReadStr@20             10037680 f   etc.obj
 0001:000366b0       _RegWriteData@24           100376b0 f   etc.obj
 0001:00036740       _RegWriteDword@16          10037740 f   etc.obj
 0001:00036760       _RegWriteStr@20            10037760 f   etc.obj
 0001:00036790       _X86RedirectOpcodeToNewBase@16 10037790 f   etc.obj
 0001:00036b70       _X86ShallToRedirect@20     10037b70 f   etc.obj
 0001:00036e50       _clean_remark@8            10037e50 f   etc.obj
 0001:00036ea0       _duplicate_str@4           10037ea0 f   etc.obj
 0001:00036f00       _getDBCSlen@4              10037f00 f   etc.obj
 0001:00036f70       _memfind@24                10037f70 f   etc.obj
 0001:000370e0       _trim_crlf_@4              100380e0 f   etc.obj
 0001:000371e0       _vkToStr@12                100381e0 f   etc.obj
 0001:00038280       ??0SingleHook@@QAE@IKHPAE@Z 10039280 f   Hook.obj
 0001:000382c0       ??0SingleHook@@QAE@PAEKH0@Z 100392c0 f   Hook.obj
 0001:00038300       ??0SingleHook@@QAE@XZ      10039300 f   Hook.obj
 0001:00038330       ??1SingleHook@@QAE@XZ      10039330 f   Hook.obj
 0001:000383d0       ?AddrToHook@SingleHook@@UAEPAXPAX@Z 100393d0 f   Hook.obj
 0001:000383f0       ?AddrToHook@SingleHook@@UAEQAXXZ 100393f0 f   Hook.obj
 0001:00038410       ?AddrToRtn@SingleHook@@QAEPAXXZ 10039410 f   Hook.obj
 0001:00038430       ?Hook@SingleHook@@UAEXXZ   10039430 f   Hook.obj
 0001:00038470       ?InitHookClass@SingleHook@@UAEXPAEKH0@Z 10039470 f   Hook.obj
 0001:000385f0       ?LenToHook@SingleHook@@UAEKK@Z 100395f0 f   Hook.obj
 0001:00038610       ?ThisHookMode@SingleHook@@UAE?BHXZ 10039610 f   Hook.obj
 0001:00038630       ?ThisHookMode@SingleHook@@UAEHH@Z 10039630 f   Hook.obj
 0001:00038650       ?UnHook@SingleHook@@UAEXXZ 10039650 f   Hook.obj
 0001:00038690       ?X86CurrentThreadStackBufferFixRtnAddr@@YGPAUtagInlineX86StackBuffer@@PAPAU1@@Z 10039690 f   InlineHook.obj
 0001:00038740       ?X86CurrentThreadStackBuffer@@YGPAUtagInlineX86StackBuffer@@PAPAU1@@Z 10039740 f   InlineHook.obj
 0001:000387d0       ??0InlineSingleHook@@QAE@IKHP6GHPAUtagInlineX86StackBuffer@@@Z@Z 100397d0 f   InlineHook.obj
 0001:00038860       ??0InlineSingleHook@@QAE@IKHPAX@Z 10039860 f   InlineHook.obj
 0001:000388f0       ??0InlineSingleHook@@QAE@XZ 100398f0 f   InlineHook.obj
 0001:00038970       ??1InlineSingleHook@@QAE@XZ 10039970 f   InlineHook.obj
 0001:00038a80       ?Hook@InlineSingleHook@@UAEXXZ 10039a80 f   InlineHook.obj
 0001:00038b60       ?InitHookClass@InlineSingleHook@@AAEXQAEKHPAX1@Z 10039b60 f   InlineHook.obj
 0001:00038e80       ?NewBytesForInlineHook@InlineSingleHook@@QAEPAEPAE@Z 10039e80 f   InlineHook.obj
 0001:00038eb0       ?RedirectedOpcodeInStub@InlineSingleHook@@QAEQAXXZ 10039eb0 f   InlineHook.obj
 0001:00038ed0       ?RedirectedOrgOpcodes@InlineSingleHook@@QAEQAEXZ 10039ed0 f   InlineHook.obj
 0001:00038ef0       ?RtnAddrOfHook@InlineSingleHook@@QAEQAXXZ 10039ef0 f   InlineHook.obj
 0001:00038f10       ?SetParamOfHook@InlineSingleHook@@QAEPAXPAX@Z 10039f10 f   InlineHook.obj
 0001:00038f40       ?X86InlineHookRouter@@YGXXZ 10039f40 f   InlineHook.obj
 0001:00039010       ??0CGraphic@@QAE@XZ        1003a010 f   cgraphic.obj
 0001:00039030       ??1CGraphic@@QAE@XZ        1003a030 f   cgraphic.obj
 0001:00039040       ?DrawRotateRect@CGraphic@@QAEXPAUIDirectDrawSurface@@HHH@Z 1003a040 f   cgraphic.obj
 0001:00039280       ?GenerateLookupTables@CGraphic@@AAEXXZ 1003a280 f   cgraphic.obj
 0001:00039310       ??$?0V?$allocator@PAVGraphicElement@@@std@@PAPAVGraphicElement@@PAPAV2@PAPAV2@@?$_Compressed_pair@V?$allocator@PAVGraphicElement@@@std@@V?$_Vector_val@U?$_Simple_types@PAVGraphicElement@@@std@@@2@$00@std@@QAE@U_One_then_variadic_args_t@1@$$QAV?$allocator@PAVGraphicElement@@@1@$$QAPAPAVGraphicElement@@22@Z 1003a310 f i ElementHandler.obj
 0001:00039360       ??$_Construct_in_place@PAVGraphicElement@@ABQAV1@@std@@YGXAAPAVGraphicElement@@ABQAV1@@Z 1003a360 f i ElementHandler.obj
 0001:000393a0       ??$_Copy_memmove@PAPAVGraphicElement@@PAPAV1@@std@@YGPAPAVGraphicElement@@PAPAV1@00@Z 1003a3a0 f i ElementHandler.obj
 0001:00039410       ??$_Emplace_back@PAVGraphicElement@@@?$_Uninitialized_backout_al@V?$allocator@PAVGraphicElement@@@std@@@std@@QAEX$$QAPAVGraphicElement@@@Z 1003a410 f i ElementHandler.obj
 0001:00039450       ??$_Emplace_back_with_unused_capacity@ABQAVGraphicElement@@@?$vector@PAVGraphicElement@@V?$allocator@PAVGraphicElement@@@std@@@std@@AAEAAPAVGraphicElement@@ABQAV2@@Z 1003a450 f i ElementHandler.obj
 0001:000394b0       ??$_Emplace_one_at_back@ABQAVGraphicElement@@@?$vector@PAVGraphicElement@@V?$allocator@PAVGraphicElement@@@std@@@std@@AAEAAPAVGraphicElement@@ABQAV2@@Z 1003a4b0 f i ElementHandler.obj
 0001:00039510       ??$_Emplace_reallocate@ABQAVGraphicElement@@@?$vector@PAVGraphicElement@@V?$allocator@PAVGraphicElement@@@std@@@std@@AAEPAPAVGraphicElement@@QAPAV2@ABQAV2@@Z 1003a510 f i ElementHandler.obj
 0001:000396e0       ??$_Get_unwrapped@ABQAPAVGraphicElement@@@std@@YG?A_TABQAPAVGraphicElement@@@Z 1003a6e0 f i ElementHandler.obj
 0001:000396f0       ??$_Move_unchecked@PAPAVGraphicElement@@PAPAV1@@std@@YGPAPAVGraphicElement@@PAPAV1@00@Z 1003a6f0 f i ElementHandler.obj
 0001:00039740       ??$_To_address@PAPAVGraphicElement@@@std@@YG?A_PABQAPAVGraphicElement@@@Z 1003a740 f i ElementHandler.obj
 0001:00039750       ??$_Uninitialized_move@PAPAVGraphicElement@@V?$allocator@PAVGraphicElement@@@std@@@std@@YGPAPAVGraphicElement@@QAPAV1@0PAPAV1@AAV?$allocator@PAVGraphicElement@@@0@@Z 1003a750 f i ElementHandler.obj
 0001:00039830       ??$addressof@PAVGraphicElement@@@std@@YGPAPAVGraphicElement@@AAPAV1@@Z 1003a830 f i ElementHandler.obj
 0001:00039840       ??$addressof@V?$_Vector_val@U?$_Simple_types@PAVGraphicElement@@@std@@@std@@@std@@YGPAV?$_Vector_val@U?$_Simple_types@PAVGraphicElement@@@std@@@0@AAV10@@Z 1003a840 f i ElementHandler.obj
 0001:00039850       ??$construct@PAVGraphicElement@@ABQAV1@@?$_Default_allocator_traits@V?$allocator@PAVGraphicElement@@@std@@@std@@SGXAAV?$allocator@PAVGraphicElement@@@1@QAPAVGraphicElement@@ABQAV3@@Z 1003a850 f i ElementHandler.obj
 0001:00039890       ??$emplace_back@ABQAVGraphicElement@@@?$vector@PAVGraphicElement@@V?$allocator@PAVGraphicElement@@@std@@@std@@QAE?A_TABQAVGraphicElement@@@Z 1003a890 f i ElementHandler.obj
 0001:000398c0       ??$exchange@PAPAVGraphicElement@@$$T@std@@YGPAPAVGraphicElement@@AAPAPAV1@$$QA$$T@Z 1003a8c0 f i ElementHandler.obj
 0001:000398e0       ??$forward@ABQAVGraphicElement@@@std@@YGABQAVGraphicElement@@ABQAV1@@Z 1003a8e0 f i ElementHandler.obj
 0001:000398f0       ??$forward@PAPAVGraphicElement@@@std@@YG$$QAPAPAVGraphicElement@@AAPAPAV1@@Z 1003a8f0 f i ElementHandler.obj
 0001:00039900       ??$forward@V?$allocator@PAVGraphicElement@@@std@@@std@@YG$$QAV?$allocator@PAVGraphicElement@@@0@AAV10@@Z 1003a900 f i ElementHandler.obj
 0001:00039910       ??0?$_Uninitialized_backout_al@V?$allocator@PAVGraphicElement@@@std@@@std@@QAE@PAPAVGraphicElement@@AAV?$allocator@PAVGraphicElement@@@1@@Z 1003a910 f i ElementHandler.obj
 0001:00039940       ??0?$_Vector_const_iterator@V?$_Vector_val@U?$_Simple_types@PAVGraphicElement@@@std@@@std@@@std@@QAE@PAPAVGraphicElement@@PBU_Container_base0@1@@Z 1003a940 f i ElementHandler.obj
 0001:00039970       ??0?$_Vector_iterator@V?$_Vector_val@U?$_Simple_types@PAVGraphicElement@@@std@@@std@@@std@@QAE@PAPAVGraphicElement@@PBU_Container_base0@1@@Z 1003a970 f i ElementHandler.obj
 0001:00039990       ??0?$_Vector_val@U?$_Simple_types@PAVGraphicElement@@@std@@@std@@QAE@PAPAVGraphicElement@@00@Z 1003a990 f i ElementHandler.obj
 0001:000399c0       ??0?$vector@PAVGraphicElement@@V?$allocator@PAVGraphicElement@@@std@@@std@@QAE@$$QAV01@@Z 1003a9c0 f i ElementHandler.obj
 0001:00039a60       ??0CElementHandler@@QAE@XZ 1003aa60 f   ElementHandler.obj
 0001:00039aa0       ??1?$_Uninitialized_backout_al@V?$allocator@PAVGraphicElement@@@std@@@std@@QAE@XZ 1003aaa0 f i ElementHandler.obj
 0001:00039ad0       ??1CElementHandler@@UAE@XZ 1003aad0 f   ElementHandler.obj
 0001:00039c60       ??H?$_Vector_iterator@V?$_Vector_val@U?$_Simple_types@PAVGraphicElement@@@std@@@std@@@std@@QBE?AV01@H@Z 1003ac60 f i ElementHandler.obj
 0001:00039c90       ??Y?$_Vector_const_iterator@V?$_Vector_val@U?$_Simple_types@PAVGraphicElement@@@std@@@std@@@std@@QAEAAV01@H@Z 1003ac90 f i ElementHandler.obj
 0001:00039cc0       ??Y?$_Vector_iterator@V?$_Vector_val@U?$_Simple_types@PAVGraphicElement@@@std@@@std@@@std@@QAEAAV01@H@Z 1003acc0 f i ElementHandler.obj
 0001:00039ce0       ??_ECElementHandler@@UAEPAXI@Z 1003ace0 f i ElementHandler.obj
 0001:00039ce0       ??_GCElementHandler@@UAEPAXI@Z 1003ace0 f i ElementHandler.obj
 0001:00039d20       ?AddElement@CElementHandler@@QAEXPAVGraphicElement@@@Z 1003ad20 f   ElementHandler.obj
 0001:00039d70       ?DeleteBetween@CElementHandler@@QAEXHHHH@Z 1003ad70 f   ElementHandler.obj
 0001:0003a050       ?DeleteOn@CElementHandler@@QAEXHH@Z 1003b050 f   ElementHandler.obj
 0001:0003a090       ?GetArea@CElementHandler@@QAE?AV?$vector@PAVGraphicElement@@V?$allocator@PAVGraphicElement@@@std@@@std@@HHHH@Z 1003b090 f   ElementHandler.obj
 0001:0003a2f0       ?GetClosestElement@CElementHandler@@QAEPAVGraphicElement@@HH@Z 1003b2f0 f   ElementHandler.obj
 0001:0003a300       ?MoveTextElement@CElementHandler@@QAEPAVGraphicElement@@PAV2@HH@Z 1003b300 f   ElementHandler.obj
 0001:0003a520       ?_Calculate_growth@?$vector@PAVGraphicElement@@V?$allocator@PAVGraphicElement@@@std@@@std@@ABEII@Z 1003b520 f i ElementHandler.obj
 0001:0003a580       ?_Change_array@?$vector@PAVGraphicElement@@V?$allocator@PAVGraphicElement@@@std@@@std@@AAEXQAPAVGraphicElement@@II@Z 1003b580 f i ElementHandler.obj
 0001:0003a620       ?_Get_first@?$_Compressed_pair@V?$allocator@PAVGraphicElement@@@std@@V?$_Vector_val@U?$_Simple_types@PAVGraphicElement@@@std@@@2@$00@std@@QBEABV?$allocator@PAVGraphicElement@@@2@XZ 1003b620 f i ElementHandler.obj
 0001:0003a630       ?_Getal@?$vector@PAVGraphicElement@@V?$allocator@PAVGraphicElement@@@std@@@std@@ABEABV?$allocator@PAVGraphicElement@@@2@XZ 1003b630 f i ElementHandler.obj
 0001:0003a650       ?_Orphan_range@?$vector@PAVGraphicElement@@V?$allocator@PAVGraphicElement@@@std@@@std@@ABEXPAPAVGraphicElement@@0@Z 1003b650 f i ElementHandler.obj
 0001:0003a660       ?_Release@?$_Uninitialized_backout_al@V?$allocator@PAVGraphicElement@@@std@@@std@@QAEPAPAVGraphicElement@@XZ 1003b660 f i ElementHandler.obj
 0001:0003a680       ?_Verify_offset@?$_Vector_const_iterator@V?$_Vector_val@U?$_Simple_types@PAVGraphicElement@@@std@@@std@@@std@@QBEXH@Z 1003b680 f i ElementHandler.obj
 0001:0003a690       ?_Xlength@?$vector@PAVGraphicElement@@V?$allocator@PAVGraphicElement@@@std@@@std@@CGXXZ 1003b690 f i ElementHandler.obj
 0001:0003a6a0       ?back@?$vector@PAVGraphicElement@@V?$allocator@PAVGraphicElement@@@std@@@std@@QAEAAPAVGraphicElement@@XZ 1003b6a0 f i ElementHandler.obj
 0001:0003a6d0       ?begin@?$vector@PAVGraphicElement@@V?$allocator@PAVGraphicElement@@@std@@@std@@QAE?AV?$_Vector_iterator@V?$_Vector_val@U?$_Simple_types@PAVGraphicElement@@@std@@@std@@@2@XZ 1003b6d0 f i ElementHandler.obj
 0001:0003a700       ?capacity@?$vector@PAVGraphicElement@@V?$allocator@PAVGraphicElement@@@std@@@std@@QBEIXZ 1003b700 f i ElementHandler.obj
 0001:0003a730       ?empty@?$vector@PAVGraphicElement@@V?$allocator@PAVGraphicElement@@@std@@@std@@QBE_NXZ 1003b730 f i ElementHandler.obj
 0001:0003a770       ?erase@?$vector@PAVGraphicElement@@V?$allocator@PAVGraphicElement@@@std@@@std@@QAE?AV?$_Vector_iterator@V?$_Vector_val@U?$_Simple_types@PAVGraphicElement@@@std@@@std@@@2@V?$_Vector_const_iterator@V?$_Vector_val@U?$_Simple_types@PAVGraphicElement@@@std@@@std@@@2@@Z 1003b770 f i ElementHandler.obj
 0001:0003a830       ?max_size@?$vector@PAVGraphicElement@@V?$allocator@PAVGraphicElement@@@std@@@std@@QBEIXZ 1003b830 f i ElementHandler.obj
 0001:0003a870       ?pop_back@?$vector@PAVGraphicElement@@V?$allocator@PAVGraphicElement@@@std@@@std@@QAEXXZ 1003b870 f i ElementHandler.obj
 0001:0003a900       ?push_back@?$vector@PAVGraphicElement@@V?$allocator@PAVGraphicElement@@@std@@@std@@QAEXABQAVGraphicElement@@@Z 1003b900 f i ElementHandler.obj
 0001:0003a919       _ImmIsIME@4                1003b919 f   imm32:IMM32.dll
 0001:0003a91f       _ImmAssociateContext@8     1003b91f f   imm32:IMM32.dll
 0001:0003a925       _ImmGetCompositionStringA@16 1003b925 f   imm32:IMM32.dll
 0001:0003a92b       _ImmGetCandidateListA@16   1003b92b f   imm32:IMM32.dll
 0001:0003a931       _ImmEscapeA@16             1003b931 f   imm32:IMM32.dll
 0001:0003a937       _ImmNotifyIME@16           1003b937 f   imm32:IMM32.dll
 0001:0003a93d       _GetAsyncKeyState@4        1003b93d f   user32:USER32.dll
 0001:0003a943       _GetCursorPos@4            1003b943 f   user32:USER32.dll
 0001:0003a949       _SetWindowLongA@12         1003b949 f   user32:USER32.dll
 0001:0003a94f       _GetKeyState@4             1003b94f f   user32:USER32.dll
 0001:0003a955       _wsprintfA                 1003b955 f   user32:USER32.dll
 0001:0003a95b       _DefWindowProcA@16         1003b95b f   user32:USER32.dll
 0001:0003a961       _GetForegroundWindow@0     1003b961 f   user32:USER32.dll
 0001:0003a967       _GetClassNameA@12          1003b967 f   user32:USER32.dll
 0001:0003a96d       _GetKeyboardLayout@4       1003b96d f   user32:USER32.dll
 0001:0003a973       _SendMessageA@16           1003b973 f   user32:USER32.dll
 0001:0003a979       _DrawTextExA@24            1003b979 f   user32:USER32.dll
 0001:0003a97f       _FillRect@12               1003b97f f   user32:USER32.dll
 0001:0003a985       _CloseHandle@4             1003b985 f   kernel32:KERNEL32.dll
 0001:0003a98b       _ReleaseMutex@4            1003b98b f   kernel32:KERNEL32.dll
 0001:0003a991       _WaitForSingleObject@8     1003b991 f   kernel32:KERNEL32.dll
 0001:0003a997       _CreateMutexA@12           1003b997 f   kernel32:KERNEL32.dll
 0001:0003a99d       _GetTickCount@0            1003b99d f   kernel32:KERNEL32.dll
 0001:0003a9a3       _CreateFileA@28            1003b9a3 f   kernel32:KERNEL32.dll
 0001:0003a9a9       _ReadFile@20               1003b9a9 f   kernel32:KERNEL32.dll
 0001:0003a9af       _GetLastError@0            1003b9af f   kernel32:KERNEL32.dll
 0001:0003a9b5       _GetCurrentProcess@0       1003b9b5 f   kernel32:KERNEL32.dll
 0001:0003a9bb       _GetSystemDirectoryA@8     1003b9bb f   kernel32:KERNEL32.dll
 0001:0003a9c1       _WriteProcessMemory@20     1003b9c1 f   kernel32:KERNEL32.dll
 0001:0003a9c7       _MapViewOfFile@20          1003b9c7 f   kernel32:KERNEL32.dll
 0001:0003a9cd       _UnmapViewOfFile@4         1003b9cd f   kernel32:KERNEL32.dll
 0001:0003a9d3       _FreeLibrary@4             1003b9d3 f   kernel32:KERNEL32.dll
 0001:0003a9d9       _GetProcAddress@8          1003b9d9 f   kernel32:KERNEL32.dll
 0001:0003a9df       _LoadLibraryA@4            1003b9df f   kernel32:KERNEL32.dll
 0001:0003a9e5       _lstrcpyA@8                1003b9e5 f   kernel32:KERNEL32.dll
 0001:0003a9eb       _lstrcatA@8                1003b9eb f   kernel32:KERNEL32.dll
 0001:0003a9f1       _CreateFileMappingA@24     1003b9f1 f   kernel32:KERNEL32.dll
 0001:0003a9f7       _ReleaseSemaphore@12       1003b9f7 f   kernel32:KERNEL32.dll
 0001:0003a9fd       _CreateSemaphoreA@16       1003b9fd f   kernel32:KERNEL32.dll
 0001:0003aa03       _Sleep@4                   1003ba03 f   kernel32:KERNEL32.dll
 0001:0003aa09       _CreateThread@24           1003ba09 f   kernel32:KERNEL32.dll
 0001:0003aa0f       _VirtualProtect@16         1003ba0f f   kernel32:KERNEL32.dll
 0001:0003aa15       _CreateDirectoryA@8        1003ba15 f   kernel32:KERNEL32.dll
 0001:0003aa1b       _FindClose@4               1003ba1b f   kernel32:KERNEL32.dll
 0001:0003aa21       _FindFirstFileA@8          1003ba21 f   kernel32:KERNEL32.dll
 0001:0003aa27       _GetFileSize@8             1003ba27 f   kernel32:KERNEL32.dll
 0001:0003aa2d       _GetModuleHandleA@4        1003ba2d f   kernel32:KERNEL32.dll
 0001:0003aa33       _lstrcmpiA@8               1003ba33 f   kernel32:KERNEL32.dll
 0001:0003aa39       _GetModuleFileNameA@12     1003ba39 f   kernel32:KERNEL32.dll
 0001:0003aa3f       _GetPrivateProfileIntA@16  1003ba3f f   kernel32:KERNEL32.dll
 0001:0003aa45       _SetFilePointer@16         1003ba45 f   kernel32:KERNEL32.dll
 0001:0003aa4b       _WriteFile@20              1003ba4b f   kernel32:KERNEL32.dll
 0001:0003aa51       _AddVectoredExceptionHandler@8 1003ba51 f   kernel32:KERNEL32.dll
 0001:0003aa57       _RemoveVectoredExceptionHandler@4 1003ba57 f   kernel32:KERNEL32.dll
 0001:0003aa5d       _EnterCriticalSection@4    1003ba5d f   kernel32:KERNEL32.dll
 0001:0003aa63       _LeaveCriticalSection@4    1003ba63 f   kernel32:KERNEL32.dll
 0001:0003aa69       _GetTempPathA@8            1003ba69 f   kernel32:KERNEL32.dll
 0001:0003aa6f       _GetTempFileNameA@16       1003ba6f f   kernel32:KERNEL32.dll
 0001:0003aa75       _GetPrivateProfileStringA@24 1003ba75 f   kernel32:KERNEL32.dll
 0001:0003aa7b       _WritePrivateProfileStringA@16 1003ba7b f   kernel32:KERNEL32.dll
 0001:0003aa81       _IsDBCSLeadByte@4          1003ba81 f   kernel32:KERNEL32.dll
 0001:0003aa87       _GetCurrentDirectoryA@8    1003ba87 f   kernel32:KERNEL32.dll
 0001:0003aa8d       _GetFileAttributesA@4      1003ba8d f   kernel32:KERNEL32.dll
 0001:0003aa93       _GetPrivateProfileSectionA@16 1003ba93 f   kernel32:KERNEL32.dll
 0001:0003aa99       _LoadResource@8            1003ba99 f   kernel32:KERNEL32.dll
 0001:0003aa9f       _LockResource@4            1003ba9f f   kernel32:KERNEL32.dll
 0001:0003aaa5       _FindResourceA@12          1003baa5 f   kernel32:KERNEL32.dll
 0001:0003aaab       _IsBadWritePtr@8           1003baab f   kernel32:KERNEL32.dll
 0001:0003aab1       _GetCurrentThreadId@0      1003bab1 f   kernel32:KERNEL32.dll
 0001:0003aab7       _CreateDCA@16              1003bab7 f   gdi32:GDI32.dll
 0001:0003aabd       _CreateDIBitmap@24         1003babd f   gdi32:GDI32.dll
 0001:0003aac3       _CreatePalette@4           1003bac3 f   gdi32:GDI32.dll
 0001:0003aac9       _DeleteDC@4                1003bac9 f   gdi32:GDI32.dll
 0001:0003aacf       _DeleteObject@4            1003bacf f   gdi32:GDI32.dll
 0001:0003aad5       _GetDIBits@28              1003bad5 f   gdi32:GDI32.dll
 0001:0003aadb       _SelectObject@8            1003badb f   gdi32:GDI32.dll
 0001:0003aae1       _SelectPalette@12          1003bae1 f   gdi32:GDI32.dll
 0001:0003aae7       _TextOutA@20               1003bae7 f   gdi32:GDI32.dll
 0001:0003aaed       _CreateFontA@56            1003baed f   gdi32:GDI32.dll
 0001:0003aaf3       _GetTextExtentPoint32A@16  1003baf3 f   gdi32:GDI32.dll
 0001:0003aaf9       _SetBkColor@8              1003baf9 f   gdi32:GDI32.dll
 0001:0003aaff       _SetTextColor@8            1003baff f   gdi32:GDI32.dll
 0001:0003ab05       _RegCloseKey@4             1003bb05 f   advapi32:ADVAPI32.dll
 0001:0003ab0b       _RegCreateKeyExA@36        1003bb0b f   advapi32:ADVAPI32.dll
 0001:0003ab11       _RegQueryValueExA@24       1003bb11 f   advapi32:ADVAPI32.dll
 0001:0003ab17       _RegSetValueExA@24         1003bb17 f   advapi32:ADVAPI32.dll
 0001:0003ab1d       ??2@YAPAXI@Z               1003bb1d f   LIBCMT:new_scalar.obj
 0001:0003ab4d       ??3@YAXPAXI@Z              1003bb4d f   LIBCMT:delete_scalar_size.obj
 0001:0003ab5b       @__security_check_cookie@4 1003bb5b f   LIBCMT:secchk.obj
 0001:0003ab69       ??_U@YAPAXI@Z              1003bb69 f   LIBCMT:new_array.obj
 0001:0003ab72       ??1type_info@@UAE@XZ       1003bb72 f   LIBCMT:std_type_info_static.obj
 0001:0003ab79       ??_Etype_info@@UAEPAXI@Z   1003bb79 f i LIBCMT:std_type_info_static.obj
 0001:0003ab79       ??_Gtype_info@@UAEPAXI@Z   1003bb79 f i LIBCMT:std_type_info_static.obj
 0001:0003ab9c       ??_V@YAXPAX@Z              1003bb9c f   LIBCMT:delete_array.obj
 0001:0003aba1       ___raise_securityfailure   1003bba1 f   LIBCMT:gs_report.obj
 0001:0003abc9       ___report_gsfailure        1003bbc9 f   LIBCMT:gs_report.obj
 0001:0003acc3       ___report_rangecheckfailure 1003bcc3 f   LIBCMT:gs_report.obj
 0001:0003accf       ___report_securityfailure  1003bccf f   LIBCMT:gs_report.obj
 0001:0003ad9e       ___report_securityfailureEx 1003bd9e f   LIBCMT:gs_report.obj
 0001:0003aec0       __ftoui3                   1003bec0 f   LIBCMT:ftol3.obj
 0001:0003af10       __ftoul3                   1003bf10 f   LIBCMT:ftol3.obj
 0001:0003af80       __ftoul3_legacy            1003bf80 f   LIBCMT:ftol3.obj
 0001:0003afb0       __ftol3                    1003bfb0 f   LIBCMT:ftol3.obj
 0001:0003b020       __dtoui3                   1003c020 f   LIBCMT:ftol3.obj
 0001:0003b0a0       __dtoul3                   1003c0a0 f   LIBCMT:ftol3.obj
 0001:0003b150       __dtoul3_legacy            1003c150 f   LIBCMT:ftol3.obj
 0001:0003b180       __dtol3                    1003c180 f   LIBCMT:ftol3.obj
 0001:0003b230       __ultod3                   1003c230 f   LIBCMT:ftol3.obj
 0001:0003b290       __ltod3                    1003c290 f   LIBCMT:ftol3.obj
 0001:0003b2d1       ??3@YAXPAX@Z               1003c2d1 f   LIBCMT:delete_scalar.obj
 0001:0003b2d6       ??_L@YGXPAXIHP6EX0@Z1@Z    1003c2d6 f   LIBCMT:ehvecctr.obj
 0001:0003b2db       ??_L@YGXPAXIIP6EX0@Z1@Z    1003c2db f   LIBCMT:ehvecctr.obj
 0001:0003b34f       ??_M@YGXPAXIHP6EX0@Z@Z     1003c34f f   LIBCMT:ehvecdtr.obj
 0001:0003b354       ??_M@YGXPAXIIP6EX0@Z@Z     1003c354 f   LIBCMT:ehvecdtr.obj
 0001:0003b408       ?__ArrayUnwind@@YGXPAXIIP6EX0@Z@Z 1003c408 f   LIBCMT:ehvecdtr.obj
 0001:0003b4a0       __ftol2_sse_excpt          1003c4a0 f   LIBCMT:ftol2.obj
 0001:0003b4b0       __ftol2_sse                1003c4b0 f   LIBCMT:ftol2.obj
 0001:0003b4c0       __ftoi2                    1003c4c0 f   LIBCMT:ftol2.obj
 0001:0003b540       __ftoui2                   1003c540 f   LIBCMT:ftol2.obj
 0001:0003b5f0       __ftol2                    1003c5f0 f   LIBCMT:ftol2.obj
 0001:0003b6a0       __ftoul2                   1003c6a0 f   LIBCMT:ftol2.obj
 0001:0003b760       __ftoul2_legacy            1003c760 f   LIBCMT:ftol2.obj
 0001:0003bac1       __CRT_INIT@12              1003cac1 f   LIBCMT:dll_dllmain.obj
 0001:0003baca       __DllMainCRTStartup@12     1003caca f   LIBCMT:dll_dllmain.obj
 0001:0003baed       ??0bad_alloc@std@@QAE@XZ   1003caed f i LIBCMT:throw_bad_alloc.obj
 0001:0003bb05       ?__scrt_throw_std_bad_alloc@@YAXXZ 1003cb05 f   LIBCMT:throw_bad_alloc.obj
 0001:0003bb22       ?__scrt_throw_std_bad_array_new_length@@YAXXZ 1003cb22 f   LIBCMT:throw_bad_alloc.obj
 0001:0003bb3f       ___isa_available_init      1003cb3f f   LIBCMT:cpu_disp.obj
 0001:0003bd20       __SEH_prolog4              1003cd20 f   LIBCMT:sehprolg4.obj
 0001:0003bd70       __SEH_epilog4              1003cd70 f   LIBCMT:sehprolg4.obj
 0001:0003bd84       @_guard_check_icall_nop@4  1003cd84 f i LIBCMT:guard_support.obj
 0001:0003bd87       _ReadNoFence               1003cd87 f i LIBCMT:guard_support.obj
 0001:0003bd91       _ReadPointerNoFence        1003cd91 f i LIBCMT:guard_support.obj
 0001:0003bd9b       ___castguard_check_failure_debugbreak 1003cd9b f i LIBCMT:guard_support.obj
 0001:0003bdb6       ___castguard_check_failure_fastfail 1003cdb6 f i LIBCMT:guard_support.obj
 0001:0003bdd5       ___castguard_check_failure_nop 1003cdd5 f i LIBCMT:guard_support.obj
 0001:0003bdd8       ___castguard_check_failure_os_handled 1003cdd8 f i LIBCMT:guard_support.obj
 0001:0003be34       ___castguard_slow_path_check_debugbreak 1003ce34 f i LIBCMT:guard_support.obj
 0001:0003be61       ___castguard_slow_path_check_fastfail 1003ce61 f i LIBCMT:guard_support.obj
 0001:0003be92       ___castguard_slow_path_check_nop 1003ce92 f i LIBCMT:guard_support.obj
 0001:0003be95       ___castguard_slow_path_check_os_handled 1003ce95 f i LIBCMT:guard_support.obj
 0001:0003bef0       __guard_icall_checks_enforced 1003cef0 f i LIBCMT:guard_support.obj
 0001:0003bf4f       ___security_init_cookie    1003cf4f f   LIBCMT:gs_support.obj
 0001:0003bf9a       ?__scrt_initialize_type_info@@YAXXZ 1003cf9a f   LIBCMT:tncleanup.obj
 0001:0003bfa6       ?__scrt_uninitialize_type_info@@YAXXZ 1003cfa6 f   LIBCMT:tncleanup.obj
 0001:0003bfb2       ___local_stdio_scanf_options 1003cfb2 f i LIBCMT:default_local_stdio_options.obj
 0001:0003bfb8       ___scrt_initialize_default_local_stdio_options 1003cfb8 f   LIBCMT:default_local_stdio_options.obj
 0001:0003bfd5       ?configure_argv@__scrt_narrow_argv_policy@@SAHXZ 1003cfd5 f i LIBCMT:utility.obj
 0001:0003c026       ?initialize_environment@__scrt_narrow_environment_policy@@SAHXZ 1003d026 f i LIBCMT:utility.obj
 0001:0003c05e       _NtCurrentTeb              1003d05e f i LIBCMT:utility.obj
 0001:0003c065       ___scrt_acquire_startup_lock 1003d065 f   LIBCMT:utility.obj
 0001:0003c097       ___scrt_dllmain_after_initialize_c 1003d097 f   LIBCMT:utility.obj
 0001:0003c0c2       ___scrt_dllmain_before_initialize_c 1003d0c2 f   LIBCMT:utility.obj
 0001:0003c0d0       ___scrt_dllmain_crt_thread_attach 1003d0d0 f   LIBCMT:utility.obj
 0001:0003c0ef       ___scrt_dllmain_crt_thread_detach 1003d0ef f   LIBCMT:utility.obj
 0001:0003c0fc       ___scrt_dllmain_exception_filter 1003d0fc f   LIBCMT:utility.obj
 0001:0003c130       ___scrt_dllmain_uninitialize_c 1003d130 f   LIBCMT:utility.obj
 0001:0003c153       ___scrt_dllmain_uninitialize_critical 1003d153 f   LIBCMT:utility.obj
 0001:0003c160       ___scrt_initialize_crt     1003d160 f   LIBCMT:utility.obj
 0001:0003c199       ___scrt_initialize_onexit_tables 1003d199 f   LIBCMT:utility.obj
 0001:0003c220       ___scrt_is_nonwritable_in_current_image 1003d220 f   LIBCMT:utility.obj
 0001:0003c2b4       ___scrt_release_startup_lock 1003d2b4 f   LIBCMT:utility.obj
 0001:0003c2d1       ___scrt_uninitialize_crt   1003d2d1 f   LIBCMT:utility.obj
 0001:0003c2f9       __onexit                   1003d2f9 f   LIBCMT:utility.obj
 0001:0003c326       _at_quick_exit             1003d326 f   LIBCMT:utility.obj
 0001:0003c349       _atexit                    1003d349 f   LIBCMT:utility.obj
 0001:0003c35e       ___scrt_get_dyn_tls_init_callback 1003d35e f   LIBCMT:dyn_tls_init.obj
 0001:0003c364       ___scrt_fastfail           1003d364 f   LIBCMT:utility_desktop.obj
 0001:0003c47f       ___scrt_get_show_window_mode 1003d47f f   LIBCMT:utility_desktop.obj
 0001:0003c4b0       ___scrt_initialize_mta     1003d4b0 f   LIBCMT:utility_desktop.obj
 0001:0003c4b5       ___scrt_initialize_winrt   1003d4b5 f   LIBCMT:utility_desktop.obj
 0001:0003c4b8       ___scrt_is_managed_app     1003d4b8 f   LIBCMT:utility_desktop.obj
 0001:0003c4fa       ___scrt_set_unhandled_exception_filter 1003d4fa f   LIBCMT:utility_desktop.obj
 0001:0003c506       ___scrt_exe_initialize_mta 1003d506 f   LIBCMT:utility_desktop.obj
 0001:0003c506       ___scrt_stub_for_initialize_mta 1003d506 f   LIBCMT:utility_desktop.obj
 0001:0003c509       ___scrt_unhandled_exception_filter@4 1003d509 f   LIBCMT:utility_desktop.obj
 0001:0003c55f       __crt_debugger_hook        1003d55f f   LIBCMT:utility_desktop.obj
 0001:0003c567       __RTC_Initialize           1003d567 f   LIBCMT:initsect.obj
 0001:0003c593       __RTC_Terminate            1003d593 f   LIBCMT:initsect.obj
 0001:0003c5bf       __get_startup_argv_mode    1003d5bf f   LIBCMT:argv_mode.obj
 0001:0003c5c3       ___scrt_is_ucrt_dll_in_use 1003d5c3 f   LIBCMT:ucrt_detection.obj
 0001:0003c5cf       ??0bad_function_call@std@@QAE@ABV01@@Z 1003d5cf f i libcpmt:xthrow.obj
 0001:0003c5ea       ??0bad_function_call@std@@QAE@XZ 1003d5ea f i libcpmt:xthrow.obj
 0001:0003c5fb       ??0exception@std@@QAE@QBD@Z 1003d5fb f i libcpmt:xthrow.obj
 0001:0003c630       ??0exception@std@@QAE@XZ   1003d630 f i libcpmt:xthrow.obj
 0001:0003c641       ??0invalid_argument@std@@QAE@ABV01@@Z 1003d641 f i libcpmt:xthrow.obj
 0001:0003c65c       ??0invalid_argument@std@@QAE@PBD@Z 1003d65c f i libcpmt:xthrow.obj
 0001:0003c67b       ??0length_error@std@@QAE@ABV01@@Z 1003d67b f i libcpmt:xthrow.obj
 0001:0003c696       ??0length_error@std@@QAE@PBD@Z 1003d696 f i libcpmt:xthrow.obj
 0001:0003c6b5       ??0logic_error@std@@QAE@ABV01@@Z 1003d6b5 f i libcpmt:xthrow.obj
 0001:0003c6d0       ??0logic_error@std@@QAE@PBD@Z 1003d6d0 f i libcpmt:xthrow.obj
 0001:0003c6ef       ??0out_of_range@std@@QAE@ABV01@@Z 1003d6ef f i libcpmt:xthrow.obj
 0001:0003c70a       ??0out_of_range@std@@QAE@PBD@Z 1003d70a f i libcpmt:xthrow.obj
 0001:0003c729       ??0overflow_error@std@@QAE@ABV01@@Z 1003d729 f i libcpmt:xthrow.obj
 0001:0003c744       ??0overflow_error@std@@QAE@PBD@Z 1003d744 f i libcpmt:xthrow.obj
 0001:0003c763       ??0regex_error@std@@QAE@ABV01@@Z 1003d763 f i libcpmt:xthrow.obj
 0001:0003c787       ??0regex_error@std@@QAE@W4error_type@regex_constants@1@@Z 1003d787 f i libcpmt:xthrow.obj
 0001:0003c7b5       ??0runtime_error@std@@QAE@ABV01@@Z 1003d7b5 f i libcpmt:xthrow.obj
 0001:0003c7d0       ??0runtime_error@std@@QAE@PBD@Z 1003d7d0 f i libcpmt:xthrow.obj
 0001:0003c7ef       ??1bad_function_call@std@@UAE@XZ 1003d7ef f i libcpmt:xthrow.obj
 0001:0003c800       ??1invalid_argument@std@@UAE@XZ 1003d800 f i libcpmt:xthrow.obj
 0001:0003c811       ??1length_error@std@@UAE@XZ 1003d811 f i libcpmt:xthrow.obj
 0001:0003c822       ??1logic_error@std@@UAE@XZ 1003d822 f i libcpmt:xthrow.obj
 0001:0003c833       ??1out_of_range@std@@UAE@XZ 1003d833 f i libcpmt:xthrow.obj
 0001:0003c844       ??1overflow_error@std@@UAE@XZ 1003d844 f i libcpmt:xthrow.obj
 0001:0003c855       ??1regex_error@std@@UAE@XZ 1003d855 f i libcpmt:xthrow.obj
 0001:0003c866       ??1runtime_error@std@@UAE@XZ 1003d866 f i libcpmt:xthrow.obj
 0001:0003c877       ??_Ebad_function_call@std@@UAEPAXI@Z 1003d877 f i libcpmt:xthrow.obj
 0001:0003c877       ??_Gbad_function_call@std@@UAEPAXI@Z 1003d877 f i libcpmt:xthrow.obj
 0001:0003c8a4       ??_Einvalid_argument@std@@UAEPAXI@Z 1003d8a4 f i libcpmt:xthrow.obj
 0001:0003c8a4       ??_Ginvalid_argument@std@@UAEPAXI@Z 1003d8a4 f i libcpmt:xthrow.obj
 0001:0003c8d1       ??_Elength_error@std@@UAEPAXI@Z 1003d8d1 f i libcpmt:xthrow.obj
 0001:0003c8d1       ??_Glength_error@std@@UAEPAXI@Z 1003d8d1 f i libcpmt:xthrow.obj
 0001:0003c8fe       ??_Elogic_error@std@@UAEPAXI@Z 1003d8fe f i libcpmt:xthrow.obj
 0001:0003c8fe       ??_Glogic_error@std@@UAEPAXI@Z 1003d8fe f i libcpmt:xthrow.obj
 0001:0003c92b       ??_Eout_of_range@std@@UAEPAXI@Z 1003d92b f i libcpmt:xthrow.obj
 0001:0003c92b       ??_Gout_of_range@std@@UAEPAXI@Z 1003d92b f i libcpmt:xthrow.obj
 0001:0003c958       ??_Eoverflow_error@std@@UAEPAXI@Z 1003d958 f i libcpmt:xthrow.obj
 0001:0003c958       ??_Goverflow_error@std@@UAEPAXI@Z 1003d958 f i libcpmt:xthrow.obj
 0001:0003c985       ??_Eregex_error@std@@UAEPAXI@Z 1003d985 f i libcpmt:xthrow.obj
 0001:0003c985       ??_Gregex_error@std@@UAEPAXI@Z 1003d985 f i libcpmt:xthrow.obj
 0001:0003c9b2       ??_Eruntime_error@std@@UAEPAXI@Z 1003d9b2 f i libcpmt:xthrow.obj
 0001:0003c9b2       ??_Gruntime_error@std@@UAEPAXI@Z 1003d9b2 f i libcpmt:xthrow.obj
 0001:0003c9df       ?_Stringify@regex_error@std@@CAPBDW4error_type@regex_constants@2@@Z 1003d9df f i libcpmt:xthrow.obj
 0001:0003ca9f       ?_Xbad_alloc@std@@YAXXZ    1003da9f f   libcpmt:xthrow.obj
 0001:0003cabc       ?_Xbad_function_call@std@@YAXXZ 1003dabc f   libcpmt:xthrow.obj
 0001:0003cad9       ?_Xinvalid_argument@std@@YAXPBD@Z 1003dad9 f   libcpmt:xthrow.obj
 0001:0003caf9       ?_Xlength_error@std@@YAXPBD@Z 1003daf9 f   libcpmt:xthrow.obj
 0001:0003cb19       ?_Xout_of_range@std@@YAXPBD@Z 1003db19 f   libcpmt:xthrow.obj
 0001:0003cb39       ?_Xoverflow_error@std@@YAXPBD@Z 1003db39 f   libcpmt:xthrow.obj
 0001:0003cb59       ?_Xregex_error@std@@YAXW4error_type@regex_constants@1@@Z 1003db59 f   libcpmt:xthrow.obj
 0001:0003cb79       ?_Xruntime_error@std@@YAXPBD@Z 1003db79 f   libcpmt:xthrow.obj
 0001:0003cb99       ?what@bad_function_call@std@@UBEPBDXZ 1003db99 f i libcpmt:xthrow.obj
 0001:0003cba0       _memcpy                    1003dba0 f   libvcruntime:memcpy.obj
 0001:0003d120       _memset                    1003e120 f   libvcruntime:memset.obj
 0001:0003d27a       ??$?0AAViterator@TryBlockMap@__FrameHandler3@@AAV012@$0A@@?$pair@Viterator@TryBlockMap@__FrameHandler3@@V123@@std@@QAE@AAViterator@TryBlockMap@__FrameHandler3@@0@Z 1003e27a f i libvcruntime:trnsctrl.obj
 0001:0003d29e       ??$forward@AAViterator@TryBlockMap@__FrameHandler3@@@std@@YAAAViterator@TryBlockMap@__FrameHandler3@@AAV123@@Z 1003e29e f i libvcruntime:trnsctrl.obj
 0001:0003d2a6       ??0iterator@TryBlockMap@__FrameHandler3@@QAE@AAV12@I@Z 1003e2a6 f i libvcruntime:trnsctrl.obj
 0001:0003d2ba       ?GetRangeOfTrysToCheck@__FrameHandler3@@SA?AU?$pair@Viterator@TryBlockMap@__FrameHandler3@@V123@@std@@AAVTryBlockMap@1@HPAXPBU_s_FuncInfo@@H@Z 1003e2ba f   libvcruntime:trnsctrl.obj
 0001:0003d32a       ?_CallCatchBlock2@@YAPAXPAUEHRegistrationNode@@PBU_s_FuncInfo@@PAXHK@Z 1003e32a f   libvcruntime:trnsctrl.obj
 0001:0003d387       ?_CallSETranslator@@YAHPAUEHExceptionRecord@@PAUEHRegistrationNode@@PAX2PBU_s_FuncInfo@@H1@Z 1003e387 f   libvcruntime:trnsctrl.obj
 0001:0003d47d       ?_JumpToContinuation@@YGXPAXPAUEHRegistrationNode@@@Z 1003e47d f   libvcruntime:trnsctrl.obj
 0001:0003d4ad       ?_UnwindNestedFrames@@YGXPAUEHRegistrationNode@@PAUEHExceptionRecord@@@Z 1003e4ad f   libvcruntime:trnsctrl.obj
 0001:0003d500       __CatchGuardHandler        1003e500 f   libvcruntime:trnsctrl.obj
 0001:0003d531       __CreateFrameInfo          1003e531 f   libvcruntime:trnsctrl.obj
 0001:0003d555       __FindAndUnlinkFrame       1003e555 f   libvcruntime:trnsctrl.obj
 0001:0003d59d       __TranslatorGuardHandler   1003e59d f   libvcruntime:trnsctrl.obj
 0001:0003d63a       ___CxxFrameHandler         1003e63a f   libvcruntime:trnsctrl.obj
 0001:0003d670       ___CxxFrameHandler2        1003e670 f   libvcruntime:trnsctrl.obj
 0001:0003d6a6       ___CxxFrameHandler3        1003e6a6 f   libvcruntime:trnsctrl.obj
 0001:0003d6dc       ___CxxLongjmpUnwind@4      1003e6dc f   libvcruntime:trnsctrl.obj
 0001:0003d710       _memmove                   1003e710 f   libvcruntime:memmove.obj
 0001:0003dc84       ??$?RD@__crt_public_free_policy@@QBEXQBD@Z 1003ec84 f i libvcruntime:std_exception.obj
 0001:0003dc94       ??0?$__crt_unique_heap_ptr@DU__crt_public_free_policy@@@@QAE@QAD@Z 1003ec94 f i libvcruntime:std_exception.obj
 0001:0003dca2       ??1?$__crt_unique_heap_ptr@DU__crt_public_free_policy@@@@QAE@XZ 1003eca2 f i libvcruntime:std_exception.obj
 0001:0003dcb2       ??B?$__crt_unique_heap_ptr@DU__crt_public_free_policy@@@@QBE_NXZ 1003ecb2 f i libvcruntime:std_exception.obj
 0001:0003dcb9       ?detach@?$__crt_unique_heap_ptr@DU__crt_public_free_policy@@@@QAEPADXZ 1003ecb9 f i libvcruntime:std_exception.obj
 0001:0003dcbf       ?get@?$__crt_unique_heap_ptr@DU__crt_public_free_policy@@@@QBEPADXZ 1003ecbf f i libvcruntime:std_exception.obj
 0001:0003dcc2       ?is_valid@?$__crt_unique_heap_ptr@DU__crt_public_free_policy@@@@QBE_NXZ 1003ecc2 f i libvcruntime:std_exception.obj
 0001:0003dcc9       ?release@?$__crt_unique_heap_ptr@DU__crt_public_free_policy@@@@QAEXXZ 1003ecc9 f i libvcruntime:std_exception.obj
 0001:0003dcd9       ___std_exception_copy      1003ecd9 f   libvcruntime:std_exception.obj
 0001:0003dd3c       ___std_exception_destroy   1003ed3c f   libvcruntime:std_exception.obj
 0001:0003dd5b       __CxxThrowException@8      1003ed5b f   libvcruntime:throw.obj
 0001:0003de10       __except_handler4          1003ee10 f   libvcruntime:chandler4.obj
 0001:0003df70       _strchr                    1003ef70 f   libvcruntime:strchr.obj
 0001:0003dfde       ___from_strstr_to_strchr   1003efde     libvcruntime:strchr.obj
 0001:0003e0a0       _strstr                    1003f0a0 f   libvcruntime:strstr.obj
 0001:0003e428       _memcmp                    1003f428 f   libvcruntime:memcmp.obj
 0001:00041090       _strrchr                   10042090 f   libvcruntime:strrchr.obj
 0001:000411c7       ___DestructExceptionObject 100421c7 f   libvcruntime:ehhelpers.obj
 0001:00041268       ?_CallMemberFunction0@@YGXQAX0@Z 10042268 f i libvcruntime:ehhelpers.obj
 0001:000412cd       ?raw_name@type_info@@QBEPBDXZ 100422cd f i libvcruntime:ehhelpers.obj
 0001:000412d1       __IsExceptionObjectToBeDestroyed 100422d1 f   libvcruntime:ehhelpers.obj
 0001:000412f7       __SetWinRTOutOfMemoryExceptionCallback 100422f7 f   libvcruntime:ehhelpers.obj
 0001:00041304       ___AdjustPointer           10042304 f   libvcruntime:ehhelpers.obj
 0001:00041329       ___FrameUnwindFilter       10042329 f   libvcruntime:ehhelpers.obj
 0001:0004137f       ___GetPlatformExceptionInfo 1004237f f   libvcruntime:ehhelpers.obj
 0001:000413cb       ___current_exception       100423cb f   libvcruntime:ehhelpers.obj
 0001:000413d4       ___current_exception_context 100423d4 f   libvcruntime:ehhelpers.obj
 0001:000413dd       ___processing_throw        100423dd f   libvcruntime:ehhelpers.obj
 0001:000413e6       ___std_terminate           100423e6 f   libvcruntime:ehhelpers.obj
 0001:000413eb       __is_exception_typeof      100423eb f   libvcruntime:ehhelpers.obj
 0001:0004149d       ??$?RD@__crt_internal_free_policy@@QBEXQBD@Z 1004249d f i libvcruntime:std_type_info.obj
 0001:000414ad       ??$?RX@__crt_internal_free_policy@@QBEXQBX@Z 100424ad f i libvcruntime:std_type_info.obj
 0001:000414bd       ??$__crt_interlocked_compare_exchange_pointer@$$CBDPAD$$T@@YAPBDPDSBDQAD$$T@Z 100424bd f i libvcruntime:std_type_info.obj
 0001:000414cf       ??$__crt_interlocked_read_pointer@$$CBD@@YAPBDPDSBD@Z 100424cf f i libvcruntime:std_type_info.obj
 0001:000414da       ??0?$__crt_unique_heap_ptr@DU__crt_internal_free_policy@@@@QAE@QAD@Z 100424da f i libvcruntime:std_type_info.obj
 0001:000414e8       ??0?$__crt_unique_heap_ptr@XU__crt_internal_free_policy@@@@QAE@QAX@Z 100424e8 f i libvcruntime:std_type_info.obj
 0001:000414f6       ??1?$__crt_unique_heap_ptr@DU__crt_internal_free_policy@@@@QAE@XZ 100424f6 f i libvcruntime:std_type_info.obj
 0001:00041506       ??1?$__crt_unique_heap_ptr@XU__crt_internal_free_policy@@@@QAE@XZ 10042506 f i libvcruntime:std_type_info.obj
 0001:00041516       ??B?$__crt_unique_heap_ptr@DU__crt_internal_free_policy@@@@QBE_NXZ 10042516 f i libvcruntime:std_type_info.obj
 0001:0004151d       ??B?$__crt_unique_heap_ptr@XU__crt_internal_free_policy@@@@QBE_NXZ 1004251d f i libvcruntime:std_type_info.obj
 0001:00041550       ?__crt_interlocked_read_32@@YAHPDH@Z 10042550 f i libvcruntime:std_type_info.obj
 0001:0004155b       ?detach@?$__crt_unique_heap_ptr@XU__crt_internal_free_policy@@@@QAEPAXXZ 1004255b f i libvcruntime:std_type_info.obj
 0001:00041561       ?get@?$__crt_unique_heap_ptr@DU__crt_internal_free_policy@@@@QBEPADXZ 10042561 f i libvcruntime:std_type_info.obj
 0001:00041564       ?get@?$__crt_unique_heap_ptr@XU__crt_internal_free_policy@@@@QBEPAXXZ 10042564 f i libvcruntime:std_type_info.obj
 0001:00041567       ?is_valid@?$__crt_unique_heap_ptr@DU__crt_internal_free_policy@@@@QBE_NXZ 10042567 f i libvcruntime:std_type_info.obj
 0001:0004156e       ?is_valid@?$__crt_unique_heap_ptr@XU__crt_internal_free_policy@@@@QBE_NXZ 1004256e f i libvcruntime:std_type_info.obj
 0001:00041575       ?release@?$__crt_unique_heap_ptr@DU__crt_internal_free_policy@@@@QAEXXZ 10042575 f i libvcruntime:std_type_info.obj
 0001:00041585       ?release@?$__crt_unique_heap_ptr@XU__crt_internal_free_policy@@@@QAEXXZ 10042585 f i libvcruntime:std_type_info.obj
 0001:00041595       ___std_type_info_compare   10042595 f   libvcruntime:std_type_info.obj
 0001:000415d1       ___std_type_info_destroy_list 100425d1 f   libvcruntime:std_type_info.obj
 0001:000415f4       ___std_type_info_hash      100425f4 f   libvcruntime:std_type_info.obj
 0001:0004161a       ___std_type_info_name      1004261a f   libvcruntime:std_type_info.obj
 0001:000416e0       ___vcrt_initialize         100426e0 f   libvcruntime:initialization.obj
 0001:000416ff       ___vcrt_thread_attach      100426ff f   libvcruntime:initialization.obj
 0001:0004170a       ___vcrt_thread_detach      1004270a f   libvcruntime:initialization.obj
 0001:00041715       ___vcrt_uninitialize       10042715 f   libvcruntime:initialization.obj
 0001:0004172c       ___vcrt_uninitialize_critical 1004272c f   libvcruntime:initialization.obj
 0001:00041737       ??$?RU__vcrt_ptd@@@__crt_internal_free_policy@@QBEXQBU__vcrt_ptd@@@Z 10042737 f i libvcruntime:per_thread_data.obj
 0001:00041747       ??0?$__crt_unique_heap_ptr@U__vcrt_ptd@@U__crt_internal_free_policy@@@@QAE@QAU__vcrt_ptd@@@Z 10042747 f i libvcruntime:per_thread_data.obj
 0001:00041764       ??1?$__crt_unique_heap_ptr@U__vcrt_ptd@@U__crt_internal_free_policy@@@@QAE@XZ 10042764 f i libvcruntime:per_thread_data.obj
 0001:0004177d       ??B?$__crt_unique_heap_ptr@U__vcrt_ptd@@U__crt_internal_free_policy@@@@QBE_NXZ 1004277d f i libvcruntime:per_thread_data.obj
 0001:00041784       ?detach@?$__crt_unique_heap_ptr@U__vcrt_ptd@@U__crt_internal_free_policy@@@@QAEPAU__vcrt_ptd@@XZ 10042784 f i libvcruntime:per_thread_data.obj
 0001:0004178a       ?get@?$__crt_unique_heap_ptr@U__vcrt_ptd@@U__crt_internal_free_policy@@@@QBEPAU__vcrt_ptd@@XZ 1004278a f i libvcruntime:per_thread_data.obj
 0001:0004178d       ?is_valid@?$__crt_unique_heap_ptr@U__vcrt_ptd@@U__crt_internal_free_policy@@@@QBE_NXZ 1004278d f i libvcruntime:per_thread_data.obj
 0001:00041794       ?release@?$__crt_unique_heap_ptr@U__vcrt_ptd@@U__crt_internal_free_policy@@@@QAEXXZ 10042794 f i libvcruntime:per_thread_data.obj
 0001:000417be       ___vcrt_freefls@4          100427be f   libvcruntime:per_thread_data.obj
 0001:000417da       ___vcrt_freeptd            100427da f   libvcruntime:per_thread_data.obj
 0001:00041810       ___vcrt_getptd             10042810 f   libvcruntime:per_thread_data.obj
 0001:0004181e       ___vcrt_getptd_noexit      1004281e f   libvcruntime:per_thread_data.obj
 0001:000418b0       ___vcrt_getptd_noinit      100428b0 f   libvcruntime:per_thread_data.obj
 0001:000418e7       ___vcrt_initialize_ptd     100428e7 f   libvcruntime:per_thread_data.obj
 0001:0004191a       ___vcrt_uninitialize_ptd   1004291a f   libvcruntime:per_thread_data.obj
 0001:00042067       ??$TypeMatchHelper@V__FrameHandler3@@@@YAHPBU_s_HandlerType@@PBU_s_CatchableType@@PBU_s_ThrowInfo@@@Z 10043067 f i libvcruntime:frame.obj
 0001:000420f5       ??$__InternalCxxFrameHandler@V__FrameHandler3@@@@YA?AW4_EXCEPTION_DISPOSITION@@PAUEHExceptionRecord@@PAUEHRegistrationNode@@PAU_CONTEXT@@PAXPBU_s_FuncInfo@@H1E@Z 100430f5 f i libvcruntime:frame.obj
 0001:000421f7       ??0HandlerMap@__FrameHandler3@@QAE@PBU_s_TryBlockMapEntry@@II@Z 100431f7 f i libvcruntime:frame.obj
 0001:0004220e       ??0TryBlockMap@__FrameHandler3@@QAE@PBU_s_FuncInfo@@I@Z 1004320e f i libvcruntime:frame.obj
 0001:00042222       ??0bad_exception@std@@QAE@ABV01@@Z 10043222 f i libvcruntime:frame.obj
 0001:0004223d       ??0bad_exception@std@@QAE@XZ 1004323d f i libvcruntime:frame.obj
 0001:00042255       ??0iterator@HandlerMap@__FrameHandler3@@QAE@AAV12@I@Z 10043255 f i libvcruntime:frame.obj
 0001:00042269       ??1bad_exception@std@@UAE@XZ 10043269 f i libvcruntime:frame.obj
 0001:0004227a       ??8iterator@HandlerMap@__FrameHandler3@@QBE_NABV012@@Z 1004327a f i libvcruntime:frame.obj
 0001:0004228d       ??8type_info@@QBE_NABV0@@Z 1004328d f i libvcruntime:frame.obj
 0001:000422ac       ??9iterator@HandlerMap@__FrameHandler3@@QBE_NABV012@@Z 100432ac f i libvcruntime:frame.obj
 0001:000422bf       ??Diterator@HandlerMap@__FrameHandler3@@QAE?BU_s_HandlerType@@XZ 100432bf f i libvcruntime:frame.obj
 0001:000422de       ??Diterator@TryBlockMap@__FrameHandler3@@QAE?BU_s_TryBlockMapEntry@@XZ 100432de f i libvcruntime:frame.obj
 0001:00042300       ??Eiterator@HandlerMap@__FrameHandler3@@QAEAAV012@XZ 10043300 f i libvcruntime:frame.obj
 0001:00042306       ??Eiterator@TryBlockMap@__FrameHandler3@@QAEAAV012@XZ 10043306 f i libvcruntime:frame.obj
 0001:0004230c       ??Miterator@TryBlockMap@__FrameHandler3@@QBE_NABV012@@Z 1004330c f i libvcruntime:frame.obj
 0001:0004231f       ??_Ebad_exception@std@@UAEPAXI@Z 1004331f f i libvcruntime:frame.obj
 0001:0004231f       ??_Gbad_exception@std@@UAEPAXI@Z 1004331f f i libvcruntime:frame.obj
 0001:0004234c       ?BuildCatchObject@__FrameHandler3@@SAXPAUEHExceptionRecord@@PAXPBU_s_HandlerType@@PBU_s_CatchableType@@@Z 1004334c f   libvcruntime:frame.obj
 0001:00042351       ?BuildCatchObjectHelper@__FrameHandler3@@SAHPAUEHExceptionRecord@@PAXPBU_s_HandlerType@@PBU_s_CatchableType@@@Z 10043351 f   libvcruntime:frame.obj
 0001:000425b2       ?FrameUnwindToEmptyState@__FrameHandler3@@SAXPAUEHRegistrationNode@@PAXPBU_s_FuncInfo@@@Z 100435b2 f   libvcruntime:frame.obj
 0001:000425ca       ?FrameUnwindToState@__FrameHandler3@@SAXPAUEHRegistrationNode@@PAXPBU_s_FuncInfo@@H@Z 100435ca f   libvcruntime:frame.obj
 0001:000426b2       ?GetMaxState@__FrameHandler3@@SAHPAXPBU_s_FuncInfo@@@Z 100436b2 f i libvcruntime:frame.obj
 0001:00042790       ?TypeMatch@__FrameHandler3@@SAHPBU_s_HandlerType@@PBU_s_CatchableType@@PBU_s_ThrowInfo@@@Z 10043790 f   libvcruntime:frame.obj
 0001:00042799       ?_CallMemberFunction1@@YGXQAX00@Z 10043799 f i libvcruntime:frame.obj
 0001:000427a9       ?_CallMemberFunction2@@YGXQAX00H@Z 100437a9 f i libvcruntime:frame.obj
 0001:000427bc       ?begin@HandlerMap@__FrameHandler3@@QAE?AViterator@12@XZ 100437bc f i libvcruntime:frame.obj
 0001:000427cc       ?end@HandlerMap@__FrameHandler3@@QAE?AViterator@12@XZ 100437cc f i libvcruntime:frame.obj
 0001:000427dd       ?getESTypes@__FrameHandler3@@SAPBU_s_ESTypeList@@PBU_s_FuncInfo@@@Z 100437dd f i libvcruntime:frame.obj
 0001:000427e8       ?getLastEntry@HandlerMap@__FrameHandler3@@QAEPBU_s_HandlerType@@XZ 100437e8 f i libvcruntime:frame.obj
 0001:000427f6       ?getMagicNum@__FrameHandler3@@SAIPBU_s_FuncInfo@@@Z 100437f6 f i libvcruntime:frame.obj
 0001:00042805       ?getNumTryBlocks@TryBlockMap@__FrameHandler3@@QAEIXZ 10043805 f i libvcruntime:frame.obj
 0001:0004280b       ?isEHs@__FrameHandler3@@SA_NPBU_s_FuncInfo@@@Z 1004380b f i libvcruntime:frame.obj
 0001:00042818       ?isNoExcept@__FrameHandler3@@SA_NPBU_s_FuncInfo@@@Z 10043818 f i libvcruntime:frame.obj
 0001:00042828       ___BuildCatchObject        10043828 f   libvcruntime:frame.obj
 0001:0004282d       ___BuildCatchObjectHelper  1004382d f   libvcruntime:frame.obj
 0001:00042836       ___TypeMatch               10043836 f   libvcruntime:frame.obj
 0001:0004283f       ___vcrt_EncodePointer      1004383f f i libvcruntime:frame.obj
 0001:00042850       __CallSettingFrame@12      10043850 f   libvcruntime:lowhelpr.obj
 0001:00042877       __NLG_Return               10043877     libvcruntime:lowhelpr.obj
 0001:000428a7       ___except_validate_context_record 100438a7 f   libvcruntime:jbcxrval.obj
 0001:000428d7       ___except_validate_jump_buffer 100438d7 f   libvcruntime:jbcxrval.obj
 0001:00042904       ___except_validate_jump_buffer_common 10043904 f i libvcruntime:jbcxrval.obj
 0001:00042940       __local_unwind4            10043940 f   libvcruntime:exsup4.obj
 0001:00042a30       __seh_longjmp_unwind4@4    10043a30 f   libvcruntime:exsup4.obj
 0001:00042a60       @_EH4_CallFilterFunc@8     10043a60 f   libvcruntime:exsup4.obj
 0001:00042a80       @_EH4_TransferToHandler@8  10043a80 f   libvcruntime:exsup4.obj
 0001:00042aa0       @_EH4_GlobalUnwind2@8      10043aa0 f   libvcruntime:exsup4.obj
 0001:00042ac0       @_EH4_LocalUnwind@16       10043ac0 f   libvcruntime:exsup4.obj
 0001:00042ad7       ??$?0$00@DName@@QAE@PBDU?$StringLifeSelector@$00@@@Z 10043ad7 f i libvcruntime:undname.obj
 0001:00042b0a       ??$?0$00@pcharNode@@QAE@PBDHU?$StringLifeSelector@$00@@@Z 10043b0a f i libvcruntime:undname.obj
 0001:00042b25       ??$?0$01@DName@@QAE@PBDU?$StringLifeSelector@$01@@@Z 10043b25 f i libvcruntime:undname.obj
 0001:00042b58       ??$?0$01@pcharNode@@QAE@PBDHU?$StringLifeSelector@$01@@@Z 10043b58 f i libvcruntime:undname.obj
 0001:00042b98       ??$?0$0A@@DName@@QAE@PBDU?$StringLifeSelector@$0A@@@@Z 10043b98 f i libvcruntime:undname.obj
 0001:00042bcb       ??$?0$0A@@pcharNode@@QAE@PBDHU?$StringLifeSelector@$0A@@@@Z 10043bcb f i libvcruntime:undname.obj
 0001:00042c0b       ??$?0_K$0A@@?$optional@_K@std@@QAE@$$QA_K@Z 10043c0b f i libvcruntime:undname.obj
 0001:00042c25       ??$?0_K@?$_Optional_construct_base@_K@std@@QAE@Uin_place_t@1@$$QA_K@Z 10043c25 f i libvcruntime:undname.obj
 0001:00042c3f       ??$?0_K@?$_Optional_destruct_base@_K$00@std@@QAE@Uin_place_t@1@$$QA_K@Z 10043c3f f i libvcruntime:undname.obj
 0001:00042c59       ??$append@VDNameNode@@@DName@@AAEXPBVDNameNode@@@Z 10043c59 f i libvcruntime:undname.obj
 0001:00042c9a       ??$append@VDNameStatusNode@@@DName@@AAEXPBVDNameStatusNode@@@Z 10043c9a f i libvcruntime:undname.obj
 0001:00042cdb       ??$append@VcharNode@@@DName@@AAEXPBVcharNode@@@Z 10043cdb f i libvcruntime:undname.obj
 0001:00042d1c       ??$append@VpDNameNode@@@DName@@AAEXPBVpDNameNode@@@Z 10043d1c f i libvcruntime:undname.obj
 0001:00042d5d       ??$append@VpcharNode@@@DName@@AAEXPBVpcharNode@@@Z 10043d5d f i libvcruntime:undname.obj
 0001:00042d9e       ??$doPchar@$00@DName@@AAEXPBDH@Z 10043d9e f i libvcruntime:undname.obj
 0001:00042e09       ??$doPchar@$01@DName@@AAEXPBDH@Z 10043e09 f i libvcruntime:undname.obj
 0001:00042e7a       ??$doPchar@$0A@@DName@@AAEXPBDH@Z 10043e7a f i libvcruntime:undname.obj
 0001:00042eeb       ??$forward@_K@std@@YA$$QA_KAA_K@Z 10043eeb f i libvcruntime:undname.obj
 0001:00042faf       ??$size@D$04@std@@YAIAAY04$$CBD@Z 10043faf f i libvcruntime:undname.obj
 0001:00042fb3       ??0?$_Optional_construct_base@_K@std@@QAE@XZ 10043fb3 f i libvcruntime:undname.obj
 0001:00042fba       ??0?$_Optional_destruct_base@_K$00@std@@QAE@XZ 10043fba f i libvcruntime:undname.obj
 0001:00042fc1       ??0?$optional@_K@std@@QAE@XZ 10043fc1 f i libvcruntime:undname.obj
 0001:00042fc8       ??0Block@_HeapManager@@QAE@XZ 10043fc8 f i libvcruntime:undname.obj
 0001:00042fcf       ??0DName@@QAE@AAPBDD@Z     10043fcf f   libvcruntime:undname.obj
 0001:0004304f       ??0DName@@QAE@ABUStringLiteral@@@Z 1004404f f   libvcruntime:undname.obj
 0001:00043076       ??0DName@@QAE@ABV0@@Z      10044076 f i libvcruntime:undname.obj
 0001:0004308c       ??0DName@@QAE@D@Z          1004408c f   libvcruntime:undname.obj
 0001:000430a8       ??0DName@@QAE@PAV0@@Z      100440a8 f   libvcruntime:undname.obj
 0001:000430f1       ??0DName@@QAE@W4DNameStatus@@@Z 100440f1 f   libvcruntime:undname.obj
 0001:00043131       ??0DName@@QAE@XZ           10044131 f i libvcruntime:undname.obj
 0001:0004313b       ??0DName@@QAE@_J@Z         1004413b f   libvcruntime:undname.obj
 0001:000431ce       ??0DName@@QAE@_K@Z         100441ce f   libvcruntime:undname.obj
 0001:00043240       ??0DNameNode@@IAE@XZ       10044240 f i libvcruntime:undname.obj
 0001:00043249       ??0Replicator@@QAE@XZ      10044249 f i libvcruntime:undname.obj
 0001:00043258       ??0UnDecorator@@QAE@PBDP6APADJ@ZK@Z 10044258 f i libvcruntime:undname.obj
 0001:000432a4       ??0_Nontrivial_dummy_type@std@@QAE@XZ 100442a4 f i libvcruntime:undname.obj
 0001:000432a7       ??0charNode@@QAE@D@Z       100442a7 f i libvcruntime:undname.obj
 0001:000432bc       ??0pDNameNode@@QAE@PAVDName@@@Z 100442bc f   libvcruntime:undname.obj
 0001:000432e4       ??0pairNode@@QAE@PBVDNameNode@@0@Z 100442e4 f i libvcruntime:undname.obj
 0001:0004330a       ??2@YAPAXIAAV_HeapManager@@H@Z 1004430a f   libvcruntime:undname.obj
 0001:00043329       ??4DName@@QAEAAV0@ABUStringLiteral@@@Z 10044329 f   libvcruntime:undname.obj
 0001:0004334a       ??4DName@@QAEAAV0@ABV0@@Z  1004434a f   libvcruntime:undname.obj
 0001:00043360       ??4DName@@QAEAAV0@D@Z      10044360 f i libvcruntime:undname.obj
 0001:0004337c       ??4DName@@QAEAAV0@PAV0@@Z  1004437c f   libvcruntime:undname.obj
 0001:000433bf       ??4DName@@QAEAAV0@W4DNameStatus@@@Z 100443bf f   libvcruntime:undname.obj
 0001:000433f1       ??AReplicator@@QBE?AVDName@@H@Z 100443f1 f   libvcruntime:undname.obj
 0001:0004342d       ??B?$optional@_K@std@@QBE_NXZ 1004442d f i libvcruntime:undname.obj
 0001:00043431       ??D?$_Optional_construct_base@_K@std@@QGAEAA_KXZ 10044431 f i libvcruntime:undname.obj
 0001:00043434       ??H@YA?AVDName@@ABUStringLiteral@@ABV0@@Z 10044434 f i libvcruntime:undname.obj
 0001:00043456       ??H@YA?AVDName@@DABV0@@Z   10044456 f i libvcruntime:undname.obj
 0001:00043481       ??H@YA?AVDName@@W4DNameStatus@@ABV0@@Z 10044481 f i libvcruntime:undname.obj
 0001:000434a3       ??HDName@@QBE?AV0@ABUStringLiteral@@@Z 100444a3 f   libvcruntime:undname.obj
 0001:000434c5       ??HDName@@QBE?AV0@ABV0@@Z  100444c5 f   libvcruntime:undname.obj
 0001:000434e7       ??HDName@@QBE?AV0@D@Z      100444e7 f   libvcruntime:undname.obj
 0001:00043509       ??HDName@@QBE?AV0@PAV0@@Z  10044509 f   libvcruntime:undname.obj
 0001:0004352b       ??HDName@@QBE?AV0@W4DNameStatus@@@Z 1004452b f   libvcruntime:undname.obj
 0001:0004354d       ??HStringLiteral@@QBE?AU0@H@Z 1004454d f i libvcruntime:undname.obj
 0001:00043567       ??YDName@@QAEAAV0@ABUStringLiteral@@@Z 10044567 f   libvcruntime:undname.obj
 0001:000435bf       ??YDName@@QAEAAV0@ABV0@@Z  100445bf f   libvcruntime:undname.obj
 0001:00043616       ??YDName@@QAEAAV0@D@Z      10044616 f   libvcruntime:undname.obj
 0001:0004366b       ??YDName@@QAEAAV0@PAV0@@Z  1004466b f   libvcruntime:undname.obj
 0001:000436cf       ??YDName@@QAEAAV0@W4DNameStatus@@@Z 100446cf f   libvcruntime:undname.obj
 0001:0004370f       ??YReplicator@@QAEAAV0@ABVDName@@@Z 1004470f f   libvcruntime:undname.obj
 0001:0004374f       ??_5DName@@QAEAAV0@ABV0@@Z 1004474f f   libvcruntime:undname.obj
 0001:0004376b       ??__K_l@@YA?AUStringLiteral@@PBDI@Z 1004476b f i libvcruntime:undname.obj
 0001:00043776       ?Constructor@_HeapManager@@QAEXP6APAXI@ZP6AXPAX@Z@Z 10044776 f i libvcruntime:undname.obj
 0001:00043793       ?Destructor@_HeapManager@@QAEXXZ 10044793 f i libvcruntime:undname.obj
 0001:000437d7       ?UScore@UnDecorator@@SA?AUStringLiteral@@W4Tokens@@@Z 100447d7 f   libvcruntime:undname.obj
 0001:000437fe       ?composeDeclaration@UnDecorator@@CA?AVDName@@ABV2@@Z 100447fe f i libvcruntime:undname.obj
 0001:000444f6       ?doAccessSpecifiers@UnDecorator@@SAHXZ 100454f6 f i libvcruntime:undname.obj
 0001:00044504       ?doAllocationLanguage@UnDecorator@@SAHXZ 10045504 f i libvcruntime:undname.obj
 0001:00044512       ?doAllocationModel@UnDecorator@@SAHXZ 10045512 f i libvcruntime:undname.obj
 0001:00044520       ?doEcsu@UnDecorator@@SAHXZ 10045520 f i libvcruntime:undname.obj
 0001:0004452e       ?doEllipsis@UnDecorator@@SAHXZ 1004552e f i libvcruntime:undname.obj
 0001:0004453c       ?doFunctionReturns@UnDecorator@@SAHXZ 1004553c f i libvcruntime:undname.obj
 0001:0004454a       ?doMSKeywords@UnDecorator@@SAHXZ 1004554a f i libvcruntime:undname.obj
 0001:00044557       ?doMemberTypes@UnDecorator@@SAHXZ 10045557 f i libvcruntime:undname.obj
 0001:00044565       ?doNameOnly@UnDecorator@@SAHXZ 10045565 f i libvcruntime:undname.obj
 0001:00044570       ?doNoIdentCharCheck@UnDecorator@@SAHXZ 10045570 f i libvcruntime:undname.obj
 0001:0004457b       ?doPchar@DName@@AAEXD@Z    1004557b f   libvcruntime:undname.obj
 0001:000445b3       ?doPtr64@UnDecorator@@SAHXZ 100455b3 f i libvcruntime:undname.obj
 0001:000445c1       ?doRestrictionSpec@UnDecorator@@SAHXZ 100455c1 f i libvcruntime:undname.obj
 0001:000445cf       ?doThisTypes@UnDecorator@@SAHXZ 100455cf f i libvcruntime:undname.obj
 0001:000445e1       ?doThrowTypes@UnDecorator@@SAHXZ 100455e1 f i libvcruntime:undname.obj
 0001:000445ef       ?doTypeOnly@UnDecorator@@SAHXZ 100455ef f i libvcruntime:undname.obj
 0001:000445fa       ?doUnderScore@UnDecorator@@SAHXZ 100455fa f i libvcruntime:undname.obj
 0001:00044605       ?getAddressOf@UnDecorator@@CA?AVDName@@XZ 10045605 f   libvcruntime:undname.obj
 0001:0004466d       ?getArgumentList@UnDecorator@@CA?AVDName@@XZ 1004566d f   libvcruntime:undname.obj
 0001:000447d7       ?getArgumentTypes@UnDecorator@@CA?AVDName@@XZ 100457d7 f   libvcruntime:undname.obj
 0001:000448df       ?getArrayAccess@UnDecorator@@CA?AVDName@@XZ 100458df f   libvcruntime:undname.obj
 0001:00044953       ?getArrayObject@UnDecorator@@CA?AVDName@@XZ 10045953 f   libvcruntime:undname.obj
 0001:000449de       ?getArrayType@UnDecorator@@CA?AVDName@@ABV2@@Z 100459de f i libvcruntime:undname.obj
 0001:00044b7b       ?getBasedType@UnDecorator@@CA?AVDName@@XZ 10045b7b f   libvcruntime:undname.obj
 0001:00044c31       ?getBasicDataType@UnDecorator@@CA?AVDName@@ABV2@@Z 10045c31 f   libvcruntime:undname.obj
 0001:00045199       ?getCHPEName@UnDecorator@@QAEPADPADH@Z 10046199 f i libvcruntime:undname.obj
 0001:00045276       ?getCallIndex@UnDecorator@@CA?AVDName@@XZ 10046276 f i libvcruntime:undname.obj
 0001:0004528a       ?getCallingConvention@UnDecorator@@CA?AVDName@@XZ 1004628a f   libvcruntime:undname.obj
 0001:0004535f       ?getDataIndirectType@UnDecorator@@CA?AVDName@@ABV2@W4IndirectionKind@@0H@Z 1004635f f   libvcruntime:undname.obj
 0001:00045afc       ?getDataIndirectType@UnDecorator@@CA?AVDName@@XZ 10046afc f i libvcruntime:undname.obj
 0001:00045b2a       ?getDataType@UnDecorator@@CA?AVDName@@PAV2@@Z 10046b2a f   libvcruntime:undname.obj
 0001:00045c01       ?getDecoratedName@UnDecorator@@CA?AVDName@@XZ 10046c01 f   libvcruntime:undname.obj
 0001:00045e55       ?getDimension@UnDecorator@@CA?AVDName@@_N@Z 10046e55 f   libvcruntime:undname.obj
 0001:00045f63       ?getDispatchTarget@UnDecorator@@CA?AVDName@@XZ 10046f63 f   libvcruntime:undname.obj
 0001:00045fb6       ?getDisplacement@UnDecorator@@CA?AVDName@@XZ 10046fb6 f i libvcruntime:undname.obj
 0001:00045fca       ?getECSUDataType@UnDecorator@@CA?AVDName@@XZ 10046fca f   libvcruntime:undname.obj
 0001:0004615c       ?getECSUName@UnDecorator@@CA?AVDName@@XZ 1004715c f i libvcruntime:undname.obj
 0001:0004616d       ?getEnumType@UnDecorator@@CA?AVDName@@XZ 1004716d f i libvcruntime:undname.obj
 0001:00046281       ?getExtendedDataIndirectType@UnDecorator@@CA?AVDName@@AAW4IndirectionKind@@AA_NH@Z 10047281 f   libvcruntime:undname.obj
 0001:0004642c       ?getExternalDataType@UnDecorator@@CA?AVDName@@ABV2@@Z 1004742c f i libvcruntime:undname.obj
 0001:00046491       ?getFloatingPoint@UnDecorator@@CA?AVDName@@H@Z 10047491 f   libvcruntime:undname.obj
 0001:0004654f       ?getFunctionIndirectType@UnDecorator@@CA?AVDName@@ABV2@@Z 1004754f f   libvcruntime:undname.obj
 0001:000468f9       ?getGuardNumber@UnDecorator@@CA?AVDName@@XZ 100478f9 f i libvcruntime:undname.obj
 0001:0004690d       ?getLastChar@DName@@QBEDXZ 1004790d f i libvcruntime:undname.obj
 0001:0004692d       ?getLastChar@DNameStatusNode@@UBEDXZ 1004792d f i libvcruntime:undname.obj
 0001:00046939       ?getLastChar@charNode@@UBEDXZ 10047939 f i libvcruntime:undname.obj
 0001:0004693d       ?getLastChar@pDNameNode@@UBEDXZ 1004793d f i libvcruntime:undname.obj
 0001:0004694b       ?getLastChar@pairNode@@UBEDXZ 1004794b f i libvcruntime:undname.obj
 0001:00046980       ?getLastChar@pcharNode@@UBEDXZ 10047980 f i libvcruntime:undname.obj
 0001:00046992       ?getLexicalFrame@UnDecorator@@CA?AVDName@@XZ 10047992 f i libvcruntime:undname.obj
 0001:000469c3       ?getMemberAccess@UnDecorator@@CA?AVDName@@XZ 100479c3 f   libvcruntime:undname.obj
 0001:00046a33       ?getMemoryWithBuffer@_HeapManager@@QAEPAXI@Z 10047a33 f   libvcruntime:undname.obj
 0001:00046a9d       ?getMemoryWithoutBuffer@_HeapManager@@QAEPAXI@Z 10047a9d f   libvcruntime:undname.obj
 0001:00046abd       ?getNoexcept@UnDecorator@@CA?AVDName@@XZ 10047abd f   libvcruntime:undname.obj
 0001:00046b11       ?getNumberOfDimensions@UnDecorator@@CAHXZ 10047b11 f   libvcruntime:undname.obj
 0001:00046b74       ?getOperatorName@UnDecorator@@CA?AVDName@@_NPA_N@Z 10047b74 f i libvcruntime:undname.obj
 0001:0004748a       ?getPointerToMember@UnDecorator@@CA?AVDName@@XZ 1004848a f   libvcruntime:undname.obj
 0001:00047546       ?getPointerType@UnDecorator@@CA?AVDName@@ABV2@0@Z 10048546 f i libvcruntime:undname.obj
 0001:00047561       ?getPointerTypeArray@UnDecorator@@CA?AVDName@@ABV2@0@Z 10048561 f i libvcruntime:undname.obj
 0001:0004757c       ?getPrimaryDataType@UnDecorator@@CA?AVDName@@ABV2@@Z 1004857c f   libvcruntime:undname.obj
 0001:000477ca       ?getPtrRefDataType@UnDecorator@@CA?AVDName@@ABV2@H@Z 100487ca f   libvcruntime:undname.obj
 0001:00047937       ?getPtrRefType@UnDecorator@@CA?AVDName@@ABV2@0W4IndirectionKind@@@Z 10048937 f   libvcruntime:undname.obj
 0001:00047a48       ?getReferenceType@UnDecorator@@CA?AVDName@@ABV2@0W4IndirectionKind@@@Z 10048a48 f i libvcruntime:undname.obj
 0001:00047a64       ?getRestrictionSpec@UnDecorator@@CA?AVDName@@XZ 10048a64 f   libvcruntime:undname.obj
 0001:00047b89       ?getReturnType@UnDecorator@@CA?AVDName@@PAV2@@Z 10048b89 f   libvcruntime:undname.obj
 0001:00047bb8       ?getScope@UnDecorator@@CA?AVDName@@XZ 10048bb8 f   libvcruntime:undname.obj
 0001:00047f76       ?getScopedName@UnDecorator@@CA?AVDName@@XZ 10048f76 f   libvcruntime:undname.obj
 0001:00048069       ?getSignedDimension@UnDecorator@@CA?AVDName@@XZ 10049069 f   libvcruntime:undname.obj
 0001:000480ba       ?getStorageConvention@UnDecorator@@CA?AVDName@@XZ 100490ba f i libvcruntime:undname.obj
 0001:000480cb       ?getString@DName@@QBEPADPAD0@Z 100490cb f i libvcruntime:undname.obj
 0001:000480f8       ?getString@DName@@QBEPADPADH@Z 100490f8 f i libvcruntime:undname.obj
 0001:0004814d       ?getString@DNameStatusNode@@UBEPADPAD0@Z 1004914d f i libvcruntime:undname.obj
 0001:00048194       ?getString@charNode@@UBEPADPAD0@Z 10049194 f i libvcruntime:undname.obj
 0001:000481a9       ?getString@pDNameNode@@UBEPADPAD0@Z 100491a9 f i libvcruntime:undname.obj
 0001:000481c0       ?getString@pairNode@@UBEPADPAD0@Z 100491c0 f i libvcruntime:undname.obj
 0001:00048206       ?getString@pcharNode@@UBEPADPAD0@Z 10049206 f i libvcruntime:undname.obj
 0001:00048221       ?getStringEncoding@UnDecorator@@CA?AVDName@@W4PrefixKind@@H@Z 10049221 f   libvcruntime:undname.obj
 0001:000482be       ?getStringHelper@@YAPADPADPBD1H@Z 100492be f i libvcruntime:undname.obj
 0001:000482e8       ?getStringObject@UnDecorator@@CA?AVDName@@XZ 100492e8 f   libvcruntime:undname.obj
 0001:00048333       ?getSymbolName@UnDecorator@@CA?AVDName@@XZ 10049333 f i libvcruntime:undname.obj
 0001:0004837b       ?getTemplateArgumentList@UnDecorator@@CA?AVDName@@XZ 1004937b f   libvcruntime:undname.obj
 0001:0004852b       ?getTemplateName@UnDecorator@@CA?AVDName@@_N@Z 1004952b f   libvcruntime:undname.obj
 0001:0004868b       ?getTemplateNonTypeArgument@UnDecorator@@CA?AVDName@@XZ 1004968b f   libvcruntime:undname.obj
 0001:00048a63       ?getTemplateTypeArgument@UnDecorator@@CA?AVDName@@XZ 10049a63 f   libvcruntime:undname.obj
 0001:00048b74       ?getThisType@UnDecorator@@CA?AVDName@@XZ 10049b74 f i libvcruntime:undname.obj
 0001:00048ba3       ?getThrowTypes@UnDecorator@@CA?AVDName@@XZ 10049ba3 f   libvcruntime:undname.obj
 0001:00048bc6       ?getTypeEncoding@UnDecorator@@CAHXZ 10049bc6 f i libvcruntime:undname.obj
 0001:00048efe       ?getUndecoratedName@UnDecorator@@QAEPADPADH@Z 10049efe f i libvcruntime:undname.obj
 0001:0004901d       ?getUnionObject@UnDecorator@@CA?AVDName@@XZ 1004a01d f   libvcruntime:undname.obj
 0001:000490c4       ?getVCallThunkType@UnDecorator@@CA?AVDName@@XZ 1004a0c4 f i libvcruntime:undname.obj
 0001:0004910e       ?getValue@UnDecorator@@CA?AV?$optional@_K@std@@XZ 1004a10e f   libvcruntime:undname.obj
 0001:00049196       ?getValueObject@UnDecorator@@CA?AVDName@@XZ 1004a196 f   libvcruntime:undname.obj
 0001:00049290       ?getVbTableType@UnDecorator@@CA?AVDName@@ABV2@@Z 1004a290 f i libvcruntime:undname.obj
 0001:000492a5       ?getVdispMapType@UnDecorator@@CA?AVDName@@ABV2@@Z 1004a2a5 f i libvcruntime:undname.obj
 0001:00049306       ?getVfTableType@UnDecorator@@CA?AVDName@@ABV2@@Z 1004a306 f i libvcruntime:undname.obj
 0001:0004945a       ?getZName@UnDecorator@@CA?AVDName@@_N0@Z 1004a45a f   libvcruntime:undname.obj
 0001:00049678       ?haveTemplateParameters@UnDecorator@@SAHXZ 1004a678 f i libvcruntime:undname.obj
 0001:00049683       ?isArray@DName@@QBEHXZ     1004a683 f i libvcruntime:undname.obj
 0001:0004968d       ?isComArray@DName@@QBEHXZ  1004a68d f i libvcruntime:undname.obj
 0001:00049697       ?isEmpty@DName@@QBEHXZ     1004a697 f i libvcruntime:undname.obj
 0001:0004969f       ?isFull@Replicator@@QBEHXZ 1004a69f f i libvcruntime:undname.obj
 0001:000496a8       ?isNoTE@DName@@QBEHXZ      1004a6a8 f i libvcruntime:undname.obj
 0001:000496b2       ?isPinPtr@DName@@QBEHXZ    1004a6b2 f i libvcruntime:undname.obj
 0001:000496bc       ?isPtrRef@DName@@QBEHXZ    1004a6bc f i libvcruntime:undname.obj
 0001:000496c6       ?isUDC@DName@@QBEHXZ       1004a6c6 f i libvcruntime:undname.obj
 0001:000496d7       ?isUDTThunk@DName@@QBEHXZ  1004a6d7 f i libvcruntime:undname.obj
 0001:000496e8       ?isVCallThunk@DName@@QBEHXZ 1004a6e8 f i libvcruntime:undname.obj
 0001:000496f2       ?isValid@DName@@QBEHXZ     1004a6f2 f i libvcruntime:undname.obj
 0001:000496fc       ?length@DName@@QBEHXZ      1004a6fc f i libvcruntime:undname.obj
 0001:0004971b       ?length@DNameStatusNode@@UBEHXZ 1004a71b f i libvcruntime:undname.obj
 0001:0004971f       ?length@charNode@@UBEHXZ   1004a71f f i libvcruntime:undname.obj
 0001:00049723       ?length@pDNameNode@@UBEHXZ 1004a723 f i libvcruntime:undname.obj
 0001:00049731       ?length@pairNode@@UBEHXZ   1004a731 f i libvcruntime:undname.obj
 0001:0004977a       ?length@pcharNode@@UBEHXZ  1004a77a f i libvcruntime:undname.obj
 0001:0004977e       ?make@DNameStatusNode@@SAPBV1@W4DNameStatus@@@Z 1004a77e f i libvcruntime:undname.obj
 0001:0004979a       ?parseDecoratedName@UnDecorator@@CA?AVDName@@XZ 1004a79a f   libvcruntime:undname.obj
 0001:00049894       ?raw_length@DNameStatusNode@@UBEHXZ 1004a894 f i libvcruntime:undname.obj
 0001:00049898       ?raw_length@charNode@@UBEHXZ 1004a898 f i libvcruntime:undname.obj
 0001:0004989c       ?raw_length@pDNameNode@@UBEHXZ 1004a89c f i libvcruntime:undname.obj
 0001:000498a0       ?raw_length@pairNode@@UBEHXZ 1004a8a0 f i libvcruntime:undname.obj
 0001:000498a4       ?raw_length@pcharNode@@UBEHXZ 1004a8a4 f i libvcruntime:undname.obj
 0001:000498a8       ?setIsArray@DName@@QAEXXZ  1004a8a8 f i libvcruntime:undname.obj
 0001:000498b0       ?setIsComArray@DName@@QAEXXZ 1004a8b0 f i libvcruntime:undname.obj
 0001:000498b8       ?setIsNoTE@DName@@QAEXXZ   1004a8b8 f i libvcruntime:undname.obj
 0001:000498c0       ?setIsPinPtr@DName@@QAEXXZ 1004a8c0 f i libvcruntime:undname.obj
 0001:000498c8       ?setIsUDC@DName@@QAEXXZ    1004a8c8 f i libvcruntime:undname.obj
 0001:000498d5       ?setIsVCallThunk@DName@@QAEXXZ 1004a8d5 f i libvcruntime:undname.obj
 0001:000498dd       ?setPtrRef@DName@@QAEAAV1@XZ 1004a8dd f i libvcruntime:undname.obj
 0001:000498e7       ?status@DName@@QBE?AW4DNameStatus@@XZ 1004a8e7 f i libvcruntime:undname.obj
 0001:00049953       ___unDName                 1004a953 f   libvcruntime:undname.obj
 0001:00049976       ___unDNameEx               1004a976 f   libvcruntime:undname.obj
 0001:00049a15       _snprintf                  1004aa15 f i libvcruntime:undname.obj
 0001:00049a2f       _unDNameGenerateCHPE       1004aa2f f   libvcruntime:undname.obj
 0001:00049acc       _vsnprintf                 1004aacc f i libvcruntime:undname.obj
 0001:00049afc       ___vcrt_initialize_locks   1004aafc f   libvcruntime:locks.obj
 0001:00049b38       ___vcrt_lock               1004ab38 f   libvcruntime:locks.obj
 0001:00049b4d       ___vcrt_uninitialize_locks 1004ab4d f   libvcruntime:locks.obj
 0001:00049b7c       ___vcrt_unlock             1004ab7c f   libvcruntime:locks.obj
 0001:00049b91       ??$__crt_interlocked_exchange_pointer@UHINSTANCE__@@PAU1@@@YAPAUHINSTANCE__@@PDSAU0@QAU0@@Z 1004ab91 f i libvcruntime:winapi_downlevel.obj
 0001:00049b9e       ??$__crt_interlocked_exchange_pointer@UHINSTANCE__@@PAX@@YAPAUHINSTANCE__@@PDSAU0@QAX@Z 1004ab9e f i libvcruntime:winapi_downlevel.obj
 0001:00049bab       ??$__crt_interlocked_exchange_pointer@XPAX@@YAPAXPDSAXQAX@Z 1004abab f i libvcruntime:winapi_downlevel.obj
 0001:00049bb8       ??$__crt_interlocked_read_pointer@UHINSTANCE__@@@@YAPAUHINSTANCE__@@PDSAU0@@Z 1004abb8 f i libvcruntime:winapi_downlevel.obj
 0001:00049bc3       ??$__crt_interlocked_read_pointer@X@@YAPAXPDSAX@Z 1004abc3 f i libvcruntime:winapi_downlevel.obj
 0001:00049e4f       ___vcrt_FlsAlloc           1004ae4f f   libvcruntime:winapi_downlevel.obj
 0001:00049e8a       ___vcrt_FlsFree            1004ae8a f   libvcruntime:winapi_downlevel.obj
 0001:00049ec5       ___vcrt_FlsGetValue        1004aec5 f   libvcruntime:winapi_downlevel.obj
 0001:00049f00       ___vcrt_FlsSetValue        1004af00 f   libvcruntime:winapi_downlevel.obj
 0001:00049f3e       ___vcrt_InitializeCriticalSectionEx 1004af3e f   libvcruntime:winapi_downlevel.obj
 0001:00049f99       __get_unexpected           1004af99 f   libvcruntime:unexpected.obj
 0001:00049fab       _set_unexpected            1004afab f   libvcruntime:unexpected.obj
 0001:00049fc9       _unexpected                1004afc9 f   libvcruntime:unexpected.obj
 0001:00049fe6       ?GetCurrentState@__FrameHandler3@@SAHPAUEHRegistrationNode@@PAXPBU_s_FuncInfo@@@Z 1004afe6 f   libvcruntime:ehstate.obj
 0001:0004a003       ?SetState@__FrameHandler3@@SAXPAUEHRegistrationNode@@PBU_s_FuncInfo@@H@Z 1004b003 f   libvcruntime:ehstate.obj
 0001:0004a020       __global_unwind2           1004b020 f   libvcruntime:exsup.obj
 0001:0004a0a0       __local_unwind2            1004b0a0 f   libvcruntime:exsup.obj
 0001:0004a140       __abnormal_termination     1004b140 f   libvcruntime:exsup.obj
 0001:0004a170       __NLG_Notify1              1004b170 f   libvcruntime:exsup.obj
 0001:0004a180       __NLG_Notify               1004b180 f   libvcruntime:exsup.obj
 0001:0004a197       __NLG_Dispatch             1004b197     libvcruntime:exsup.obj
 0001:0004a197       __NLG_Dispatch2            1004b197     libvcruntime:exsup.obj
 0001:0004a1a0       __NLG_Call                 1004b1a0 f   libvcruntime:exsup.obj
 0001:0004a1a2       __NLG_Return2              1004b1a2     libvcruntime:exsup.obj
 0001:0004a1a3       ??$__crt_interlocked_exchange_pointer@$$A6AXXZP6AXXZ@@YAP6AXXZPDS6AXXZQ6AXXZ@Z 1004b1a3 f i libvcruntime:purevirt.obj
 0001:0004a1b0       ??$__crt_interlocked_read_pointer@$$A6AXXZ@@YAP6AXXZPDS6AXXZ@Z 1004b1b0 f i libvcruntime:purevirt.obj
 0001:0004a1bb       __get_purecall_handler     1004b1bb f   libvcruntime:purevirt.obj
 0001:0004a1c2       __purecall                 1004b1c2 f   libvcruntime:purevirt.obj
 0001:0004a1de       __set_purecall_handler     1004b1de f   libvcruntime:purevirt.obj
 0001:0004a1ed       _malloc                    1004b1ed f   libucrt:malloc.obj
 0001:0004a1f8       _labs                      1004b1f8 f   libucrt:labs.obj
 0001:0004a207       ??$__crt_fast_decode_pointer@P6AXPB_W00II@Z@@YAP6AXPB_W00II@ZQ6AX000II@Z@Z 1004b207 f i libucrt:invalid_parameter.obj
 0001:0004a21d       ??$__crt_fast_encode_pointer@P6AXPB_W00II@Z@@YAP6AXPB_W00II@ZQ6AX000II@Z@Z 1004b21d f i libucrt:invalid_parameter.obj
 0001:0004a23c       ??$initialize_from_array@$$BY00Q6AXPB_W00II@Z@?$dual_state_global@P6AXPB_W00II@Z@__crt_state_management@@QAAXAAY00Q6AXPB_W00II@Z@Z 1004b23c f i libucrt:invalid_parameter.obj
 0001:0004a24d       ?__crt_rotate_pointer_value@@YAIIH@Z 1004b24d f i libucrt:invalid_parameter.obj
 0001:0004a25c       ?dangerous_get_state_array@?$dual_state_global@P6AXPB_W00II@Z@__crt_state_management@@QAEPAP6AXPB_W00II@ZXZ 1004b25c f i libucrt:invalid_parameter.obj
 0001:0004a25f       ?get_current_state_index@__crt_state_management@@YAIXZ 1004b25f f i libucrt:invalid_parameter.obj
 0001:0004a262       ?value@?$dual_state_global@P6AXPB_W00II@Z@__crt_state_management@@QAEAAP6AXPB_W00II@ZXZ 1004b262 f i libucrt:invalid_parameter.obj
 0001:0004a265       ___acrt_call_reportfault   1004b265 f   libucrt:invalid_parameter.obj
 0001:0004a39e       ___acrt_initialize_invalid_parameter_handler 1004b39e f   libucrt:invalid_parameter.obj
 0001:0004a3ad       __get_invalid_parameter_handler 1004b3ad f   libucrt:invalid_parameter.obj
 0001:0004a3c0       __get_thread_local_invalid_parameter_handler 1004b3c0 f   libucrt:invalid_parameter.obj
 0001:0004a3d1       __invalid_parameter        1004b3d1 f   libucrt:invalid_parameter.obj
 0001:0004a435       __invalid_parameter_noinfo 1004b435 f   libucrt:invalid_parameter.obj
 0001:0004a445       __invalid_parameter_noinfo_noreturn 1004b445 f   libucrt:invalid_parameter.obj
 0001:0004a462       __invoke_watson            1004b462 f   libucrt:invalid_parameter.obj
 0001:0004a496       __set_invalid_parameter_handler 1004b496 f   libucrt:invalid_parameter.obj
 0001:0004a4c6       __set_thread_local_invalid_parameter_handler 1004b4c6 f   libucrt:invalid_parameter.obj
 0001:0004a4e3       _free                      1004b4e3 f   libucrt:free.obj
 0001:0004a500       _sqrt                      1004b500 f   libucrt:sqrt.obj
 0001:0004a50e       ??$?0ABV?$stream_output_adapter@D@__crt_stdio_output@@AB_KABQBDABQAU__crt_locale_pointers@@ABQAD@?$format_validation_base@DV?$stream_output_adapter@D@__crt_stdio_output@@@__crt_stdio_output@@IAE@ABV?$stream_output_adapter@D@1@AB_KABQBDABQAU__crt_locale_pointers@@ABQAD@Z 1004b50e f i libucrt:output.obj
 0001:0004a531       ??$?0ABV?$stream_output_adapter@D@__crt_stdio_output@@AB_KABQBDABQAU__crt_locale_pointers@@ABQAD@?$positional_parameter_base@DV?$stream_output_adapter@D@__crt_stdio_output@@@__crt_stdio_output@@IAE@ABV?$stream_output_adapter@D@1@AB_KABQBDABQAU__crt_locale_pointers@@ABQAD@Z 1004b531 f i libucrt:output.obj
 0001:0004a579       ??$?0ABV?$stream_output_adapter@D@__crt_stdio_output@@AB_KABQBDABQAU__crt_locale_pointers@@ABQAD@?$standard_base@DV?$stream_output_adapter@D@__crt_stdio_output@@@__crt_stdio_output@@IAE@ABV?$stream_output_adapter@D@1@AB_KABQBDABQAU__crt_locale_pointers@@ABQAD@Z 1004b579 f i libucrt:output.obj
 0001:0004a5ae       ??$?0ABV?$stream_output_adapter@_W@__crt_stdio_output@@AB_KABQB_WABQAU__crt_locale_pointers@@ABQAD@?$format_validation_base@_WV?$stream_output_adapter@_W@__crt_stdio_output@@@__crt_stdio_output@@IAE@ABV?$stream_output_adapter@_W@1@AB_KABQB_WABQAU__crt_locale_pointers@@ABQAD@Z 1004b5ae f i libucrt:output.obj
 0001:0004a5d1       ??$?0ABV?$stream_output_adapter@_W@__crt_stdio_output@@AB_KABQB_WABQAU__crt_locale_pointers@@ABQAD@?$positional_parameter_base@_WV?$stream_output_adapter@_W@__crt_stdio_output@@@__crt_stdio_output@@IAE@ABV?$stream_output_adapter@_W@1@AB_KABQB_WABQAU__crt_locale_pointers@@ABQAD@Z 1004b5d1 f i libucrt:output.obj
 0001:0004a619       ??$?0ABV?$stream_output_adapter@_W@__crt_stdio_output@@AB_KABQB_WABQAU__crt_locale_pointers@@ABQAD@?$standard_base@_WV?$stream_output_adapter@_W@__crt_stdio_output@@@__crt_stdio_output@@IAE@ABV?$stream_output_adapter@_W@1@AB_KABQB_WABQAU__crt_locale_pointers@@ABQAD@Z 1004b619 f i libucrt:output.obj
 0001:0004a64e       ??$?0ABV?$string_output_adapter@D@__crt_stdio_output@@AB_KABQBDABQAU__crt_locale_pointers@@ABQAD@?$format_validation_base@DV?$string_output_adapter@D@__crt_stdio_output@@@__crt_stdio_output@@IAE@ABV?$string_output_adapter@D@1@AB_KABQBDABQAU__crt_locale_pointers@@ABQAD@Z 1004b64e f i libucrt:output.obj
 0001:0004a671       ??$?0ABV?$string_output_adapter@D@__crt_stdio_output@@AB_KABQBDABQAU__crt_locale_pointers@@ABQAD@?$positional_parameter_base@DV?$string_output_adapter@D@__crt_stdio_output@@@__crt_stdio_output@@IAE@ABV?$string_output_adapter@D@1@AB_KABQBDABQAU__crt_locale_pointers@@ABQAD@Z 1004b671 f i libucrt:output.obj
 0001:0004a6b9       ??$?0ABV?$string_output_adapter@D@__crt_stdio_output@@AB_KABQBDABQAU__crt_locale_pointers@@ABQAD@?$standard_base@DV?$string_output_adapter@D@__crt_stdio_output@@@__crt_stdio_output@@IAE@ABV?$string_output_adapter@D@1@AB_KABQBDABQAU__crt_locale_pointers@@ABQAD@Z 1004b6b9 f i libucrt:output.obj
 0001:0004a6ee       ??$?0ABV?$string_output_adapter@_W@__crt_stdio_output@@AB_KABQB_WABQAU__crt_locale_pointers@@ABQAD@?$format_validation_base@_WV?$string_output_adapter@_W@__crt_stdio_output@@@__crt_stdio_output@@IAE@ABV?$string_output_adapter@_W@1@AB_KABQB_WABQAU__crt_locale_pointers@@ABQAD@Z 1004b6ee f i libucrt:output.obj
 0001:0004a711       ??$?0ABV?$string_output_adapter@_W@__crt_stdio_output@@AB_KABQB_WABQAU__crt_locale_pointers@@ABQAD@?$positional_parameter_base@_WV?$string_output_adapter@_W@__crt_stdio_output@@@__crt_stdio_output@@IAE@ABV?$string_output_adapter@_W@1@AB_KABQB_WABQAU__crt_locale_pointers@@ABQAD@Z 1004b711 f i libucrt:output.obj
 0001:0004a759       ??$?0ABV?$string_output_adapter@_W@__crt_stdio_output@@AB_KABQB_WABQAU__crt_locale_pointers@@ABQAD@?$standard_base@_WV?$string_output_adapter@_W@__crt_stdio_output@@@__crt_stdio_output@@IAE@ABV?$string_output_adapter@_W@1@AB_KABQB_WABQAU__crt_locale_pointers@@ABQAD@Z 1004b759 f i libucrt:output.obj
 0001:0004aa94       ??$__crt_interlocked_read@J@@YAJPDJ@Z 1004ba94 f i libucrt:output.obj
 0001:0004b960       ??$count@D@formatting_buffer@__crt_stdio_output@@QBEIXZ 1004c960 f i libucrt:output.obj
 0001:0004b978       ??$count@_W@formatting_buffer@__crt_stdio_output@@QBEIXZ 1004c978 f i libucrt:output.obj
 0001:0004b991       ??$data@D@formatting_buffer@__crt_stdio_output@@QAEPADXZ 1004c991 f i libucrt:output.obj
 0001:0004b99e       ??$data@_W@formatting_buffer@__crt_stdio_output@@QAEPA_WXZ 1004c99e f i libucrt:output.obj
 0001:0004b9ab       ??$ensure_buffer_is_big_enough@D@formatting_buffer@__crt_stdio_output@@QAE_NI@Z 1004c9ab f i libucrt:output.obj
 0001:0004ba28       ??$ensure_buffer_is_big_enough@_W@formatting_buffer@__crt_stdio_output@@QAE_NI@Z 1004ca28 f i libucrt:output.obj
 0001:0004baa6       ??$extract_argument_from_va_list@C_J@?$positional_parameter_base@DV?$stream_output_adapter@D@__crt_stdio_output@@@__crt_stdio_output@@IAE_NAA_J@Z 1004caa6 f i libucrt:output.obj
 0001:0004bb1f       ??$extract_argument_from_va_list@C_J@?$positional_parameter_base@DV?$string_output_adapter@D@__crt_stdio_output@@@__crt_stdio_output@@IAE_NAA_J@Z 1004cb1f f i libucrt:output.obj
 0001:0004bb98       ??$extract_argument_from_va_list@C_J@?$positional_parameter_base@_WV?$stream_output_adapter@_W@__crt_stdio_output@@@__crt_stdio_output@@IAE_NAA_J@Z 1004cb98 f i libucrt:output.obj
 0001:0004bc11       ??$extract_argument_from_va_list@C_J@?$positional_parameter_base@_WV?$string_output_adapter@_W@__crt_stdio_output@@@__crt_stdio_output@@IAE_NAA_J@Z 1004cc11 f i libucrt:output.obj
 0001:0004bc8a       ??$extract_argument_from_va_list@C_J@?$standard_base@DV?$stream_output_adapter@D@__crt_stdio_output@@@__crt_stdio_output@@IAE_NAA_J@Z 1004cc8a f i libucrt:output.obj
 0001:0004bca9       ??$extract_argument_from_va_list@C_J@?$standard_base@DV?$string_output_adapter@D@__crt_stdio_output@@@__crt_stdio_output@@IAE_NAA_J@Z 1004cca9 f i libucrt:output.obj
 0001:0004bcc8       ??$extract_argument_from_va_list@C_J@?$standard_base@_WV?$stream_output_adapter@_W@__crt_stdio_output@@@__crt_stdio_output@@IAE_NAA_J@Z 1004ccc8 f i libucrt:output.obj
 0001:0004bce7       ??$extract_argument_from_va_list@C_J@?$standard_base@_WV?$string_output_adapter@_W@__crt_stdio_output@@@__crt_stdio_output@@IAE_NAA_J@Z 1004cce7 f i libucrt:output.obj
 0001:0004bd06       ??$extract_argument_from_va_list@E_J@?$positional_parameter_base@DV?$stream_output_adapter@D@__crt_stdio_output@@@__crt_stdio_output@@IAE_NAA_J@Z 1004cd06 f i libucrt:output.obj
 0001:0004bd7f       ??$extract_argument_from_va_list@E_J@?$positional_parameter_base@DV?$string_output_adapter@D@__crt_stdio_output@@@__crt_stdio_output@@IAE_NAA_J@Z 1004cd7f f i libucrt:output.obj
 0001:0004bdf8       ??$extract_argument_from_va_list@E_J@?$positional_parameter_base@_WV?$stream_output_adapter@_W@__crt_stdio_output@@@__crt_stdio_output@@IAE_NAA_J@Z 1004cdf8 f i libucrt:output.obj
 0001:0004be71       ??$extract_argument_from_va_list@E_J@?$positional_parameter_base@_WV?$string_output_adapter@_W@__crt_stdio_output@@@__crt_stdio_output@@IAE_NAA_J@Z 1004ce71 f i libucrt:output.obj
 0001:0004beea       ??$extract_argument_from_va_list@E_J@?$standard_base@DV?$stream_output_adapter@D@__crt_stdio_output@@@__crt_stdio_output@@IAE_NAA_J@Z 1004ceea f i libucrt:output.obj
 0001:0004bf09       ??$extract_argument_from_va_list@E_J@?$standard_base@DV?$string_output_adapter@D@__crt_stdio_output@@@__crt_stdio_output@@IAE_NAA_J@Z 1004cf09 f i libucrt:output.obj
 0001:0004bf28       ??$extract_argument_from_va_list@E_J@?$standard_base@_WV?$stream_output_adapter@_W@__crt_stdio_output@@@__crt_stdio_output@@IAE_NAA_J@Z 1004cf28 f i libucrt:output.obj
 0001:0004bf47       ??$extract_argument_from_va_list@E_J@?$standard_base@_WV?$string_output_adapter@_W@__crt_stdio_output@@@__crt_stdio_output@@IAE_NAA_J@Z 1004cf47 f i libucrt:output.obj
 0001:0004bf66       ??$extract_argument_from_va_list@F_J@?$positional_parameter_base@DV?$stream_output_adapter@D@__crt_stdio_output@@@__crt_stdio_output@@IAE_NAA_J@Z 1004cf66 f i libucrt:output.obj
 0001:0004bfdf       ??$extract_argument_from_va_list@F_J@?$positional_parameter_base@DV?$string_output_adapter@D@__crt_stdio_output@@@__crt_stdio_output@@IAE_NAA_J@Z 1004cfdf f i libucrt:output.obj
 0001:0004c058       ??$extract_argument_from_va_list@F_J@?$positional_parameter_base@_WV?$stream_output_adapter@_W@__crt_stdio_output@@@__crt_stdio_output@@IAE_NAA_J@Z 1004d058 f i libucrt:output.obj
 0001:0004c0d1       ??$extract_argument_from_va_list@F_J@?$positional_parameter_base@_WV?$string_output_adapter@_W@__crt_stdio_output@@@__crt_stdio_output@@IAE_NAA_J@Z 1004d0d1 f i libucrt:output.obj
 0001:0004c14a       ??$extract_argument_from_va_list@F_J@?$standard_base@DV?$stream_output_adapter@D@__crt_stdio_output@@@__crt_stdio_output@@IAE_NAA_J@Z 1004d14a f i libucrt:output.obj
 0001:0004c169       ??$extract_argument_from_va_list@F_J@?$standard_base@DV?$string_output_adapter@D@__crt_stdio_output@@@__crt_stdio_output@@IAE_NAA_J@Z 1004d169 f i libucrt:output.obj
 0001:0004c188       ??$extract_argument_from_va_list@F_J@?$standard_base@_WV?$stream_output_adapter@_W@__crt_stdio_output@@@__crt_stdio_output@@IAE_NAA_J@Z 1004d188 f i libucrt:output.obj
 0001:0004c1a7       ??$extract_argument_from_va_list@F_J@?$standard_base@_WV?$string_output_adapter@_W@__crt_stdio_output@@@__crt_stdio_output@@IAE_NAA_J@Z 1004d1a7 f i libucrt:output.obj
 0001:0004c1c6       ??$extract_argument_from_va_list@GD@?$positional_parameter_base@DV?$stream_output_adapter@D@__crt_stdio_output@@@__crt_stdio_output@@IAE_NAAD@Z 1004d1c6 f i libucrt:output.obj
 0001:0004c23e       ??$extract_argument_from_va_list@GD@?$positional_parameter_base@DV?$string_output_adapter@D@__crt_stdio_output@@@__crt_stdio_output@@IAE_NAAD@Z 1004d23e f i libucrt:output.obj
 0001:0004c2b6       ??$extract_argument_from_va_list@GD@?$standard_base@DV?$stream_output_adapter@D@__crt_stdio_output@@@__crt_stdio_output@@IAE_NAAD@Z 1004d2b6 f i libucrt:output.obj
 0001:0004c2d0       ??$extract_argument_from_va_list@GD@?$standard_base@DV?$string_output_adapter@D@__crt_stdio_output@@@__crt_stdio_output@@IAE_NAAD@Z 1004d2d0 f i libucrt:output.obj
 0001:0004c2ea       ??$extract_argument_from_va_list@G_J@?$positional_parameter_base@DV?$stream_output_adapter@D@__crt_stdio_output@@@__crt_stdio_output@@IAE_NAA_J@Z 1004d2ea f i libucrt:output.obj
 0001:0004c363       ??$extract_argument_from_va_list@G_J@?$positional_parameter_base@DV?$string_output_adapter@D@__crt_stdio_output@@@__crt_stdio_output@@IAE_NAA_J@Z 1004d363 f i libucrt:output.obj
 0001:0004c3dc       ??$extract_argument_from_va_list@G_J@?$positional_parameter_base@_WV?$stream_output_adapter@_W@__crt_stdio_output@@@__crt_stdio_output@@IAE_NAA_J@Z 1004d3dc f i libucrt:output.obj
 0001:0004c455       ??$extract_argument_from_va_list@G_J@?$positional_parameter_base@_WV?$string_output_adapter@_W@__crt_stdio_output@@@__crt_stdio_output@@IAE_NAA_J@Z 1004d455 f i libucrt:output.obj
 0001:0004c4ce       ??$extract_argument_from_va_list@G_J@?$standard_base@DV?$stream_output_adapter@D@__crt_stdio_output@@@__crt_stdio_output@@IAE_NAA_J@Z 1004d4ce f i libucrt:output.obj
 0001:0004c4ed       ??$extract_argument_from_va_list@G_J@?$standard_base@DV?$string_output_adapter@D@__crt_stdio_output@@@__crt_stdio_output@@IAE_NAA_J@Z 1004d4ed f i libucrt:output.obj
 0001:0004c50c       ??$extract_argument_from_va_list@G_J@?$standard_base@_WV?$stream_output_adapter@_W@__crt_stdio_output@@@__crt_stdio_output@@IAE_NAA_J@Z 1004d50c f i libucrt:output.obj
 0001:0004c52b       ??$extract_argument_from_va_list@G_J@?$standard_base@_WV?$string_output_adapter@_W@__crt_stdio_output@@@__crt_stdio_output@@IAE_NAA_J@Z 1004d52b f i libucrt:output.obj
 0001:0004c54a       ??$extract_argument_from_va_list@H_J@?$positional_parameter_base@DV?$stream_output_adapter@D@__crt_stdio_output@@@__crt_stdio_output@@IAE_NAA_J@Z 1004d54a f i libucrt:output.obj
 0001:0004c5c1       ??$extract_argument_from_va_list@H_J@?$positional_parameter_base@DV?$string_output_adapter@D@__crt_stdio_output@@@__crt_stdio_output@@IAE_NAA_J@Z 1004d5c1 f i libucrt:output.obj
 0001:0004c638       ??$extract_argument_from_va_list@H_J@?$positional_parameter_base@_WV?$stream_output_adapter@_W@__crt_stdio_output@@@__crt_stdio_output@@IAE_NAA_J@Z 1004d638 f i libucrt:output.obj
 0001:0004c6af       ??$extract_argument_from_va_list@H_J@?$positional_parameter_base@_WV?$string_output_adapter@_W@__crt_stdio_output@@@__crt_stdio_output@@IAE_NAA_J@Z 1004d6af f i libucrt:output.obj
 0001:0004c726       ??$extract_argument_from_va_list@H_J@?$standard_base@DV?$stream_output_adapter@D@__crt_stdio_output@@@__crt_stdio_output@@IAE_NAA_J@Z 1004d726 f i libucrt:output.obj
 0001:0004c744       ??$extract_argument_from_va_list@H_J@?$standard_base@DV?$string_output_adapter@D@__crt_stdio_output@@@__crt_stdio_output@@IAE_NAA_J@Z 1004d744 f i libucrt:output.obj
 0001:0004c762       ??$extract_argument_from_va_list@H_J@?$standard_base@_WV?$stream_output_adapter@_W@__crt_stdio_output@@@__crt_stdio_output@@IAE_NAA_J@Z 1004d762 f i libucrt:output.obj
 0001:0004c780       ??$extract_argument_from_va_list@H_J@?$standard_base@_WV?$string_output_adapter@_W@__crt_stdio_output@@@__crt_stdio_output@@IAE_NAA_J@Z 1004d780 f i libucrt:output.obj
 0001:0004c79e       ??$extract_argument_from_va_list@I_J@?$positional_parameter_base@DV?$stream_output_adapter@D@__crt_stdio_output@@@__crt_stdio_output@@IAE_NAA_J@Z 1004d79e f i libucrt:output.obj
 0001:0004c81e       ??$extract_argument_from_va_list@I_J@?$positional_parameter_base@DV?$string_output_adapter@D@__crt_stdio_output@@@__crt_stdio_output@@IAE_NAA_J@Z 1004d81e f i libucrt:output.obj
 0001:0004c89e       ??$extract_argument_from_va_list@I_J@?$positional_parameter_base@_WV?$stream_output_adapter@_W@__crt_stdio_output@@@__crt_stdio_output@@IAE_NAA_J@Z 1004d89e f i libucrt:output.obj
 0001:0004c91e       ??$extract_argument_from_va_list@I_J@?$positional_parameter_base@_WV?$string_output_adapter@_W@__crt_stdio_output@@@__crt_stdio_output@@IAE_NAA_J@Z 1004d91e f i libucrt:output.obj
 0001:0004c99e       ??$extract_argument_from_va_list@I_J@?$standard_base@DV?$stream_output_adapter@D@__crt_stdio_output@@@__crt_stdio_output@@IAE_NAA_J@Z 1004d99e f i libucrt:output.obj
 0001:0004c9bc       ??$extract_argument_from_va_list@I_J@?$standard_base@DV?$string_output_adapter@D@__crt_stdio_output@@@__crt_stdio_output@@IAE_NAA_J@Z 1004d9bc f i libucrt:output.obj
 0001:0004c9da       ??$extract_argument_from_va_list@I_J@?$standard_base@_WV?$stream_output_adapter@_W@__crt_stdio_output@@@__crt_stdio_output@@IAE_NAA_J@Z 1004d9da f i libucrt:output.obj
 0001:0004c9f8       ??$extract_argument_from_va_list@I_J@?$standard_base@_WV?$string_output_adapter@_W@__crt_stdio_output@@@__crt_stdio_output@@IAE_NAA_J@Z 1004d9f8 f i libucrt:output.obj
 0001:0004ca16       ??$extract_argument_from_va_list@PADPAD@?$positional_parameter_base@DV?$stream_output_adapter@D@__crt_stdio_output@@@__crt_stdio_output@@IAE_NAAPAD@Z 1004da16 f i libucrt:output.obj
 0001:0004ca8e       ??$extract_argument_from_va_list@PADPAD@?$positional_parameter_base@DV?$string_output_adapter@D@__crt_stdio_output@@@__crt_stdio_output@@IAE_NAAPAD@Z 1004da8e f i libucrt:output.obj
 0001:0004cb06       ??$extract_argument_from_va_list@PADPAD@?$positional_parameter_base@_WV?$stream_output_adapter@_W@__crt_stdio_output@@@__crt_stdio_output@@IAE_NAAPAD@Z 1004db06 f i libucrt:output.obj
 0001:0004cb7e       ??$extract_argument_from_va_list@PADPAD@?$positional_parameter_base@_WV?$string_output_adapter@_W@__crt_stdio_output@@@__crt_stdio_output@@IAE_NAAPAD@Z 1004db7e f i libucrt:output.obj
 0001:0004cbf6       ??$extract_argument_from_va_list@PADPAD@?$standard_base@DV?$stream_output_adapter@D@__crt_stdio_output@@@__crt_stdio_output@@IAE_NAAPAD@Z 1004dbf6 f i libucrt:output.obj
 0001:0004cc10       ??$extract_argument_from_va_list@PADPAD@?$standard_base@DV?$string_output_adapter@D@__crt_stdio_output@@@__crt_stdio_output@@IAE_NAAPAD@Z 1004dc10 f i libucrt:output.obj
 0001:0004cc2a       ??$extract_argument_from_va_list@PADPAD@?$standard_base@_WV?$stream_output_adapter@_W@__crt_stdio_output@@@__crt_stdio_output@@IAE_NAAPAD@Z 1004dc2a f i libucrt:output.obj
 0001:0004cc44       ??$extract_argument_from_va_list@PADPAD@?$standard_base@_WV?$string_output_adapter@_W@__crt_stdio_output@@@__crt_stdio_output@@IAE_NAAPAD@Z 1004dc44 f i libucrt:output.obj
 0001:0004cc5e       ??$extract_argument_from_va_list@PAUansi_string@?1??type_case_Z@?$output_processor@DV?$stream_output_adapter@D@__crt_stdio_output@@V?$format_validation_base@DV?$stream_output_adapter@D@__crt_stdio_output@@@2@@__crt_stdio_output@@AAE_NXZ@PAU1?1??234@AAE_NXZ@@?$standard_base@DV?$stream_output_adapter@D@__crt_stdio_output@@@__crt_stdio_output@@IAE_NAAPAUansi_string@?1??type_case_Z@?$output_processor@DV?$stream_output_adapter@D@__crt_stdio_output@@V?$format_validation_base@DV?$stream_output_adapter@D@__crt_stdio_output@@@2@@1@AAE_NXZ@@Z 1004dc5e f i libucrt:output.obj
 0001:0004cc78       ??$extract_argument_from_va_list@PAUansi_string@?1??type_case_Z@?$output_processor@DV?$stream_output_adapter@D@__crt_stdio_output@@V?$positional_parameter_base@DV?$stream_output_adapter@D@__crt_stdio_output@@@2@@__crt_stdio_output@@AAE_NXZ@PAU1?1??234@AAE_NXZ@@?$positional_parameter_base@DV?$stream_output_adapter@D@__crt_stdio_output@@@__crt_stdio_output@@IAE_NAAPAUansi_string@?1??type_case_Z@?$output_processor@DV?$stream_output_adapter@D@__crt_stdio_output@@V?$positional_parameter_base@DV?$stream_output_adapter@D@__crt_stdio_output@@@2@@1@AAE_NXZ@@Z 1004dc78 f i libucrt:output.obj
 0001:0004ccf0       ??$extract_argument_from_va_list@PAUansi_string@?1??type_case_Z@?$output_processor@DV?$stream_output_adapter@D@__crt_stdio_output@@V?$positional_parameter_base@DV?$stream_output_adapter@D@__crt_stdio_output@@@2@@__crt_stdio_output@@AAE_NXZ@PAU1?1??234@AAE_NXZ@@?$standard_base@DV?$stream_output_adapter@D@__crt_stdio_output@@@__crt_stdio_output@@IAE_NAAPAUansi_string@?1??type_case_Z@?$output_processor@DV?$stream_output_adapter@D@__crt_stdio_output@@V?$positional_parameter_base@DV?$stream_output_adapter@D@__crt_stdio_output@@@2@@1@AAE_NXZ@@Z 1004dcf0 f i libucrt:output.obj
 0001:0004cd0a       ??$extract_argument_from_va_list@PAUansi_string@?1??type_case_Z@?$output_processor@DV?$stream_output_adapter@D@__crt_stdio_output@@V?$standard_base@DV?$stream_output_adapter@D@__crt_stdio_output@@@2@@__crt_stdio_output@@AAE_NXZ@PAU1?1??234@AAE_NXZ@@?$standard_base@DV?$stream_output_adapter@D@__crt_stdio_output@@@__crt_stdio_output@@IAE_NAAPAUansi_string@?1??type_case_Z@?$output_processor@DV?$stream_output_adapter@D@__crt_stdio_output@@V?$standard_base@DV?$stream_output_adapter@D@__crt_stdio_output@@@2@@1@AAE_NXZ@@Z 1004dd0a f i libucrt:output.obj
 0001:0004cd24       ??$extract_argument_from_va_list@PAUansi_string@?1??type_case_Z@?$output_processor@DV?$string_output_adapter@D@__crt_stdio_output@@V?$format_validation_base@DV?$string_output_adapter@D@__crt_stdio_output@@@2@@__crt_stdio_output@@AAE_NXZ@PAU1?1??234@AAE_NXZ@@?$standard_base@DV?$string_output_adapter@D@__crt_stdio_output@@@__crt_stdio_output@@IAE_NAAPAUansi_string@?1??type_case_Z@?$output_processor@DV?$string_output_adapter@D@__crt_stdio_output@@V?$format_validation_base@DV?$string_output_adapter@D@__crt_stdio_output@@@2@@1@AAE_NXZ@@Z 1004dd24 f i libucrt:output.obj
 0001:0004cd3e       ??$extract_argument_from_va_list@PAUansi_string@?1??type_case_Z@?$output_processor@DV?$string_output_adapter@D@__crt_stdio_output@@V?$positional_parameter_base@DV?$string_output_adapter@D@__crt_stdio_output@@@2@@__crt_stdio_output@@AAE_NXZ@PAU1?1??234@AAE_NXZ@@?$positional_parameter_base@DV?$string_output_adapter@D@__crt_stdio_output@@@__crt_stdio_output@@IAE_NAAPAUansi_string@?1??type_case_Z@?$output_processor@DV?$string_output_adapter@D@__crt_stdio_output@@V?$positional_parameter_base@DV?$string_output_adapter@D@__crt_stdio_output@@@2@@1@AAE_NXZ@@Z 1004dd3e f i libucrt:output.obj
 0001:0004cdb6       ??$extract_argument_from_va_list@PAUansi_string@?1??type_case_Z@?$output_processor@DV?$string_output_adapter@D@__crt_stdio_output@@V?$positional_parameter_base@DV?$string_output_adapter@D@__crt_stdio_output@@@2@@__crt_stdio_output@@AAE_NXZ@PAU1?1??234@AAE_NXZ@@?$standard_base@DV?$string_output_adapter@D@__crt_stdio_output@@@__crt_stdio_output@@IAE_NAAPAUansi_string@?1??type_case_Z@?$output_processor@DV?$string_output_adapter@D@__crt_stdio_output@@V?$positional_parameter_base@DV?$string_output_adapter@D@__crt_stdio_output@@@2@@1@AAE_NXZ@@Z 1004ddb6 f i libucrt:output.obj
 0001:0004cdd0       ??$extract_argument_from_va_list@PAUansi_string@?1??type_case_Z@?$output_processor@DV?$string_output_adapter@D@__crt_stdio_output@@V?$standard_base@DV?$string_output_adapter@D@__crt_stdio_output@@@2@@__crt_stdio_output@@AAE_NXZ@PAU1?1??234@AAE_NXZ@@?$standard_base@DV?$string_output_adapter@D@__crt_stdio_output@@@__crt_stdio_output@@IAE_NAAPAUansi_string@?1??type_case_Z@?$output_processor@DV?$string_output_adapter@D@__crt_stdio_output@@V?$standard_base@DV?$string_output_adapter@D@__crt_stdio_output@@@2@@1@AAE_NXZ@@Z 1004ddd0 f i libucrt:output.obj
 0001:0004cdea       ??$extract_argument_from_va_list@PAUansi_string@?1??type_case_Z@?$output_processor@_WV?$stream_output_adapter@_W@__crt_stdio_output@@V?$format_validation_base@_WV?$stream_output_adapter@_W@__crt_stdio_output@@@2@@__crt_stdio_output@@AAE_NXZ@PAU1?1??234@AAE_NXZ@@?$standard_base@_WV?$stream_output_adapter@_W@__crt_stdio_output@@@__crt_stdio_output@@IAE_NAAPAUansi_string@?1??type_case_Z@?$output_processor@_WV?$stream_output_adapter@_W@__crt_stdio_output@@V?$format_validation_base@_WV?$stream_output_adapter@_W@__crt_stdio_output@@@2@@1@AAE_NXZ@@Z 1004ddea f i libucrt:output.obj
 0001:0004ce04       ??$extract_argument_from_va_list@PAUansi_string@?1??type_case_Z@?$output_processor@_WV?$stream_output_adapter@_W@__crt_stdio_output@@V?$positional_parameter_base@_WV?$stream_output_adapter@_W@__crt_stdio_output@@@2@@__crt_stdio_output@@AAE_NXZ@PAU1?1??234@AAE_NXZ@@?$positional_parameter_base@_WV?$stream_output_adapter@_W@__crt_stdio_output@@@__crt_stdio_output@@IAE_NAAPAUansi_string@?1??type_case_Z@?$output_processor@_WV?$stream_output_adapter@_W@__crt_stdio_output@@V?$positional_parameter_base@_WV?$stream_output_adapter@_W@__crt_stdio_output@@@2@@1@AAE_NXZ@@Z 1004de04 f i libucrt:output.obj
 0001:0004ce7c       ??$extract_argument_from_va_list@PAUansi_string@?1??type_case_Z@?$output_processor@_WV?$stream_output_adapter@_W@__crt_stdio_output@@V?$positional_parameter_base@_WV?$stream_output_adapter@_W@__crt_stdio_output@@@2@@__crt_stdio_output@@AAE_NXZ@PAU1?1??234@AAE_NXZ@@?$standard_base@_WV?$stream_output_adapter@_W@__crt_stdio_output@@@__crt_stdio_output@@IAE_NAAPAUansi_string@?1??type_case_Z@?$output_processor@_WV?$stream_output_adapter@_W@__crt_stdio_output@@V?$positional_parameter_base@_WV?$stream_output_adapter@_W@__crt_stdio_output@@@2@@1@AAE_NXZ@@Z 1004de7c f i libucrt:output.obj
 0001:0004ce96       ??$extract_argument_from_va_list@PAUansi_string@?1??type_case_Z@?$output_processor@_WV?$stream_output_adapter@_W@__crt_stdio_output@@V?$standard_base@_WV?$stream_output_adapter@_W@__crt_stdio_output@@@2@@__crt_stdio_output@@AAE_NXZ@PAU1?1??234@AAE_NXZ@@?$standard_base@_WV?$stream_output_adapter@_W@__crt_stdio_output@@@__crt_stdio_output@@IAE_NAAPAUansi_string@?1??type_case_Z@?$output_processor@_WV?$stream_output_adapter@_W@__crt_stdio_output@@V?$standard_base@_WV?$stream_output_adapter@_W@__crt_stdio_output@@@2@@1@AAE_NXZ@@Z 1004de96 f i libucrt:output.obj
 0001:0004ceb0       ??$extract_argument_from_va_list@PAUansi_string@?1??type_case_Z@?$output_processor@_WV?$string_output_adapter@_W@__crt_stdio_output@@V?$format_validation_base@_WV?$string_output_adapter@_W@__crt_stdio_output@@@2@@__crt_stdio_output@@AAE_NXZ@PAU1?1??234@AAE_NXZ@@?$standard_base@_WV?$string_output_adapter@_W@__crt_stdio_output@@@__crt_stdio_output@@IAE_NAAPAUansi_string@?1??type_case_Z@?$output_processor@_WV?$string_output_adapter@_W@__crt_stdio_output@@V?$format_validation_base@_WV?$string_output_adapter@_W@__crt_stdio_output@@@2@@1@AAE_NXZ@@Z 1004deb0 f i libucrt:output.obj
 0001:0004ceca       ??$extract_argument_from_va_list@PAUansi_string@?1??type_case_Z@?$output_processor@_WV?$string_output_adapter@_W@__crt_stdio_output@@V?$positional_parameter_base@_WV?$string_output_adapter@_W@__crt_stdio_output@@@2@@__crt_stdio_output@@AAE_NXZ@PAU1?1??234@AAE_NXZ@@?$positional_parameter_base@_WV?$string_output_adapter@_W@__crt_stdio_output@@@__crt_stdio_output@@IAE_NAAPAUansi_string@?1??type_case_Z@?$output_processor@_WV?$string_output_adapter@_W@__crt_stdio_output@@V?$positional_parameter_base@_WV?$string_output_adapter@_W@__crt_stdio_output@@@2@@1@AAE_NXZ@@Z 1004deca f i libucrt:output.obj
 0001:0004cf42       ??$extract_argument_from_va_list@PAUansi_string@?1??type_case_Z@?$output_processor@_WV?$string_output_adapter@_W@__crt_stdio_output@@V?$positional_parameter_base@_WV?$string_output_adapter@_W@__crt_stdio_output@@@2@@__crt_stdio_output@@AAE_NXZ@PAU1?1??234@AAE_NXZ@@?$standard_base@_WV?$string_output_adapter@_W@__crt_stdio_output@@@__crt_stdio_output@@IAE_NAAPAUansi_string@?1??type_case_Z@?$output_processor@_WV?$string_output_adapter@_W@__crt_stdio_output@@V?$positional_parameter_base@_WV?$string_output_adapter@_W@__crt_stdio_output@@@2@@1@AAE_NXZ@@Z 1004df42 f i libucrt:output.obj
 0001:0004cf5c       ??$extract_argument_from_va_list@PAUansi_string@?1??type_case_Z@?$output_processor@_WV?$string_output_adapter@_W@__crt_stdio_output@@V?$standard_base@_WV?$string_output_adapter@_W@__crt_stdio_output@@@2@@__crt_stdio_output@@AAE_NXZ@PAU1?1??234@AAE_NXZ@@?$standard_base@_WV?$string_output_adapter@_W@__crt_stdio_output@@@__crt_stdio_output@@IAE_NAAPAUansi_string@?1??type_case_Z@?$output_processor@_WV?$string_output_adapter@_W@__crt_stdio_output@@V?$standard_base@_WV?$string_output_adapter@_W@__crt_stdio_output@@@2@@1@AAE_NXZ@@Z 1004df5c f i libucrt:output.obj
 0001:0004cf76       ??$extract_argument_from_va_list@PAXPAX@?$positional_parameter_base@DV?$stream_output_adapter@D@__crt_stdio_output@@@__crt_stdio_output@@IAE_NAAPAX@Z 1004df76 f i libucrt:output.obj
 0001:0004cfee       ??$extract_argument_from_va_list@PAXPAX@?$positional_parameter_base@DV?$string_output_adapter@D@__crt_stdio_output@@@__crt_stdio_output@@IAE_NAAPAX@Z 1004dfee f i libucrt:output.obj
 0001:0004d066       ??$extract_argument_from_va_list@PAXPAX@?$positional_parameter_base@_WV?$stream_output_adapter@_W@__crt_stdio_output@@@__crt_stdio_output@@IAE_NAAPAX@Z 1004e066 f i libucrt:output.obj
 0001:0004d0de       ??$extract_argument_from_va_list@PAXPAX@?$positional_parameter_base@_WV?$string_output_adapter@_W@__crt_stdio_output@@@__crt_stdio_output@@IAE_NAAPAX@Z 1004e0de f i libucrt:output.obj
 0001:0004d156       ??$extract_argument_from_va_list@PAXPAX@?$standard_base@DV?$stream_output_adapter@D@__crt_stdio_output@@@__crt_stdio_output@@IAE_NAAPAX@Z 1004e156 f i libucrt:output.obj
 0001:0004d170       ??$extract_argument_from_va_list@PAXPAX@?$standard_base@DV?$string_output_adapter@D@__crt_stdio_output@@@__crt_stdio_output@@IAE_NAAPAX@Z 1004e170 f i libucrt:output.obj
 0001:0004d18a       ??$extract_argument_from_va_list@PAXPAX@?$standard_base@_WV?$stream_output_adapter@_W@__crt_stdio_output@@@__crt_stdio_output@@IAE_NAAPAX@Z 1004e18a f i libucrt:output.obj
 0001:0004d1a4       ??$extract_argument_from_va_list@PAXPAX@?$standard_base@_WV?$string_output_adapter@_W@__crt_stdio_output@@@__crt_stdio_output@@IAE_NAAPAX@Z 1004e1a4 f i libucrt:output.obj
 0001:0004d1be       ??$extract_argument_from_va_list@U_CRT_DOUBLE@@U1@@?$positional_parameter_base@DV?$stream_output_adapter@D@__crt_stdio_output@@@__crt_stdio_output@@IAE_NAAU_CRT_DOUBLE@@@Z 1004e1be f i libucrt:output.obj
 0001:0004d244       ??$extract_argument_from_va_list@U_CRT_DOUBLE@@U1@@?$positional_parameter_base@DV?$string_output_adapter@D@__crt_stdio_output@@@__crt_stdio_output@@IAE_NAAU_CRT_DOUBLE@@@Z 1004e244 f i libucrt:output.obj
 0001:0004d2ca       ??$extract_argument_from_va_list@U_CRT_DOUBLE@@U1@@?$positional_parameter_base@_WV?$stream_output_adapter@_W@__crt_stdio_output@@@__crt_stdio_output@@IAE_NAAU_CRT_DOUBLE@@@Z 1004e2ca f i libucrt:output.obj
 0001:0004d350       ??$extract_argument_from_va_list@U_CRT_DOUBLE@@U1@@?$positional_parameter_base@_WV?$string_output_adapter@_W@__crt_stdio_output@@@__crt_stdio_output@@IAE_NAAU_CRT_DOUBLE@@@Z 1004e350 f i libucrt:output.obj
 0001:0004d3d6       ??$extract_argument_from_va_list@U_CRT_DOUBLE@@U1@@?$standard_base@DV?$stream_output_adapter@D@__crt_stdio_output@@@__crt_stdio_output@@IAE_NAAU_CRT_DOUBLE@@@Z 1004e3d6 f i libucrt:output.obj
 0001:0004d3f6       ??$extract_argument_from_va_list@U_CRT_DOUBLE@@U1@@?$standard_base@DV?$string_output_adapter@D@__crt_stdio_output@@@__crt_stdio_output@@IAE_NAAU_CRT_DOUBLE@@@Z 1004e3f6 f i libucrt:output.obj
 0001:0004d416       ??$extract_argument_from_va_list@U_CRT_DOUBLE@@U1@@?$standard_base@_WV?$stream_output_adapter@_W@__crt_stdio_output@@@__crt_stdio_output@@IAE_NAAU_CRT_DOUBLE@@@Z 1004e416 f i libucrt:output.obj
 0001:0004d436       ??$extract_argument_from_va_list@U_CRT_DOUBLE@@U1@@?$standard_base@_WV?$string_output_adapter@_W@__crt_stdio_output@@@__crt_stdio_output@@IAE_NAAU_CRT_DOUBLE@@@Z 1004e436 f i libucrt:output.obj
 0001:0004d456       ??$extract_argument_from_va_list@_J_J@?$positional_parameter_base@DV?$stream_output_adapter@D@__crt_stdio_output@@@__crt_stdio_output@@IAE_NAA_J@Z 1004e456 f i libucrt:output.obj
 0001:0004d4dc       ??$extract_argument_from_va_list@_J_J@?$positional_parameter_base@DV?$string_output_adapter@D@__crt_stdio_output@@@__crt_stdio_output@@IAE_NAA_J@Z 1004e4dc f i libucrt:output.obj
 0001:0004d562       ??$extract_argument_from_va_list@_J_J@?$positional_parameter_base@_WV?$stream_output_adapter@_W@__crt_stdio_output@@@__crt_stdio_output@@IAE_NAA_J@Z 1004e562 f i libucrt:output.obj
 0001:0004d5e8       ??$extract_argument_from_va_list@_J_J@?$positional_parameter_base@_WV?$string_output_adapter@_W@__crt_stdio_output@@@__crt_stdio_output@@IAE_NAA_J@Z 1004e5e8 f i libucrt:output.obj
 0001:0004d66e       ??$extract_argument_from_va_list@_J_J@?$standard_base@DV?$stream_output_adapter@D@__crt_stdio_output@@@__crt_stdio_output@@IAE_NAA_J@Z 1004e66e f i libucrt:output.obj
 0001:0004d68e       ??$extract_argument_from_va_list@_J_J@?$standard_base@DV?$string_output_adapter@D@__crt_stdio_output@@@__crt_stdio_output@@IAE_NAA_J@Z 1004e68e f i libucrt:output.obj
 0001:0004d6ae       ??$extract_argument_from_va_list@_J_J@?$standard_base@_WV?$stream_output_adapter@_W@__crt_stdio_output@@@__crt_stdio_output@@IAE_NAA_J@Z 1004e6ae f i libucrt:output.obj
 0001:0004d6ce       ??$extract_argument_from_va_list@_J_J@?$standard_base@_WV?$string_output_adapter@_W@__crt_stdio_output@@@__crt_stdio_output@@IAE_NAA_J@Z 1004e6ce f i libucrt:output.obj
 0001:0004d6ee       ??$extract_argument_from_va_list@_K_J@?$positional_parameter_base@DV?$stream_output_adapter@D@__crt_stdio_output@@@__crt_stdio_output@@IAE_NAA_J@Z 1004e6ee f i libucrt:output.obj
 0001:0004d774       ??$extract_argument_from_va_list@_K_J@?$positional_parameter_base@DV?$string_output_adapter@D@__crt_stdio_output@@@__crt_stdio_output@@IAE_NAA_J@Z 1004e774 f i libucrt:output.obj
 0001:0004d7fa       ??$extract_argument_from_va_list@_K_J@?$positional_parameter_base@_WV?$stream_output_adapter@_W@__crt_stdio_output@@@__crt_stdio_output@@IAE_NAA_J@Z 1004e7fa f i libucrt:output.obj
 0001:0004d880       ??$extract_argument_from_va_list@_K_J@?$positional_parameter_base@_WV?$string_output_adapter@_W@__crt_stdio_output@@@__crt_stdio_output@@IAE_NAA_J@Z 1004e880 f i libucrt:output.obj
 0001:0004d906       ??$extract_argument_from_va_list@_K_J@?$standard_base@DV?$stream_output_adapter@D@__crt_stdio_output@@@__crt_stdio_output@@IAE_NAA_J@Z 1004e906 f i libucrt:output.obj
 0001:0004d926       ??$extract_argument_from_va_list@_K_J@?$standard_base@DV?$string_output_adapter@D@__crt_stdio_output@@@__crt_stdio_output@@IAE_NAA_J@Z 1004e926 f i libucrt:output.obj
 0001:0004d946       ??$extract_argument_from_va_list@_K_J@?$standard_base@_WV?$stream_output_adapter@_W@__crt_stdio_output@@@__crt_stdio_output@@IAE_NAA_J@Z 1004e946 f i libucrt:output.obj
 0001:0004d966       ??$extract_argument_from_va_list@_K_J@?$standard_base@_WV?$string_output_adapter@_W@__crt_stdio_output@@@__crt_stdio_output@@IAE_NAA_J@Z 1004e966 f i libucrt:output.obj
 0001:0004d986       ??$extract_argument_from_va_list@_W_W@?$positional_parameter_base@DV?$stream_output_adapter@D@__crt_stdio_output@@@__crt_stdio_output@@IAE_NAA_W@Z 1004e986 f i libucrt:output.obj
 0001:0004da02       ??$extract_argument_from_va_list@_W_W@?$positional_parameter_base@DV?$string_output_adapter@D@__crt_stdio_output@@@__crt_stdio_output@@IAE_NAA_W@Z 1004ea02 f i libucrt:output.obj
 0001:0004da7e       ??$extract_argument_from_va_list@_W_W@?$positional_parameter_base@_WV?$stream_output_adapter@_W@__crt_stdio_output@@@__crt_stdio_output@@IAE_NAA_W@Z 1004ea7e f i libucrt:output.obj
 0001:0004dafa       ??$extract_argument_from_va_list@_W_W@?$positional_parameter_base@_WV?$string_output_adapter@_W@__crt_stdio_output@@@__crt_stdio_output@@IAE_NAA_W@Z 1004eafa f i libucrt:output.obj
 0001:0004db76       ??$extract_argument_from_va_list@_W_W@?$standard_base@DV?$stream_output_adapter@D@__crt_stdio_output@@@__crt_stdio_output@@IAE_NAA_W@Z 1004eb76 f i libucrt:output.obj
 0001:0004db92       ??$extract_argument_from_va_list@_W_W@?$standard_base@DV?$string_output_adapter@D@__crt_stdio_output@@@__crt_stdio_output@@IAE_NAA_W@Z 1004eb92 f i libucrt:output.obj
 0001:0004dbae       ??$extract_argument_from_va_list@_W_W@?$standard_base@_WV?$stream_output_adapter@_W@__crt_stdio_output@@@__crt_stdio_output@@IAE_NAA_W@Z 1004ebae f i libucrt:output.obj
 0001:0004dbca       ??$extract_argument_from_va_list@_W_W@?$standard_base@_WV?$string_output_adapter@_W@__crt_stdio_output@@@__crt_stdio_output@@IAE_NAA_W@Z 1004ebca f i libucrt:output.obj
 0001:0004dbe6       ??$get_parameter_type@D@?$positional_parameter_base@DV?$stream_output_adapter@D@__crt_stdio_output@@@__crt_stdio_output@@CA?AW4parameter_type@01@PAD@Z 1004ebe6 f i libucrt:output.obj
 0001:0004dbea       ??$get_parameter_type@D@?$positional_parameter_base@DV?$string_output_adapter@D@__crt_stdio_output@@@__crt_stdio_output@@CA?AW4parameter_type@01@PAD@Z 1004ebea f i libucrt:output.obj
 0001:0004dbee       ??$get_parameter_type@D@?$positional_parameter_base@_WV?$stream_output_adapter@_W@__crt_stdio_output@@@__crt_stdio_output@@CA?AW4parameter_type@01@PAD@Z 1004ebee f i libucrt:output.obj
 0001:0004dbf2       ??$get_parameter_type@D@?$positional_parameter_base@_WV?$string_output_adapter@_W@__crt_stdio_output@@@__crt_stdio_output@@CA?AW4parameter_type@01@PAD@Z 1004ebf2 f i libucrt:output.obj
 0001:0004dbf6       ??$get_parameter_type@Uansi_string@?1??type_case_Z@?$output_processor@DV?$stream_output_adapter@D@__crt_stdio_output@@V?$positional_parameter_base@DV?$stream_output_adapter@D@__crt_stdio_output@@@2@@__crt_stdio_output@@AAE_NXZ@@?$positional_parameter_base@DV?$stream_output_adapter@D@__crt_stdio_output@@@__crt_stdio_output@@CA?AW4parameter_type@01@PAUansi_string@?1??type_case_Z@?$output_processor@DV?$stream_output_adapter@D@__crt_stdio_output@@V?$positional_parameter_base@DV?$stream_output_adapter@D@__crt_stdio_output@@@2@@1@AAE_NXZ@@Z 1004ebf6 f i libucrt:output.obj
 0001:0004dbfa       ??$get_parameter_type@Uansi_string@?1??type_case_Z@?$output_processor@DV?$string_output_adapter@D@__crt_stdio_output@@V?$positional_parameter_base@DV?$string_output_adapter@D@__crt_stdio_output@@@2@@__crt_stdio_output@@AAE_NXZ@@?$positional_parameter_base@DV?$string_output_adapter@D@__crt_stdio_output@@@__crt_stdio_output@@CA?AW4parameter_type@01@PAUansi_string@?1??type_case_Z@?$output_processor@DV?$string_output_adapter@D@__crt_stdio_output@@V?$positional_parameter_base@DV?$string_output_adapter@D@__crt_stdio_output@@@2@@1@AAE_NXZ@@Z 1004ebfa f i libucrt:output.obj
 0001:0004dbfe       ??$get_parameter_type@Uansi_string@?1??type_case_Z@?$output_processor@_WV?$stream_output_adapter@_W@__crt_stdio_output@@V?$positional_parameter_base@_WV?$stream_output_adapter@_W@__crt_stdio_output@@@2@@__crt_stdio_output@@AAE_NXZ@@?$positional_parameter_base@_WV?$stream_output_adapter@_W@__crt_stdio_output@@@__crt_stdio_output@@CA?AW4parameter_type@01@PAUansi_string@?1??type_case_Z@?$output_processor@_WV?$stream_output_adapter@_W@__crt_stdio_output@@V?$positional_parameter_base@_WV?$stream_output_adapter@_W@__crt_stdio_output@@@2@@1@AAE_NXZ@@Z 1004ebfe f i libucrt:output.obj
 0001:0004dc02       ??$get_parameter_type@Uansi_string@?1??type_case_Z@?$output_processor@_WV?$string_output_adapter@_W@__crt_stdio_output@@V?$positional_parameter_base@_WV?$string_output_adapter@_W@__crt_stdio_output@@@2@@__crt_stdio_output@@AAE_NXZ@@?$positional_parameter_base@_WV?$string_output_adapter@_W@__crt_stdio_output@@@__crt_stdio_output@@CA?AW4parameter_type@01@PAUansi_string@?1??type_case_Z@?$output_processor@_WV?$string_output_adapter@_W@__crt_stdio_output@@V?$positional_parameter_base@_WV?$string_output_adapter@_W@__crt_stdio_output@@@2@@1@AAE_NXZ@@Z 1004ec02 f i libucrt:output.obj
 0001:0004dc06       ??$get_parameter_type@X@?$positional_parameter_base@DV?$stream_output_adapter@D@__crt_stdio_output@@@__crt_stdio_output@@CA?AW4parameter_type@01@PAX@Z 1004ec06 f i libucrt:output.obj
 0001:0004dc0a       ??$get_parameter_type@X@?$positional_parameter_base@DV?$string_output_adapter@D@__crt_stdio_output@@@__crt_stdio_output@@CA?AW4parameter_type@01@PAX@Z 1004ec0a f i libucrt:output.obj
 0001:0004dc0e       ??$get_parameter_type@X@?$positional_parameter_base@_WV?$stream_output_adapter@_W@__crt_stdio_output@@@__crt_stdio_output@@CA?AW4parameter_type@01@PAX@Z 1004ec0e f i libucrt:output.obj
 0001:0004dc12       ??$get_parameter_type@X@?$positional_parameter_base@_WV?$string_output_adapter@_W@__crt_stdio_output@@@__crt_stdio_output@@CA?AW4parameter_type@01@PAX@Z 1004ec12 f i libucrt:output.obj
 0001:0004dc16       ??$is_character_specifier@D@?$positional_parameter_base@DV?$stream_output_adapter@D@__crt_stdio_output@@@__crt_stdio_output@@CA_ND@Z 1004ec16 f i libucrt:output.obj
 0001:0004dc2e       ??$is_character_specifier@D@?$positional_parameter_base@DV?$string_output_adapter@D@__crt_stdio_output@@@__crt_stdio_output@@CA_ND@Z 1004ec2e f i libucrt:output.obj
 0001:0004dc46       ??$is_character_specifier@_W@?$positional_parameter_base@_WV?$stream_output_adapter@_W@__crt_stdio_output@@@__crt_stdio_output@@CA_N_W@Z 1004ec46 f i libucrt:output.obj
 0001:0004dc61       ??$is_character_specifier@_W@?$positional_parameter_base@_WV?$string_output_adapter@_W@__crt_stdio_output@@@__crt_stdio_output@@CA_N_W@Z 1004ec61 f i libucrt:output.obj
 0001:0004dc7c       ??$is_integral_specifier@D@?$positional_parameter_base@DV?$stream_output_adapter@D@__crt_stdio_output@@@__crt_stdio_output@@CA_ND@Z 1004ec7c f i libucrt:output.obj
 0001:0004dca8       ??$is_integral_specifier@D@?$positional_parameter_base@DV?$string_output_adapter@D@__crt_stdio_output@@@__crt_stdio_output@@CA_ND@Z 1004eca8 f i libucrt:output.obj
 0001:0004dcd4       ??$is_integral_specifier@_W@?$positional_parameter_base@_WV?$stream_output_adapter@_W@__crt_stdio_output@@@__crt_stdio_output@@CA_N_W@Z 1004ecd4 f i libucrt:output.obj
 0001:0004dd0f       ??$is_integral_specifier@_W@?$positional_parameter_base@_WV?$string_output_adapter@_W@__crt_stdio_output@@@__crt_stdio_output@@CA_N_W@Z 1004ed0f f i libucrt:output.obj
 0001:0004dd4a       ??$is_pointer_specifier@D@?$positional_parameter_base@DV?$stream_output_adapter@D@__crt_stdio_output@@@__crt_stdio_output@@CA_ND@Z 1004ed4a f i libucrt:output.obj
 0001:0004dd58       ??$is_pointer_specifier@D@?$positional_parameter_base@DV?$string_output_adapter@D@__crt_stdio_output@@@__crt_stdio_output@@CA_ND@Z 1004ed58 f i libucrt:output.obj
 0001:0004dd66       ??$is_pointer_specifier@_W@?$positional_parameter_base@_WV?$stream_output_adapter@_W@__crt_stdio_output@@@__crt_stdio_output@@CA_N_W@Z 1004ed66 f i libucrt:output.obj
 0001:0004dd75       ??$is_pointer_specifier@_W@?$positional_parameter_base@_WV?$string_output_adapter@_W@__crt_stdio_output@@@__crt_stdio_output@@CA_N_W@Z 1004ed75 f i libucrt:output.obj
 0001:0004dd84       ??$is_string_specifier@D@?$positional_parameter_base@DV?$stream_output_adapter@D@__crt_stdio_output@@@__crt_stdio_output@@CA_ND@Z 1004ed84 f i libucrt:output.obj
 0001:0004dd9c       ??$is_string_specifier@D@?$positional_parameter_base@DV?$string_output_adapter@D@__crt_stdio_output@@@__crt_stdio_output@@CA_ND@Z 1004ed9c f i libucrt:output.obj
 0001:0004ddb4       ??$is_string_specifier@_W@?$positional_parameter_base@_WV?$stream_output_adapter@_W@__crt_stdio_output@@@__crt_stdio_output@@CA_N_W@Z 1004edb4 f i libucrt:output.obj
 0001:0004ddcf       ??$is_string_specifier@_W@?$positional_parameter_base@_WV?$string_output_adapter@_W@__crt_stdio_output@@@__crt_stdio_output@@CA_N_W@Z 1004edcf f i libucrt:output.obj
 0001:0004ddea       ??$is_wide_character_specifier@D@__crt_stdio_output@@YA_N_KDW4length_modifier@0@@Z 1004edea f i libucrt:output.obj
 0001:0004de1b       ??$is_wide_character_specifier@_W@__crt_stdio_output@@YA_N_K_WW4length_modifier@0@@Z 1004ee1b f i libucrt:output.obj
 0001:0004de69       ??$peek_va_arg@C@__crt_stdio_output@@YACPAD@Z 1004ee69 f i libucrt:output.obj
 0001:0004de75       ??$peek_va_arg@E@__crt_stdio_output@@YAEPAD@Z 1004ee75 f i libucrt:output.obj
 0001:0004de81       ??$peek_va_arg@F@__crt_stdio_output@@YAFPAD@Z 1004ee81 f i libucrt:output.obj
 0001:0004de8e       ??$peek_va_arg@G@__crt_stdio_output@@YAGPAD@Z 1004ee8e f i libucrt:output.obj
 0001:0004de9b       ??$peek_va_arg@H@__crt_stdio_output@@YAHPAD@Z 1004ee9b f i libucrt:output.obj
 0001:0004dea7       ??$peek_va_arg@I@__crt_stdio_output@@YAIPAD@Z 1004eea7 f i libucrt:output.obj
 0001:0004deb3       ??$peek_va_arg@PAD@__crt_stdio_output@@YAPADPAD@Z 1004eeb3 f i libucrt:output.obj
 0001:0004debf       ??$peek_va_arg@PAUansi_string@?1??type_case_Z@?$output_processor@DV?$stream_output_adapter@D@__crt_stdio_output@@V?$positional_parameter_base@DV?$stream_output_adapter@D@__crt_stdio_output@@@2@@__crt_stdio_output@@AAE_NXZ@@__crt_stdio_output@@YAPAUansi_string@?1??type_case_Z@?$output_processor@DV?$stream_output_adapter@D@__crt_stdio_output@@V?$positional_parameter_base@DV?$stream_output_adapter@D@__crt_stdio_output@@@2@@0@AAE_NXZ@PAD@Z 1004eebf f i libucrt:output.obj
 0001:0004decb       ??$peek_va_arg@PAUansi_string@?1??type_case_Z@?$output_processor@DV?$string_output_adapter@D@__crt_stdio_output@@V?$positional_parameter_base@DV?$string_output_adapter@D@__crt_stdio_output@@@2@@__crt_stdio_output@@AAE_NXZ@@__crt_stdio_output@@YAPAUansi_string@?1??type_case_Z@?$output_processor@DV?$string_output_adapter@D@__crt_stdio_output@@V?$positional_parameter_base@DV?$string_output_adapter@D@__crt_stdio_output@@@2@@0@AAE_NXZ@PAD@Z 1004eecb f i libucrt:output.obj
 0001:0004ded7       ??$peek_va_arg@PAUansi_string@?1??type_case_Z@?$output_processor@_WV?$stream_output_adapter@_W@__crt_stdio_output@@V?$positional_parameter_base@_WV?$stream_output_adapter@_W@__crt_stdio_output@@@2@@__crt_stdio_output@@AAE_NXZ@@__crt_stdio_output@@YAPAUansi_string@?1??type_case_Z@?$output_processor@_WV?$stream_output_adapter@_W@__crt_stdio_output@@V?$positional_parameter_base@_WV?$stream_output_adapter@_W@__crt_stdio_output@@@2@@0@AAE_NXZ@PAD@Z 1004eed7 f i libucrt:output.obj
 0001:0004dee3       ??$peek_va_arg@PAUansi_string@?1??type_case_Z@?$output_processor@_WV?$string_output_adapter@_W@__crt_stdio_output@@V?$positional_parameter_base@_WV?$string_output_adapter@_W@__crt_stdio_output@@@2@@__crt_stdio_output@@AAE_NXZ@@__crt_stdio_output@@YAPAUansi_string@?1??type_case_Z@?$output_processor@_WV?$string_output_adapter@_W@__crt_stdio_output@@V?$positional_parameter_base@_WV?$string_output_adapter@_W@__crt_stdio_output@@@2@@0@AAE_NXZ@PAD@Z 1004eee3 f i libucrt:output.obj
 0001:0004deef       ??$peek_va_arg@PAX@__crt_stdio_output@@YAPAXPAD@Z 1004eeef f i libucrt:output.obj
 0001:0004defb       ??$peek_va_arg@U_CRT_DOUBLE@@@__crt_stdio_output@@YA?AU_CRT_DOUBLE@@PAD@Z 1004eefb f i libucrt:output.obj
 0001:0004df0a       ??$peek_va_arg@_J@__crt_stdio_output@@YA_JPAD@Z 1004ef0a f i libucrt:output.obj
 0001:0004df19       ??$peek_va_arg@_K@__crt_stdio_output@@YA_KPAD@Z 1004ef19 f i libucrt:output.obj
 0001:0004df28       ??$peek_va_arg@_W@__crt_stdio_output@@YA_WPAD@Z 1004ef28 f i libucrt:output.obj
 0001:0004df35       ??$puttc_nolock@ABDPAU_iobuf@@@?$__crt_char_traits@D@@SAHABD$$QAPAU_iobuf@@@Z 1004ef35 f i libucrt:output.obj
 0001:0004df4f       ??$puttc_nolock@AB_WPAU_iobuf@@@?$__crt_char_traits@_W@@SAGAB_W$$QAPAU_iobuf@@@Z 1004ef4f f i libucrt:output.obj
 0001:0004df69       ??$read_va_arg@C@__crt_stdio_output@@YACAAPAD@Z 1004ef69 f i libucrt:output.obj
 0001:0004df7b       ??$read_va_arg@E@__crt_stdio_output@@YAEAAPAD@Z 1004ef7b f i libucrt:output.obj
 0001:0004df8d       ??$read_va_arg@F@__crt_stdio_output@@YAFAAPAD@Z 1004ef8d f i libucrt:output.obj
 0001:0004dfa0       ??$read_va_arg@G@__crt_stdio_output@@YAGAAPAD@Z 1004efa0 f i libucrt:output.obj
 0001:0004dfb3       ??$read_va_arg@H@__crt_stdio_output@@YAHAAPAD@Z 1004efb3 f i libucrt:output.obj
 0001:0004dfc5       ??$read_va_arg@I@__crt_stdio_output@@YAIAAPAD@Z 1004efc5 f i libucrt:output.obj
 0001:0004dfd7       ??$read_va_arg@PAD@__crt_stdio_output@@YAPADAAPAD@Z 1004efd7 f i libucrt:output.obj
 0001:0004dfe9       ??$read_va_arg@PAUansi_string@?1??type_case_Z@?$output_processor@DV?$stream_output_adapter@D@__crt_stdio_output@@V?$format_validation_base@DV?$stream_output_adapter@D@__crt_stdio_output@@@2@@__crt_stdio_output@@AAE_NXZ@@__crt_stdio_output@@YAPAUansi_string@?1??type_case_Z@?$output_processor@DV?$stream_output_adapter@D@__crt_stdio_output@@V?$format_validation_base@DV?$stream_output_adapter@D@__crt_stdio_output@@@2@@0@AAE_NXZ@AAPAD@Z 1004efe9 f i libucrt:output.obj
 0001:0004dffb       ??$read_va_arg@PAUansi_string@?1??type_case_Z@?$output_processor@DV?$stream_output_adapter@D@__crt_stdio_output@@V?$positional_parameter_base@DV?$stream_output_adapter@D@__crt_stdio_output@@@2@@__crt_stdio_output@@AAE_NXZ@@__crt_stdio_output@@YAPAUansi_string@?1??type_case_Z@?$output_processor@DV?$stream_output_adapter@D@__crt_stdio_output@@V?$positional_parameter_base@DV?$stream_output_adapter@D@__crt_stdio_output@@@2@@0@AAE_NXZ@AAPAD@Z 1004effb f i libucrt:output.obj
 0001:0004e00d       ??$read_va_arg@PAUansi_string@?1??type_case_Z@?$output_processor@DV?$stream_output_adapter@D@__crt_stdio_output@@V?$standard_base@DV?$stream_output_adapter@D@__crt_stdio_output@@@2@@__crt_stdio_output@@AAE_NXZ@@__crt_stdio_output@@YAPAUansi_string@?1??type_case_Z@?$output_processor@DV?$stream_output_adapter@D@__crt_stdio_output@@V?$standard_base@DV?$stream_output_adapter@D@__crt_stdio_output@@@2@@0@AAE_NXZ@AAPAD@Z 1004f00d f i libucrt:output.obj
 0001:0004e01f       ??$read_va_arg@PAUansi_string@?1??type_case_Z@?$output_processor@DV?$string_output_adapter@D@__crt_stdio_output@@V?$format_validation_base@DV?$string_output_adapter@D@__crt_stdio_output@@@2@@__crt_stdio_output@@AAE_NXZ@@__crt_stdio_output@@YAPAUansi_string@?1??type_case_Z@?$output_processor@DV?$string_output_adapter@D@__crt_stdio_output@@V?$format_validation_base@DV?$string_output_adapter@D@__crt_stdio_output@@@2@@0@AAE_NXZ@AAPAD@Z 1004f01f f i libucrt:output.obj
 0001:0004e031       ??$read_va_arg@PAUansi_string@?1??type_case_Z@?$output_processor@DV?$string_output_adapter@D@__crt_stdio_output@@V?$positional_parameter_base@DV?$string_output_adapter@D@__crt_stdio_output@@@2@@__crt_stdio_output@@AAE_NXZ@@__crt_stdio_output@@YAPAUansi_string@?1??type_case_Z@?$output_processor@DV?$string_output_adapter@D@__crt_stdio_output@@V?$positional_parameter_base@DV?$string_output_adapter@D@__crt_stdio_output@@@2@@0@AAE_NXZ@AAPAD@Z 1004f031 f i libucrt:output.obj
 0001:0004e043       ??$read_va_arg@PAUansi_string@?1??type_case_Z@?$output_processor@DV?$string_output_adapter@D@__crt_stdio_output@@V?$standard_base@DV?$string_output_adapter@D@__crt_stdio_output@@@2@@__crt_stdio_output@@AAE_NXZ@@__crt_stdio_output@@YAPAUansi_string@?1??type_case_Z@?$output_processor@DV?$string_output_adapter@D@__crt_stdio_output@@V?$standard_base@DV?$string_output_adapter@D@__crt_stdio_output@@@2@@0@AAE_NXZ@AAPAD@Z 1004f043 f i libucrt:output.obj
 0001:0004e055       ??$read_va_arg@PAUansi_string@?1??type_case_Z@?$output_processor@_WV?$stream_output_adapter@_W@__crt_stdio_output@@V?$format_validation_base@_WV?$stream_output_adapter@_W@__crt_stdio_output@@@2@@__crt_stdio_output@@AAE_NXZ@@__crt_stdio_output@@YAPAUansi_string@?1??type_case_Z@?$output_processor@_WV?$stream_output_adapter@_W@__crt_stdio_output@@V?$format_validation_base@_WV?$stream_output_adapter@_W@__crt_stdio_output@@@2@@0@AAE_NXZ@AAPAD@Z 1004f055 f i libucrt:output.obj
 0001:0004e067       ??$read_va_arg@PAUansi_string@?1??type_case_Z@?$output_processor@_WV?$stream_output_adapter@_W@__crt_stdio_output@@V?$positional_parameter_base@_WV?$stream_output_adapter@_W@__crt_stdio_output@@@2@@__crt_stdio_output@@AAE_NXZ@@__crt_stdio_output@@YAPAUansi_string@?1??type_case_Z@?$output_processor@_WV?$stream_output_adapter@_W@__crt_stdio_output@@V?$positional_parameter_base@_WV?$stream_output_adapter@_W@__crt_stdio_output@@@2@@0@AAE_NXZ@AAPAD@Z 1004f067 f i libucrt:output.obj
 0001:0004e079       ??$read_va_arg@PAUansi_string@?1??type_case_Z@?$output_processor@_WV?$stream_output_adapter@_W@__crt_stdio_output@@V?$standard_base@_WV?$stream_output_adapter@_W@__crt_stdio_output@@@2@@__crt_stdio_output@@AAE_NXZ@@__crt_stdio_output@@YAPAUansi_string@?1??type_case_Z@?$output_processor@_WV?$stream_output_adapter@_W@__crt_stdio_output@@V?$standard_base@_WV?$stream_output_adapter@_W@__crt_stdio_output@@@2@@0@AAE_NXZ@AAPAD@Z 1004f079 f i libucrt:output.obj
 0001:0004e08b       ??$read_va_arg@PAUansi_string@?1??type_case_Z@?$output_processor@_WV?$string_output_adapter@_W@__crt_stdio_output@@V?$format_validation_base@_WV?$string_output_adapter@_W@__crt_stdio_output@@@2@@__crt_stdio_output@@AAE_NXZ@@__crt_stdio_output@@YAPAUansi_string@?1??type_case_Z@?$output_processor@_WV?$string_output_adapter@_W@__crt_stdio_output@@V?$format_validation_base@_WV?$string_output_adapter@_W@__crt_stdio_output@@@2@@0@AAE_NXZ@AAPAD@Z 1004f08b f i libucrt:output.obj
 0001:0004e09d       ??$read_va_arg@PAUansi_string@?1??type_case_Z@?$output_processor@_WV?$string_output_adapter@_W@__crt_stdio_output@@V?$positional_parameter_base@_WV?$string_output_adapter@_W@__crt_stdio_output@@@2@@__crt_stdio_output@@AAE_NXZ@@__crt_stdio_output@@YAPAUansi_string@?1??type_case_Z@?$output_processor@_WV?$string_output_adapter@_W@__crt_stdio_output@@V?$positional_parameter_base@_WV?$string_output_adapter@_W@__crt_stdio_output@@@2@@0@AAE_NXZ@AAPAD@Z 1004f09d f i libucrt:output.obj
 0001:0004e0af       ??$read_va_arg@PAUansi_string@?1??type_case_Z@?$output_processor@_WV?$string_output_adapter@_W@__crt_stdio_output@@V?$standard_base@_WV?$string_output_adapter@_W@__crt_stdio_output@@@2@@__crt_stdio_output@@AAE_NXZ@@__crt_stdio_output@@YAPAUansi_string@?1??type_case_Z@?$output_processor@_WV?$string_output_adapter@_W@__crt_stdio_output@@V?$standard_base@_WV?$string_output_adapter@_W@__crt_stdio_output@@@2@@0@AAE_NXZ@AAPAD@Z 1004f0af f i libucrt:output.obj
 0001:0004e0c1       ??$read_va_arg@PAX@__crt_stdio_output@@YAPAXAAPAD@Z 1004f0c1 f i libucrt:output.obj
 0001:0004e0d3       ??$read_va_arg@U_CRT_DOUBLE@@@__crt_stdio_output@@YA?AU_CRT_DOUBLE@@AAPAD@Z 1004f0d3 f i libucrt:output.obj
 0001:0004e0e9       ??$read_va_arg@_J@__crt_stdio_output@@YA_JAAPAD@Z 1004f0e9 f i libucrt:output.obj
 0001:0004e0fe       ??$read_va_arg@_K@__crt_stdio_output@@YA_KAAPAD@Z 1004f0fe f i libucrt:output.obj
 0001:0004e113       ??$read_va_arg@_W@__crt_stdio_output@@YA_WAAPAD@Z 1004f113 f i libucrt:output.obj
 0001:0004e126       ??$scratch_count@D@formatting_buffer@__crt_stdio_output@@QBEIXZ 1004f126 f i libucrt:output.obj
 0001:0004e12b       ??$scratch_data@D@formatting_buffer@__crt_stdio_output@@QAEPADXZ 1004f12b f i libucrt:output.obj
 0001:0004e149       ??$tcstol@AAPBDPAPADH@?$__crt_char_traits@D@@SAJAAPBD$$QAPAPAD$$QAH@Z 1004f149 f i libucrt:output.obj
 0001:0004e167       ??$tcstol@AAPB_WPAPA_WH@?$__crt_char_traits@_W@@SAJAAPB_W$$QAPAPA_W$$QAH@Z 1004f167 f i libucrt:output.obj
 0001:0004e185       ??$tcstol@PBDPAPADH@?$__crt_char_traits@D@@SAJ$$QAPBD$$QAPAPAD$$QAH@Z 1004f185 f i libucrt:output.obj
 0001:0004e1a3       ??$tcstol@PB_WPAPA_WH@?$__crt_char_traits@_W@@SAJ$$QAPB_W$$QAPAPA_W$$QAH@Z 1004f1a3 f i libucrt:output.obj
 0001:0004e1c1       ??$type_case_integer_parse_into_buffer@I@?$output_processor@DV?$stream_output_adapter@D@__crt_stdio_output@@V?$format_validation_base@DV?$stream_output_adapter@D@__crt_stdio_output@@@2@@__crt_stdio_output@@AAEXII_N@Z 1004f1c1 f i libucrt:output.obj
 0001:0004e234       ??$type_case_integer_parse_into_buffer@I@?$output_processor@DV?$stream_output_adapter@D@__crt_stdio_output@@V?$positional_parameter_base@DV?$stream_output_adapter@D@__crt_stdio_output@@@2@@__crt_stdio_output@@AAEXII_N@Z 1004f234 f i libucrt:output.obj
 0001:0004e2a7       ??$type_case_integer_parse_into_buffer@I@?$output_processor@DV?$stream_output_adapter@D@__crt_stdio_output@@V?$standard_base@DV?$stream_output_adapter@D@__crt_stdio_output@@@2@@__crt_stdio_output@@AAEXII_N@Z 1004f2a7 f i libucrt:output.obj
 0001:0004e31a       ??$type_case_integer_parse_into_buffer@I@?$output_processor@DV?$string_output_adapter@D@__crt_stdio_output@@V?$format_validation_base@DV?$string_output_adapter@D@__crt_stdio_output@@@2@@__crt_stdio_output@@AAEXII_N@Z 1004f31a f i libucrt:output.obj
 0001:0004e38d       ??$type_case_integer_parse_into_buffer@I@?$output_processor@DV?$string_output_adapter@D@__crt_stdio_output@@V?$positional_parameter_base@DV?$string_output_adapter@D@__crt_stdio_output@@@2@@__crt_stdio_output@@AAEXII_N@Z 1004f38d f i libucrt:output.obj
 0001:0004e400       ??$type_case_integer_parse_into_buffer@I@?$output_processor@DV?$string_output_adapter@D@__crt_stdio_output@@V?$standard_base@DV?$string_output_adapter@D@__crt_stdio_output@@@2@@__crt_stdio_output@@AAEXII_N@Z 1004f400 f i libucrt:output.obj
 0001:0004e473       ??$type_case_integer_parse_into_buffer@I@?$output_processor@_WV?$stream_output_adapter@_W@__crt_stdio_output@@V?$format_validation_base@_WV?$stream_output_adapter@_W@__crt_stdio_output@@@2@@__crt_stdio_output@@AAEXII_N@Z 1004f473 f i libucrt:output.obj
 0001:0004e4fa       ??$type_case_integer_parse_into_buffer@I@?$output_processor@_WV?$stream_output_adapter@_W@__crt_stdio_output@@V?$positional_parameter_base@_WV?$stream_output_adapter@_W@__crt_stdio_output@@@2@@__crt_stdio_output@@AAEXII_N@Z 1004f4fa f i libucrt:output.obj
 0001:0004e581       ??$type_case_integer_parse_into_buffer@I@?$output_processor@_WV?$stream_output_adapter@_W@__crt_stdio_output@@V?$standard_base@_WV?$stream_output_adapter@_W@__crt_stdio_output@@@2@@__crt_stdio_output@@AAEXII_N@Z 1004f581 f i libucrt:output.obj
 0001:0004e608       ??$type_case_integer_parse_into_buffer@I@?$output_processor@_WV?$string_output_adapter@_W@__crt_stdio_output@@V?$format_validation_base@_WV?$string_output_adapter@_W@__crt_stdio_output@@@2@@__crt_stdio_output@@AAEXII_N@Z 1004f608 f i libucrt:output.obj
 0001:0004e68f       ??$type_case_integer_parse_into_buffer@I@?$output_processor@_WV?$string_output_adapter@_W@__crt_stdio_output@@V?$positional_parameter_base@_WV?$string_output_adapter@_W@__crt_stdio_output@@@2@@__crt_stdio_output@@AAEXII_N@Z 1004f68f f i libucrt:output.obj
 0001:0004e716       ??$type_case_integer_parse_into_buffer@I@?$output_processor@_WV?$string_output_adapter@_W@__crt_stdio_output@@V?$standard_base@_WV?$string_output_adapter@_W@__crt_stdio_output@@@2@@__crt_stdio_output@@AAEXII_N@Z 1004f716 f i libucrt:output.obj
 0001:0004e79d       ??$type_case_integer_parse_into_buffer@_K@?$output_processor@DV?$stream_output_adapter@D@__crt_stdio_output@@V?$format_validation_base@DV?$stream_output_adapter@D@__crt_stdio_output@@@2@@__crt_stdio_output@@AAEX_KI_N@Z 1004f79d f i libucrt:output.obj
 0001:0004e82b       ??$type_case_integer_parse_into_buffer@_K@?$output_processor@DV?$stream_output_adapter@D@__crt_stdio_output@@V?$positional_parameter_base@DV?$stream_output_adapter@D@__crt_stdio_output@@@2@@__crt_stdio_output@@AAEX_KI_N@Z 1004f82b f i libucrt:output.obj
 0001:0004e8b9       ??$type_case_integer_parse_into_buffer@_K@?$output_processor@DV?$stream_output_adapter@D@__crt_stdio_output@@V?$standard_base@DV?$stream_output_adapter@D@__crt_stdio_output@@@2@@__crt_stdio_output@@AAEX_KI_N@Z 1004f8b9 f i libucrt:output.obj
 0001:0004e947       ??$type_case_integer_parse_into_buffer@_K@?$output_processor@DV?$string_output_adapter@D@__crt_stdio_output@@V?$format_validation_base@DV?$string_output_adapter@D@__crt_stdio_output@@@2@@__crt_stdio_output@@AAEX_KI_N@Z 1004f947 f i libucrt:output.obj
 0001:0004e9d5       ??$type_case_integer_parse_into_buffer@_K@?$output_processor@DV?$string_output_adapter@D@__crt_stdio_output@@V?$positional_parameter_base@DV?$string_output_adapter@D@__crt_stdio_output@@@2@@__crt_stdio_output@@AAEX_KI_N@Z 1004f9d5 f i libucrt:output.obj
 0001:0004ea63       ??$type_case_integer_parse_into_buffer@_K@?$output_processor@DV?$string_output_adapter@D@__crt_stdio_output@@V?$standard_base@DV?$string_output_adapter@D@__crt_stdio_output@@@2@@__crt_stdio_output@@AAEX_KI_N@Z 1004fa63 f i libucrt:output.obj
 0001:0004eaf1       ??$type_case_integer_parse_into_buffer@_K@?$output_processor@_WV?$stream_output_adapter@_W@__crt_stdio_output@@V?$format_validation_base@_WV?$stream_output_adapter@_W@__crt_stdio_output@@@2@@__crt_stdio_output@@AAEX_KI_N@Z 1004faf1 f i libucrt:output.obj
 0001:0004eb93       ??$type_case_integer_parse_into_buffer@_K@?$output_processor@_WV?$stream_output_adapter@_W@__crt_stdio_output@@V?$positional_parameter_base@_WV?$stream_output_adapter@_W@__crt_stdio_output@@@2@@__crt_stdio_output@@AAEX_KI_N@Z 1004fb93 f i libucrt:output.obj
 0001:0004ec35       ??$type_case_integer_parse_into_buffer@_K@?$output_processor@_WV?$stream_output_adapter@_W@__crt_stdio_output@@V?$standard_base@_WV?$stream_output_adapter@_W@__crt_stdio_output@@@2@@__crt_stdio_output@@AAEX_KI_N@Z 1004fc35 f i libucrt:output.obj
 0001:0004ecd7       ??$type_case_integer_parse_into_buffer@_K@?$output_processor@_WV?$string_output_adapter@_W@__crt_stdio_output@@V?$format_validation_base@_WV?$string_output_adapter@_W@__crt_stdio_output@@@2@@__crt_stdio_output@@AAEX_KI_N@Z 1004fcd7 f i libucrt:output.obj
 0001:0004ed79       ??$type_case_integer_parse_into_buffer@_K@?$output_processor@_WV?$string_output_adapter@_W@__crt_stdio_output@@V?$positional_parameter_base@_WV?$string_output_adapter@_W@__crt_stdio_output@@@2@@__crt_stdio_output@@AAEX_KI_N@Z 1004fd79 f i libucrt:output.obj
 0001:0004ee1b       ??$type_case_integer_parse_into_buffer@_K@?$output_processor@_WV?$string_output_adapter@_W@__crt_stdio_output@@V?$standard_base@_WV?$string_output_adapter@_W@__crt_stdio_output@@@2@@__crt_stdio_output@@AAEX_KI_N@Z 1004fe1b f i libucrt:output.obj
 0001:0004eebd       ??$write_multiple_characters@V?$stream_output_adapter@D@__crt_stdio_output@@D@__crt_stdio_output@@YAXABV?$stream_output_adapter@D@0@DHQAH@Z 1004febd f i libucrt:output.obj
 0001:0004eef8       ??$write_multiple_characters@V?$stream_output_adapter@_W@__crt_stdio_output@@D@__crt_stdio_output@@YAXABV?$stream_output_adapter@_W@0@DHQAH@Z 1004fef8 f i libucrt:output.obj
 0001:0004ef38       ??$write_multiple_characters@V?$string_output_adapter@D@__crt_stdio_output@@D@__crt_stdio_output@@YAXABV?$string_output_adapter@D@0@DHQAH@Z 1004ff38 f i libucrt:output.obj
 0001:0004ef64       ??$write_multiple_characters@V?$string_output_adapter@_W@__crt_stdio_output@@D@__crt_stdio_output@@YAXABV?$string_output_adapter@_W@0@DHQAH@Z 1004ff64 f i libucrt:output.obj
 0001:0004f15d       ??0?$common_data@D@__crt_stdio_output@@IAE@XZ 1005015d f i libucrt:output.obj
 0001:0004f1a2       ??0?$common_data@_W@__crt_stdio_output@@IAE@XZ 100501a2 f i libucrt:output.obj
 0001:0004f1ec       ??0?$output_adapter_data@DV?$stream_output_adapter@D@__crt_stdio_output@@@__crt_stdio_output@@IAE@ABV?$stream_output_adapter@D@1@_KQBDQAU__crt_locale_pointers@@QAD@Z 100501ec f i libucrt:output.obj
 0001:0004f228       ??0?$output_adapter_data@DV?$string_output_adapter@D@__crt_stdio_output@@@__crt_stdio_output@@IAE@ABV?$string_output_adapter@D@1@_KQBDQAU__crt_locale_pointers@@QAD@Z 10050228 f i libucrt:output.obj
 0001:0004f264       ??0?$output_adapter_data@_WV?$stream_output_adapter@_W@__crt_stdio_output@@@__crt_stdio_output@@IAE@ABV?$stream_output_adapter@_W@1@_KQB_WQAU__crt_locale_pointers@@QAD@Z 10050264 f i libucrt:output.obj
 0001:0004f2a0       ??0?$output_adapter_data@_WV?$string_output_adapter@_W@__crt_stdio_output@@@__crt_stdio_output@@IAE@ABV?$string_output_adapter@_W@1@_KQB_WQAU__crt_locale_pointers@@QAD@Z 100502a0 f i libucrt:output.obj
 0001:0004f2dc       ??0?$output_processor@DV?$stream_output_adapter@D@__crt_stdio_output@@V?$format_validation_base@DV?$stream_output_adapter@D@__crt_stdio_output@@@2@@__crt_stdio_output@@QAE@ABV?$stream_output_adapter@D@1@_KQBDQAU__crt_locale_pointers@@QAD@Z 100502dc f i libucrt:output.obj
 0001:0004f309       ??0?$output_processor@DV?$stream_output_adapter@D@__crt_stdio_output@@V?$positional_parameter_base@DV?$stream_output_adapter@D@__crt_stdio_output@@@2@@__crt_stdio_output@@QAE@ABV?$stream_output_adapter@D@1@_KQBDQAU__crt_locale_pointers@@QAD@Z 10050309 f i libucrt:output.obj
 0001:0004f330       ??0?$output_processor@DV?$stream_output_adapter@D@__crt_stdio_output@@V?$standard_base@DV?$stream_output_adapter@D@__crt_stdio_output@@@2@@__crt_stdio_output@@QAE@ABV?$stream_output_adapter@D@1@_KQBDQAU__crt_locale_pointers@@QAD@Z 10050330 f i libucrt:output.obj
 0001:0004f35d       ??0?$output_processor@DV?$string_output_adapter@D@__crt_stdio_output@@V?$format_validation_base@DV?$string_output_adapter@D@__crt_stdio_output@@@2@@__crt_stdio_output@@QAE@ABV?$string_output_adapter@D@1@_KQBDQAU__crt_locale_pointers@@QAD@Z 1005035d f i libucrt:output.obj
 0001:0004f38a       ??0?$output_processor@DV?$string_output_adapter@D@__crt_stdio_output@@V?$positional_parameter_base@DV?$string_output_adapter@D@__crt_stdio_output@@@2@@__crt_stdio_output@@QAE@ABV?$string_output_adapter@D@1@_KQBDQAU__crt_locale_pointers@@QAD@Z 1005038a f i libucrt:output.obj
 0001:0004f3b1       ??0?$output_processor@DV?$string_output_adapter@D@__crt_stdio_output@@V?$standard_base@DV?$string_output_adapter@D@__crt_stdio_output@@@2@@__crt_stdio_output@@QAE@ABV?$string_output_adapter@D@1@_KQBDQAU__crt_locale_pointers@@QAD@Z 100503b1 f i libucrt:output.obj
 0001:0004f3de       ??0?$output_processor@_WV?$stream_output_adapter@_W@__crt_stdio_output@@V?$format_validation_base@_WV?$stream_output_adapter@_W@__crt_stdio_output@@@2@@__crt_stdio_output@@QAE@ABV?$stream_output_adapter@_W@1@_KQB_WQAU__crt_locale_pointers@@QAD@Z 100503de f i libucrt:output.obj
 0001:0004f40b       ??0?$output_processor@_WV?$stream_output_adapter@_W@__crt_stdio_output@@V?$positional_parameter_base@_WV?$stream_output_adapter@_W@__crt_stdio_output@@@2@@__crt_stdio_output@@QAE@ABV?$stream_output_adapter@_W@1@_KQB_WQAU__crt_locale_pointers@@QAD@Z 1005040b f i libucrt:output.obj
 0001:0004f432       ??0?$output_processor@_WV?$stream_output_adapter@_W@__crt_stdio_output@@V?$standard_base@_WV?$stream_output_adapter@_W@__crt_stdio_output@@@2@@__crt_stdio_output@@QAE@ABV?$stream_output_adapter@_W@1@_KQB_WQAU__crt_locale_pointers@@QAD@Z 10050432 f i libucrt:output.obj
 0001:0004f45f       ??0?$output_processor@_WV?$string_output_adapter@_W@__crt_stdio_output@@V?$format_validation_base@_WV?$string_output_adapter@_W@__crt_stdio_output@@@2@@__crt_stdio_output@@QAE@ABV?$string_output_adapter@_W@1@_KQB_WQAU__crt_locale_pointers@@QAD@Z 1005045f f i libucrt:output.obj
 0001:0004f48c       ??0?$output_processor@_WV?$string_output_adapter@_W@__crt_stdio_output@@V?$positional_parameter_base@_WV?$string_output_adapter@_W@__crt_stdio_output@@@2@@__crt_stdio_output@@QAE@ABV?$string_output_adapter@_W@1@_KQB_WQAU__crt_locale_pointers@@QAD@Z 1005048c f i libucrt:output.obj
 0001:0004f4b3       ??0?$output_processor@_WV?$string_output_adapter@_W@__crt_stdio_output@@V?$standard_base@_WV?$string_output_adapter@_W@__crt_stdio_output@@@2@@__crt_stdio_output@@QAE@ABV?$string_output_adapter@_W@1@_KQB_WQAU__crt_locale_pointers@@QAD@Z 100504b3 f i libucrt:output.obj
 0001:0004f4e0       ??0?$stream_output_adapter@D@__crt_stdio_output@@QAE@QAU_iobuf@@@Z 100504e0 f i libucrt:output.obj
 0001:0004f4f0       ??0?$stream_output_adapter@_W@__crt_stdio_output@@QAE@QAU_iobuf@@@Z 100504f0 f i libucrt:output.obj
 0001:0004f500       ??0?$string_output_adapter@D@__crt_stdio_output@@QAE@QAU?$string_output_adapter_context@D@1@@Z 10050500 f i libucrt:output.obj
 0001:0004f510       ??0?$string_output_adapter@_W@__crt_stdio_output@@QAE@QAU?$string_output_adapter_context@_W@1@@Z 10050510 f i libucrt:output.obj
 0001:0004f520       ??0_LocaleUpdate@@QAE@QAU__crt_locale_pointers@@@Z 10050520 f i libucrt:output.obj
 0001:0004f5a3       ??0__acrt_stdio_temporary_buffering_guard@@QAE@QAU_iobuf@@@Z 100505a3 f i libucrt:output.obj
 0001:0004f5c1       ??0__crt_deferred_errno_cache@@QAE@XZ 100505c1 f i libucrt:output.obj
 0001:0004f5c7       ??0__crt_errno_guard@@QAE@QAH@Z 100505c7 f i libucrt:output.obj
 0001:0004f5df       ??0__crt_stdio_stream@@QAE@QAU_iobuf@@@Z 100505df f i libucrt:output.obj
 0001:0004f5f0       ??0formatting_buffer@__crt_stdio_output@@QAE@XZ 100505f0 f i libucrt:output.obj
 0001:0004f607       ??1?$common_data@D@__crt_stdio_output@@QAE@XZ 10050607 f i libucrt:output.obj
 0001:0004f60f       ??1?$common_data@_W@__crt_stdio_output@@QAE@XZ 1005060f f i libucrt:output.obj
 0001:0004f617       ??1?$format_validation_base@DV?$stream_output_adapter@D@__crt_stdio_output@@@__crt_stdio_output@@QAE@XZ 10050617 f i libucrt:output.obj
 0001:0004f61f       ??1?$format_validation_base@DV?$string_output_adapter@D@__crt_stdio_output@@@__crt_stdio_output@@QAE@XZ 1005061f f i libucrt:output.obj
 0001:0004f627       ??1?$format_validation_base@_WV?$stream_output_adapter@_W@__crt_stdio_output@@@__crt_stdio_output@@QAE@XZ 10050627 f i libucrt:output.obj
 0001:0004f62f       ??1?$format_validation_base@_WV?$string_output_adapter@_W@__crt_stdio_output@@@__crt_stdio_output@@QAE@XZ 1005062f f i libucrt:output.obj
 0001:0004f637       ??1?$output_adapter_data@DV?$stream_output_adapter@D@__crt_stdio_output@@@__crt_stdio_output@@QAE@XZ 10050637 f i libucrt:output.obj
 0001:0004f63f       ??1?$output_adapter_data@DV?$string_output_adapter@D@__crt_stdio_output@@@__crt_stdio_output@@QAE@XZ 1005063f f i libucrt:output.obj
 0001:0004f647       ??1?$output_adapter_data@_WV?$stream_output_adapter@_W@__crt_stdio_output@@@__crt_stdio_output@@QAE@XZ 10050647 f i libucrt:output.obj
 0001:0004f64f       ??1?$output_adapter_data@_WV?$string_output_adapter@_W@__crt_stdio_output@@@__crt_stdio_output@@QAE@XZ 1005064f f i libucrt:output.obj
 0001:0004f657       ??1?$output_processor@DV?$stream_output_adapter@D@__crt_stdio_output@@V?$format_validation_base@DV?$stream_output_adapter@D@__crt_stdio_output@@@2@@__crt_stdio_output@@QAE@XZ 10050657 f i libucrt:output.obj
 0001:0004f65f       ??1?$output_processor@DV?$stream_output_adapter@D@__crt_stdio_output@@V?$positional_parameter_base@DV?$stream_output_adapter@D@__crt_stdio_output@@@2@@__crt_stdio_output@@QAE@XZ 1005065f f i libucrt:output.obj
 0001:0004f667       ??1?$output_processor@DV?$stream_output_adapter@D@__crt_stdio_output@@V?$standard_base@DV?$stream_output_adapter@D@__crt_stdio_output@@@2@@__crt_stdio_output@@QAE@XZ 10050667 f i libucrt:output.obj
 0001:0004f66f       ??1?$output_processor@DV?$string_output_adapter@D@__crt_stdio_output@@V?$format_validation_base@DV?$string_output_adapter@D@__crt_stdio_output@@@2@@__crt_stdio_output@@QAE@XZ 1005066f f i libucrt:output.obj
 0001:0004f677       ??1?$output_processor@DV?$string_output_adapter@D@__crt_stdio_output@@V?$positional_parameter_base@DV?$string_output_adapter@D@__crt_stdio_output@@@2@@__crt_stdio_output@@QAE@XZ 10050677 f i libucrt:output.obj
 0001:0004f67f       ??1?$output_processor@DV?$string_output_adapter@D@__crt_stdio_output@@V?$standard_base@DV?$string_output_adapter@D@__crt_stdio_output@@@2@@__crt_stdio_output@@QAE@XZ 1005067f f i libucrt:output.obj
 0001:0004f687       ??1?$output_processor@_WV?$stream_output_adapter@_W@__crt_stdio_output@@V?$format_validation_base@_WV?$stream_output_adapter@_W@__crt_stdio_output@@@2@@__crt_stdio_output@@QAE@XZ 10050687 f i libucrt:output.obj
 0001:0004f68f       ??1?$output_processor@_WV?$stream_output_adapter@_W@__crt_stdio_output@@V?$positional_parameter_base@_WV?$stream_output_adapter@_W@__crt_stdio_output@@@2@@__crt_stdio_output@@QAE@XZ 1005068f f i libucrt:output.obj
 0001:0004f697       ??1?$output_processor@_WV?$stream_output_adapter@_W@__crt_stdio_output@@V?$standard_base@_WV?$stream_output_adapter@_W@__crt_stdio_output@@@2@@__crt_stdio_output@@QAE@XZ 10050697 f i libucrt:output.obj
 0001:0004f69f       ??1?$output_processor@_WV?$string_output_adapter@_W@__crt_stdio_output@@V?$format_validation_base@_WV?$string_output_adapter@_W@__crt_stdio_output@@@2@@__crt_stdio_output@@QAE@XZ 1005069f f i libucrt:output.obj
 0001:0004f6a7       ??1?$output_processor@_WV?$string_output_adapter@_W@__crt_stdio_output@@V?$positional_parameter_base@_WV?$string_output_adapter@_W@__crt_stdio_output@@@2@@__crt_stdio_output@@QAE@XZ 100506a7 f i libucrt:output.obj
 0001:0004f6af       ??1?$output_processor@_WV?$string_output_adapter@_W@__crt_stdio_output@@V?$standard_base@_WV?$string_output_adapter@_W@__crt_stdio_output@@@2@@__crt_stdio_output@@QAE@XZ 100506af f i libucrt:output.obj
 0001:0004f6b7       ??1?$positional_parameter_base@DV?$stream_output_adapter@D@__crt_stdio_output@@@__crt_stdio_output@@QAE@XZ 100506b7 f i libucrt:output.obj
 0001:0004f6bf       ??1?$positional_parameter_base@DV?$string_output_adapter@D@__crt_stdio_output@@@__crt_stdio_output@@QAE@XZ 100506bf f i libucrt:output.obj
 0001:0004f6c7       ??1?$positional_parameter_base@_WV?$stream_output_adapter@_W@__crt_stdio_output@@@__crt_stdio_output@@QAE@XZ 100506c7 f i libucrt:output.obj
 0001:0004f6cf       ??1?$positional_parameter_base@_WV?$string_output_adapter@_W@__crt_stdio_output@@@__crt_stdio_output@@QAE@XZ 100506cf f i libucrt:output.obj
 0001:0004f6d7       ??1?$standard_base@DV?$stream_output_adapter@D@__crt_stdio_output@@@__crt_stdio_output@@QAE@XZ 100506d7 f i libucrt:output.obj
 0001:0004f6df       ??1?$standard_base@DV?$string_output_adapter@D@__crt_stdio_output@@@__crt_stdio_output@@QAE@XZ 100506df f i libucrt:output.obj
 0001:0004f6e7       ??1?$standard_base@_WV?$stream_output_adapter@_W@__crt_stdio_output@@@__crt_stdio_output@@QAE@XZ 100506e7 f i libucrt:output.obj
 0001:0004f6ef       ??1?$standard_base@_WV?$string_output_adapter@_W@__crt_stdio_output@@@__crt_stdio_output@@QAE@XZ 100506ef f i libucrt:output.obj
 0001:0004f6f7       ??1_LocaleUpdate@@QAE@XZ   100506f7 f i libucrt:output.obj
 0001:0004f707       ??1__acrt_stdio_temporary_buffering_guard@@QAE@XZ 10050707 f i libucrt:output.obj
 0001:0004f716       ??1__crt_errno_guard@@QAE@XZ 10050716 f i libucrt:output.obj
 0001:0004f727       ??1formatting_buffer@__crt_stdio_output@@QAE@XZ 10050727 f i libucrt:output.obj
 0001:0004f741       ??4?$__crt_unique_heap_ptr@DU__crt_internal_free_policy@@@@QAEAAV0@$$QAV0@@Z 10050741 f i libucrt:output.obj
 0001:0004f765       ??A?$spectre_mitigated_lookup_table@Ustate_transition_pair@__crt_stdio_output@@$0IA@@__crt_stdio_output@@QBEABUstate_transition_pair@1@I@Z 10050765 f i libucrt:output.obj
 0001:0004f777       ??C__crt_stdio_stream@@QBEPAU__crt_stdio_stream_data@@XZ 10050777 f i libucrt:output.obj
 0001:0004fcca       ?GetLocaleT@_LocaleUpdate@@QAEPAU__crt_locale_pointers@@XZ 10050cca f i libucrt:output.obj
 0001:0004fcce       ?adjust_hexit@?$output_processor@DV?$stream_output_adapter@D@__crt_stdio_output@@V?$format_validation_base@DV?$stream_output_adapter@D@__crt_stdio_output@@@2@@__crt_stdio_output@@CADH_N@Z 10050cce f i libucrt:output.obj
 0001:0004fce2       ?adjust_hexit@?$output_processor@DV?$stream_output_adapter@D@__crt_stdio_output@@V?$positional_parameter_base@DV?$stream_output_adapter@D@__crt_stdio_output@@@2@@__crt_stdio_output@@CADH_N@Z 10050ce2 f i libucrt:output.obj
 0001:0004fcf6       ?adjust_hexit@?$output_processor@DV?$stream_output_adapter@D@__crt_stdio_output@@V?$standard_base@DV?$stream_output_adapter@D@__crt_stdio_output@@@2@@__crt_stdio_output@@CADH_N@Z 10050cf6 f i libucrt:output.obj
 0001:0004fd0a       ?adjust_hexit@?$output_processor@DV?$string_output_adapter@D@__crt_stdio_output@@V?$format_validation_base@DV?$string_output_adapter@D@__crt_stdio_output@@@2@@__crt_stdio_output@@CADH_N@Z 10050d0a f i libucrt:output.obj
 0001:0004fd1e       ?adjust_hexit@?$output_processor@DV?$string_output_adapter@D@__crt_stdio_output@@V?$positional_parameter_base@DV?$string_output_adapter@D@__crt_stdio_output@@@2@@__crt_stdio_output@@CADH_N@Z 10050d1e f i libucrt:output.obj
 0001:0004fd32       ?adjust_hexit@?$output_processor@DV?$string_output_adapter@D@__crt_stdio_output@@V?$standard_base@DV?$string_output_adapter@D@__crt_stdio_output@@@2@@__crt_stdio_output@@CADH_N@Z 10050d32 f i libucrt:output.obj
 0001:0004fd46       ?adjust_hexit@?$output_processor@_WV?$stream_output_adapter@_W@__crt_stdio_output@@V?$format_validation_base@_WV?$stream_output_adapter@_W@__crt_stdio_output@@@2@@__crt_stdio_output@@CADH_N@Z 10050d46 f i libucrt:output.obj
 0001:0004fd5a       ?adjust_hexit@?$output_processor@_WV?$stream_output_adapter@_W@__crt_stdio_output@@V?$positional_parameter_base@_WV?$stream_output_adapter@_W@__crt_stdio_output@@@2@@__crt_stdio_output@@CADH_N@Z 10050d5a f i libucrt:output.obj
 0001:0004fd6e       ?adjust_hexit@?$output_processor@_WV?$stream_output_adapter@_W@__crt_stdio_output@@V?$standard_base@_WV?$stream_output_adapter@_W@__crt_stdio_output@@@2@@__crt_stdio_output@@CADH_N@Z 10050d6e f i libucrt:output.obj
 0001:0004fd82       ?adjust_hexit@?$output_processor@_WV?$string_output_adapter@_W@__crt_stdio_output@@V?$format_validation_base@_WV?$string_output_adapter@_W@__crt_stdio_output@@@2@@__crt_stdio_output@@CADH_N@Z 10050d82 f i libucrt:output.obj
 0001:0004fd96       ?adjust_hexit@?$output_processor@_WV?$string_output_adapter@_W@__crt_stdio_output@@V?$positional_parameter_base@_WV?$string_output_adapter@_W@__crt_stdio_output@@@2@@__crt_stdio_output@@CADH_N@Z 10050d96 f i libucrt:output.obj
 0001:0004fdaa       ?adjust_hexit@?$output_processor@_WV?$string_output_adapter@_W@__crt_stdio_output@@V?$standard_base@_WV?$string_output_adapter@_W@__crt_stdio_output@@@2@@__crt_stdio_output@@CADH_N@Z 10050daa f i libucrt:output.obj
 0001:0004fdbe       ?advance_to_next_pass@?$positional_parameter_base@DV?$stream_output_adapter@D@__crt_stdio_output@@@__crt_stdio_output@@IAE_NXZ 10050dbe f i libucrt:output.obj
 0001:0004fe0a       ?advance_to_next_pass@?$positional_parameter_base@DV?$string_output_adapter@D@__crt_stdio_output@@@__crt_stdio_output@@IAE_NXZ 10050e0a f i libucrt:output.obj
 0001:0004fe56       ?advance_to_next_pass@?$positional_parameter_base@_WV?$stream_output_adapter@_W@__crt_stdio_output@@@__crt_stdio_output@@IAE_NXZ 10050e56 f i libucrt:output.obj
 0001:0004fea2       ?advance_to_next_pass@?$positional_parameter_base@_WV?$string_output_adapter@_W@__crt_stdio_output@@@__crt_stdio_output@@IAE_NXZ 10050ea2 f i libucrt:output.obj
 0001:0004feee       ?advance_to_next_pass@?$standard_base@DV?$stream_output_adapter@D@__crt_stdio_output@@@__crt_stdio_output@@IAE_NXZ 10050eee f i libucrt:output.obj
 0001:0004feff       ?advance_to_next_pass@?$standard_base@DV?$string_output_adapter@D@__crt_stdio_output@@@__crt_stdio_output@@IAE_NXZ 10050eff f i libucrt:output.obj
 0001:0004ff10       ?advance_to_next_pass@?$standard_base@_WV?$stream_output_adapter@_W@__crt_stdio_output@@@__crt_stdio_output@@IAE_NXZ 10050f10 f i libucrt:output.obj
 0001:0004ff21       ?advance_to_next_pass@?$standard_base@_WV?$string_output_adapter@_W@__crt_stdio_output@@@__crt_stdio_output@@IAE_NXZ 10050f21 f i libucrt:output.obj
 0001:0004ff40       ?crop_zeroes@__crt_stdio_output@@YAXPADQAU__crt_locale_pointers@@@Z 10050f40 f i libucrt:output.obj
 0001:0004ffc1       ?find_next_state@?$output_processor@DV?$stream_output_adapter@D@__crt_stdio_output@@V?$format_validation_base@DV?$stream_output_adapter@D@__crt_stdio_output@@@2@@__crt_stdio_output@@ABE?AW4state@2@DW432@@Z 10050fc1 f i libucrt:output.obj
 0001:0004fff8       ?find_next_state@?$output_processor@DV?$stream_output_adapter@D@__crt_stdio_output@@V?$positional_parameter_base@DV?$stream_output_adapter@D@__crt_stdio_output@@@2@@__crt_stdio_output@@ABE?AW4state@2@DW432@@Z 10050ff8 f i libucrt:output.obj
 0001:0005002f       ?find_next_state@?$output_processor@DV?$stream_output_adapter@D@__crt_stdio_output@@V?$standard_base@DV?$stream_output_adapter@D@__crt_stdio_output@@@2@@__crt_stdio_output@@ABE?AW4state@2@DW432@@Z 1005102f f i libucrt:output.obj
 0001:00050066       ?find_next_state@?$output_processor@DV?$string_output_adapter@D@__crt_stdio_output@@V?$format_validation_base@DV?$string_output_adapter@D@__crt_stdio_output@@@2@@__crt_stdio_output@@ABE?AW4state@2@DW432@@Z 10051066 f i libucrt:output.obj
 0001:0005009d       ?find_next_state@?$output_processor@DV?$string_output_adapter@D@__crt_stdio_output@@V?$positional_parameter_base@DV?$string_output_adapter@D@__crt_stdio_output@@@2@@__crt_stdio_output@@ABE?AW4state@2@DW432@@Z 1005109d f i libucrt:output.obj
 0001:000500d4       ?find_next_state@?$output_processor@DV?$string_output_adapter@D@__crt_stdio_output@@V?$standard_base@DV?$string_output_adapter@D@__crt_stdio_output@@@2@@__crt_stdio_output@@ABE?AW4state@2@DW432@@Z 100510d4 f i libucrt:output.obj
 0001:0005010b       ?find_next_state@?$output_processor@_WV?$stream_output_adapter@_W@__crt_stdio_output@@V?$format_validation_base@_WV?$stream_output_adapter@_W@__crt_stdio_output@@@2@@__crt_stdio_output@@ABE?AW4state@2@_WW432@@Z 1005110b f i libucrt:output.obj
 0001:00050141       ?find_next_state@?$output_processor@_WV?$stream_output_adapter@_W@__crt_stdio_output@@V?$positional_parameter_base@_WV?$stream_output_adapter@_W@__crt_stdio_output@@@2@@__crt_stdio_output@@ABE?AW4state@2@_WW432@@Z 10051141 f i libucrt:output.obj
 0001:00050177       ?find_next_state@?$output_processor@_WV?$stream_output_adapter@_W@__crt_stdio_output@@V?$standard_base@_WV?$stream_output_adapter@_W@__crt_stdio_output@@@2@@__crt_stdio_output@@ABE?AW4state@2@_WW432@@Z 10051177 f i libucrt:output.obj
 0001:000501ad       ?find_next_state@?$output_processor@_WV?$string_output_adapter@_W@__crt_stdio_output@@V?$format_validation_base@_WV?$string_output_adapter@_W@__crt_stdio_output@@@2@@__crt_stdio_output@@ABE?AW4state@2@_WW432@@Z 100511ad f i libucrt:output.obj
 0001:000501e3       ?find_next_state@?$output_processor@_WV?$string_output_adapter@_W@__crt_stdio_output@@V?$positional_parameter_base@_WV?$string_output_adapter@_W@__crt_stdio_output@@@2@@__crt_stdio_output@@ABE?AW4state@2@_WW432@@Z 100511e3 f i libucrt:output.obj
 0001:00050219       ?find_next_state@?$output_processor@_WV?$string_output_adapter@_W@__crt_stdio_output@@V?$standard_base@_WV?$string_output_adapter@_W@__crt_stdio_output@@@2@@__crt_stdio_output@@ABE?AW4state@2@_WW432@@Z 10051219 f i libucrt:output.obj
 0001:00050250       ?force_decimal_point@__crt_stdio_output@@YAXPADQAU__crt_locale_pointers@@@Z 10051250 f i libucrt:output.obj
 0001:000502b5       ?get@__crt_deferred_errno_cache@@QAEAAHXZ 100512b5 f i libucrt:output.obj
 0001:000502c9       ?get_flags@__crt_stdio_stream@@QBEJXZ 100512c9 f i libucrt:output.obj
 0001:000502d0       ?get_parameter_type@?$positional_parameter_base@DV?$stream_output_adapter@D@__crt_stdio_output@@@__crt_stdio_output@@CA?AW4parameter_type@12@F@Z 100512d0 f i libucrt:output.obj
 0001:000502d4       ?get_parameter_type@?$positional_parameter_base@DV?$stream_output_adapter@D@__crt_stdio_output@@@__crt_stdio_output@@CA?AW4parameter_type@12@G@Z 100512d4 f i libucrt:output.obj
 0001:000502d8       ?get_parameter_type@?$positional_parameter_base@DV?$stream_output_adapter@D@__crt_stdio_output@@@__crt_stdio_output@@CA?AW4parameter_type@12@H@Z 100512d8 f i libucrt:output.obj
 0001:000502dc       ?get_parameter_type@?$positional_parameter_base@DV?$stream_output_adapter@D@__crt_stdio_output@@@__crt_stdio_output@@CA?AW4parameter_type@12@I@Z 100512dc f i libucrt:output.obj
 0001:000502e0       ?get_parameter_type@?$positional_parameter_base@DV?$stream_output_adapter@D@__crt_stdio_output@@@__crt_stdio_output@@CA?AW4parameter_type@12@U_CRT_DOUBLE@@@Z 100512e0 f i libucrt:output.obj
 0001:000502e4       ?get_parameter_type@?$positional_parameter_base@DV?$stream_output_adapter@D@__crt_stdio_output@@@__crt_stdio_output@@CA?AW4parameter_type@12@_J@Z 100512e4 f i libucrt:output.obj
 0001:000502e8       ?get_parameter_type@?$positional_parameter_base@DV?$stream_output_adapter@D@__crt_stdio_output@@@__crt_stdio_output@@CA?AW4parameter_type@12@_K@Z 100512e8 f i libucrt:output.obj
 0001:000502ec       ?get_parameter_type@?$positional_parameter_base@DV?$stream_output_adapter@D@__crt_stdio_output@@@__crt_stdio_output@@CA?AW4parameter_type@12@_W@Z 100512ec f i libucrt:output.obj
 0001:000502f0       ?get_parameter_type@?$positional_parameter_base@DV?$string_output_adapter@D@__crt_stdio_output@@@__crt_stdio_output@@CA?AW4parameter_type@12@F@Z 100512f0 f i libucrt:output.obj
 0001:000502f4       ?get_parameter_type@?$positional_parameter_base@DV?$string_output_adapter@D@__crt_stdio_output@@@__crt_stdio_output@@CA?AW4parameter_type@12@G@Z 100512f4 f i libucrt:output.obj
 0001:000502f8       ?get_parameter_type@?$positional_parameter_base@DV?$string_output_adapter@D@__crt_stdio_output@@@__crt_stdio_output@@CA?AW4parameter_type@12@H@Z 100512f8 f i libucrt:output.obj
 0001:000502fc       ?get_parameter_type@?$positional_parameter_base@DV?$string_output_adapter@D@__crt_stdio_output@@@__crt_stdio_output@@CA?AW4parameter_type@12@I@Z 100512fc f i libucrt:output.obj
 0001:00050300       ?get_parameter_type@?$positional_parameter_base@DV?$string_output_adapter@D@__crt_stdio_output@@@__crt_stdio_output@@CA?AW4parameter_type@12@U_CRT_DOUBLE@@@Z 10051300 f i libucrt:output.obj
 0001:00050304       ?get_parameter_type@?$positional_parameter_base@DV?$string_output_adapter@D@__crt_stdio_output@@@__crt_stdio_output@@CA?AW4parameter_type@12@_J@Z 10051304 f i libucrt:output.obj
 0001:00050308       ?get_parameter_type@?$positional_parameter_base@DV?$string_output_adapter@D@__crt_stdio_output@@@__crt_stdio_output@@CA?AW4parameter_type@12@_K@Z 10051308 f i libucrt:output.obj
 0001:0005030c       ?get_parameter_type@?$positional_parameter_base@DV?$string_output_adapter@D@__crt_stdio_output@@@__crt_stdio_output@@CA?AW4parameter_type@12@_W@Z 1005130c f i libucrt:output.obj
 0001:00050310       ?get_parameter_type@?$positional_parameter_base@_WV?$stream_output_adapter@_W@__crt_stdio_output@@@__crt_stdio_output@@CA?AW4parameter_type@12@F@Z 10051310 f i libucrt:output.obj
 0001:00050314       ?get_parameter_type@?$positional_parameter_base@_WV?$stream_output_adapter@_W@__crt_stdio_output@@@__crt_stdio_output@@CA?AW4parameter_type@12@G@Z 10051314 f i libucrt:output.obj
 0001:00050318       ?get_parameter_type@?$positional_parameter_base@_WV?$stream_output_adapter@_W@__crt_stdio_output@@@__crt_stdio_output@@CA?AW4parameter_type@12@H@Z 10051318 f i libucrt:output.obj
 0001:0005031c       ?get_parameter_type@?$positional_parameter_base@_WV?$stream_output_adapter@_W@__crt_stdio_output@@@__crt_stdio_output@@CA?AW4parameter_type@12@I@Z 1005131c f i libucrt:output.obj
 0001:00050320       ?get_parameter_type@?$positional_parameter_base@_WV?$stream_output_adapter@_W@__crt_stdio_output@@@__crt_stdio_output@@CA?AW4parameter_type@12@U_CRT_DOUBLE@@@Z 10051320 f i libucrt:output.obj
 0001:00050324       ?get_parameter_type@?$positional_parameter_base@_WV?$stream_output_adapter@_W@__crt_stdio_output@@@__crt_stdio_output@@CA?AW4parameter_type@12@_J@Z 10051324 f i libucrt:output.obj
 0001:00050328       ?get_parameter_type@?$positional_parameter_base@_WV?$stream_output_adapter@_W@__crt_stdio_output@@@__crt_stdio_output@@CA?AW4parameter_type@12@_K@Z 10051328 f i libucrt:output.obj
 0001:0005032c       ?get_parameter_type@?$positional_parameter_base@_WV?$stream_output_adapter@_W@__crt_stdio_output@@@__crt_stdio_output@@CA?AW4parameter_type@12@_W@Z 1005132c f i libucrt:output.obj
 0001:00050330       ?get_parameter_type@?$positional_parameter_base@_WV?$string_output_adapter@_W@__crt_stdio_output@@@__crt_stdio_output@@CA?AW4parameter_type@12@F@Z 10051330 f i libucrt:output.obj
 0001:00050334       ?get_parameter_type@?$positional_parameter_base@_WV?$string_output_adapter@_W@__crt_stdio_output@@@__crt_stdio_output@@CA?AW4parameter_type@12@G@Z 10051334 f i libucrt:output.obj
 0001:00050338       ?get_parameter_type@?$positional_parameter_base@_WV?$string_output_adapter@_W@__crt_stdio_output@@@__crt_stdio_output@@CA?AW4parameter_type@12@H@Z 10051338 f i libucrt:output.obj
 0001:0005033c       ?get_parameter_type@?$positional_parameter_base@_WV?$string_output_adapter@_W@__crt_stdio_output@@@__crt_stdio_output@@CA?AW4parameter_type@12@I@Z 1005133c f i libucrt:output.obj
 0001:00050340       ?get_parameter_type@?$positional_parameter_base@_WV?$string_output_adapter@_W@__crt_stdio_output@@@__crt_stdio_output@@CA?AW4parameter_type@12@U_CRT_DOUBLE@@@Z 10051340 f i libucrt:output.obj
 0001:00050344       ?get_parameter_type@?$positional_parameter_base@_WV?$string_output_adapter@_W@__crt_stdio_output@@@__crt_stdio_output@@CA?AW4parameter_type@12@_J@Z 10051344 f i libucrt:output.obj
 0001:00050348       ?get_parameter_type@?$positional_parameter_base@_WV?$string_output_adapter@_W@__crt_stdio_output@@@__crt_stdio_output@@CA?AW4parameter_type@12@_K@Z 10051348 f i libucrt:output.obj
 0001:0005034c       ?get_parameter_type@?$positional_parameter_base@_WV?$string_output_adapter@_W@__crt_stdio_output@@@__crt_stdio_output@@CA?AW4parameter_type@12@_W@Z 1005134c f i libucrt:output.obj
 0001:00050350       ?has_flag@?$output_processor@DV?$stream_output_adapter@D@__crt_stdio_output@@V?$format_validation_base@DV?$stream_output_adapter@D@__crt_stdio_output@@@2@@__crt_stdio_output@@ABE_NI@Z 10051350 f i libucrt:output.obj
 0001:00050362       ?has_flag@?$output_processor@DV?$stream_output_adapter@D@__crt_stdio_output@@V?$positional_parameter_base@DV?$stream_output_adapter@D@__crt_stdio_output@@@2@@__crt_stdio_output@@ABE_NI@Z 10051362 f i libucrt:output.obj
 0001:00050374       ?has_flag@?$output_processor@DV?$stream_output_adapter@D@__crt_stdio_output@@V?$standard_base@DV?$stream_output_adapter@D@__crt_stdio_output@@@2@@__crt_stdio_output@@ABE_NI@Z 10051374 f i libucrt:output.obj
 0001:00050386       ?has_flag@?$output_processor@DV?$string_output_adapter@D@__crt_stdio_output@@V?$format_validation_base@DV?$string_output_adapter@D@__crt_stdio_output@@@2@@__crt_stdio_output@@ABE_NI@Z 10051386 f i libucrt:output.obj
 0001:00050398       ?has_flag@?$output_processor@DV?$string_output_adapter@D@__crt_stdio_output@@V?$positional_parameter_base@DV?$string_output_adapter@D@__crt_stdio_output@@@2@@__crt_stdio_output@@ABE_NI@Z 10051398 f i libucrt:output.obj
 0001:000503aa       ?has_flag@?$output_processor@DV?$string_output_adapter@D@__crt_stdio_output@@V?$standard_base@DV?$string_output_adapter@D@__crt_stdio_output@@@2@@__crt_stdio_output@@ABE_NI@Z 100513aa f i libucrt:output.obj
 0001:000503bc       ?has_flag@?$output_processor@_WV?$stream_output_adapter@_W@__crt_stdio_output@@V?$format_validation_base@_WV?$stream_output_adapter@_W@__crt_stdio_output@@@2@@__crt_stdio_output@@ABE_NI@Z 100513bc f i libucrt:output.obj
 0001:000503ce       ?has_flag@?$output_processor@_WV?$stream_output_adapter@_W@__crt_stdio_output@@V?$positional_parameter_base@_WV?$stream_output_adapter@_W@__crt_stdio_output@@@2@@__crt_stdio_output@@ABE_NI@Z 100513ce f i libucrt:output.obj
 0001:000503e0       ?has_flag@?$output_processor@_WV?$stream_output_adapter@_W@__crt_stdio_output@@V?$standard_base@_WV?$stream_output_adapter@_W@__crt_stdio_output@@@2@@__crt_stdio_output@@ABE_NI@Z 100513e0 f i libucrt:output.obj
 0001:000503f2       ?has_flag@?$output_processor@_WV?$string_output_adapter@_W@__crt_stdio_output@@V?$format_validation_base@_WV?$string_output_adapter@_W@__crt_stdio_output@@@2@@__crt_stdio_output@@ABE_NI@Z 100513f2 f i libucrt:output.obj
 0001:00050404       ?has_flag@?$output_processor@_WV?$string_output_adapter@_W@__crt_stdio_output@@V?$positional_parameter_base@_WV?$string_output_adapter@_W@__crt_stdio_output@@@2@@__crt_stdio_output@@ABE_NI@Z 10051404 f i libucrt:output.obj
 0001:00050416       ?has_flag@?$output_processor@_WV?$string_output_adapter@_W@__crt_stdio_output@@V?$standard_base@_WV?$string_output_adapter@_W@__crt_stdio_output@@@2@@__crt_stdio_output@@ABE_NI@Z 10051416 f i libucrt:output.obj
 0001:00050428       ?is_positional_parameter_reappearance_consistent@?$positional_parameter_base@DV?$stream_output_adapter@D@__crt_stdio_output@@@__crt_stdio_output@@AAE_NABUparameter_data@12@W4parameter_type@12@DW4length_modifier@2@@Z 10051428 f i libucrt:output.obj
 0001:00050542       ?is_positional_parameter_reappearance_consistent@?$positional_parameter_base@DV?$string_output_adapter@D@__crt_stdio_output@@@__crt_stdio_output@@AAE_NABUparameter_data@12@W4parameter_type@12@DW4length_modifier@2@@Z 10051542 f i libucrt:output.obj
 0001:0005065c       ?is_positional_parameter_reappearance_consistent@?$positional_parameter_base@_WV?$stream_output_adapter@_W@__crt_stdio_output@@@__crt_stdio_output@@AAE_NABUparameter_data@12@W4parameter_type@12@_WW4length_modifier@2@@Z 1005165c f i libucrt:output.obj
 0001:00050777       ?is_positional_parameter_reappearance_consistent@?$positional_parameter_base@_WV?$string_output_adapter@_W@__crt_stdio_output@@@__crt_stdio_output@@AAE_NABUparameter_data@12@W4parameter_type@12@_WW4length_modifier@2@@Z 10051777 f i libucrt:output.obj
 0001:00050892       ?is_string_backed@__crt_stdio_stream@@QBE_NXZ 10051892 f i libucrt:output.obj
 0001:0005089e       ?narrow_null_string@?$output_processor@DV?$stream_output_adapter@D@__crt_stdio_output@@V?$format_validation_base@DV?$stream_output_adapter@D@__crt_stdio_output@@@2@@__crt_stdio_output@@CAPADXZ 1005189e f i libucrt:output.obj
 0001:000508a4       ?narrow_null_string@?$output_processor@DV?$stream_output_adapter@D@__crt_stdio_output@@V?$positional_parameter_base@DV?$stream_output_adapter@D@__crt_stdio_output@@@2@@__crt_stdio_output@@CAPADXZ 100518a4 f i libucrt:output.obj
 0001:000508aa       ?narrow_null_string@?$output_processor@DV?$stream_output_adapter@D@__crt_stdio_output@@V?$standard_base@DV?$stream_output_adapter@D@__crt_stdio_output@@@2@@__crt_stdio_output@@CAPADXZ 100518aa f i libucrt:output.obj
 0001:000508b0       ?narrow_null_string@?$output_processor@DV?$string_output_adapter@D@__crt_stdio_output@@V?$format_validation_base@DV?$string_output_adapter@D@__crt_stdio_output@@@2@@__crt_stdio_output@@CAPADXZ 100518b0 f i libucrt:output.obj
 0001:000508b6       ?narrow_null_string@?$output_processor@DV?$string_output_adapter@D@__crt_stdio_output@@V?$positional_parameter_base@DV?$string_output_adapter@D@__crt_stdio_output@@@2@@__crt_stdio_output@@CAPADXZ 100518b6 f i libucrt:output.obj
 0001:000508bc       ?narrow_null_string@?$output_processor@DV?$string_output_adapter@D@__crt_stdio_output@@V?$standard_base@DV?$string_output_adapter@D@__crt_stdio_output@@@2@@__crt_stdio_output@@CAPADXZ 100518bc f i libucrt:output.obj
 0001:000508c2       ?narrow_null_string@?$output_processor@_WV?$stream_output_adapter@_W@__crt_stdio_output@@V?$format_validation_base@_WV?$stream_output_adapter@_W@__crt_stdio_output@@@2@@__crt_stdio_output@@CAPADXZ 100518c2 f i libucrt:output.obj
 0001:000508c8       ?narrow_null_string@?$output_processor@_WV?$stream_output_adapter@_W@__crt_stdio_output@@V?$positional_parameter_base@_WV?$stream_output_adapter@_W@__crt_stdio_output@@@2@@__crt_stdio_output@@CAPADXZ 100518c8 f i libucrt:output.obj
 0001:000508ce       ?narrow_null_string@?$output_processor@_WV?$stream_output_adapter@_W@__crt_stdio_output@@V?$standard_base@_WV?$stream_output_adapter@_W@__crt_stdio_output@@@2@@__crt_stdio_output@@CAPADXZ 100518ce f i libucrt:output.obj
 0001:000508d4       ?narrow_null_string@?$output_processor@_WV?$string_output_adapter@_W@__crt_stdio_output@@V?$format_validation_base@_WV?$string_output_adapter@_W@__crt_stdio_output@@@2@@__crt_stdio_output@@CAPADXZ 100518d4 f i libucrt:output.obj
 0001:000508da       ?narrow_null_string@?$output_processor@_WV?$string_output_adapter@_W@__crt_stdio_output@@V?$positional_parameter_base@_WV?$string_output_adapter@_W@__crt_stdio_output@@@2@@__crt_stdio_output@@CAPADXZ 100518da f i libucrt:output.obj
 0001:000508e0       ?narrow_null_string@?$output_processor@_WV?$string_output_adapter@_W@__crt_stdio_output@@V?$standard_base@_WV?$string_output_adapter@_W@__crt_stdio_output@@@2@@__crt_stdio_output@@CAPADXZ 100518e0 f i libucrt:output.obj
 0001:000508e6       ?parse_int_from_format_string@?$output_processor@DV?$stream_output_adapter@D@__crt_stdio_output@@V?$format_validation_base@DV?$stream_output_adapter@D@__crt_stdio_output@@@2@@__crt_stdio_output@@AAE_NQAH@Z 100518e6 f i libucrt:output.obj
 0001:0005095a       ?parse_int_from_format_string@?$output_processor@DV?$stream_output_adapter@D@__crt_stdio_output@@V?$positional_parameter_base@DV?$stream_output_adapter@D@__crt_stdio_output@@@2@@__crt_stdio_output@@AAE_NQAH@Z 1005195a f i libucrt:output.obj
 0001:000509ce       ?parse_int_from_format_string@?$output_processor@DV?$stream_output_adapter@D@__crt_stdio_output@@V?$standard_base@DV?$stream_output_adapter@D@__crt_stdio_output@@@2@@__crt_stdio_output@@AAE_NQAH@Z 100519ce f i libucrt:output.obj
 0001:00050a42       ?parse_int_from_format_string@?$output_processor@DV?$string_output_adapter@D@__crt_stdio_output@@V?$format_validation_base@DV?$string_output_adapter@D@__crt_stdio_output@@@2@@__crt_stdio_output@@AAE_NQAH@Z 10051a42 f i libucrt:output.obj
 0001:00050ab6       ?parse_int_from_format_string@?$output_processor@DV?$string_output_adapter@D@__crt_stdio_output@@V?$positional_parameter_base@DV?$string_output_adapter@D@__crt_stdio_output@@@2@@__crt_stdio_output@@AAE_NQAH@Z 10051ab6 f i libucrt:output.obj
 0001:00050b2a       ?parse_int_from_format_string@?$output_processor@DV?$string_output_adapter@D@__crt_stdio_output@@V?$standard_base@DV?$string_output_adapter@D@__crt_stdio_output@@@2@@__crt_stdio_output@@AAE_NQAH@Z 10051b2a f i libucrt:output.obj
 0001:00050b9e       ?parse_int_from_format_string@?$output_processor@_WV?$stream_output_adapter@_W@__crt_stdio_output@@V?$format_validation_base@_WV?$stream_output_adapter@_W@__crt_stdio_output@@@2@@__crt_stdio_output@@AAE_NQAH@Z 10051b9e f i libucrt:output.obj
 0001:00050c14       ?parse_int_from_format_string@?$output_processor@_WV?$stream_output_adapter@_W@__crt_stdio_output@@V?$positional_parameter_base@_WV?$stream_output_adapter@_W@__crt_stdio_output@@@2@@__crt_stdio_output@@AAE_NQAH@Z 10051c14 f i libucrt:output.obj
 0001:00050c8a       ?parse_int_from_format_string@?$output_processor@_WV?$stream_output_adapter@_W@__crt_stdio_output@@V?$standard_base@_WV?$stream_output_adapter@_W@__crt_stdio_output@@@2@@__crt_stdio_output@@AAE_NQAH@Z 10051c8a f i libucrt:output.obj
 0001:00050d00       ?parse_int_from_format_string@?$output_processor@_WV?$string_output_adapter@_W@__crt_stdio_output@@V?$format_validation_base@_WV?$string_output_adapter@_W@__crt_stdio_output@@@2@@__crt_stdio_output@@AAE_NQAH@Z 10051d00 f i libucrt:output.obj
 0001:00050d76       ?parse_int_from_format_string@?$output_processor@_WV?$string_output_adapter@_W@__crt_stdio_output@@V?$positional_parameter_base@_WV?$string_output_adapter@_W@__crt_stdio_output@@@2@@__crt_stdio_output@@AAE_NQAH@Z 10051d76 f i libucrt:output.obj
 0001:00050dec       ?parse_int_from_format_string@?$output_processor@_WV?$string_output_adapter@_W@__crt_stdio_output@@V?$standard_base@_WV?$string_output_adapter@_W@__crt_stdio_output@@@2@@__crt_stdio_output@@AAE_NQAH@Z 10051dec f i libucrt:output.obj
 0001:00050e62       ?process@?$output_processor@DV?$stream_output_adapter@D@__crt_stdio_output@@V?$format_validation_base@DV?$stream_output_adapter@D@__crt_stdio_output@@@2@@__crt_stdio_output@@QAEHXZ 10051e62 f i libucrt:output.obj
 0001:00050f86       ?process@?$output_processor@DV?$stream_output_adapter@D@__crt_stdio_output@@V?$positional_parameter_base@DV?$stream_output_adapter@D@__crt_stdio_output@@@2@@__crt_stdio_output@@QAEHXZ 10051f86 f i libucrt:output.obj
 0001:000510b6       ?process@?$output_processor@DV?$stream_output_adapter@D@__crt_stdio_output@@V?$standard_base@DV?$stream_output_adapter@D@__crt_stdio_output@@@2@@__crt_stdio_output@@QAEHXZ 100520b6 f i libucrt:output.obj
 0001:000511ca       ?process@?$output_processor@DV?$string_output_adapter@D@__crt_stdio_output@@V?$format_validation_base@DV?$string_output_adapter@D@__crt_stdio_output@@@2@@__crt_stdio_output@@QAEHXZ 100521ca f i libucrt:output.obj
 0001:000512ee       ?process@?$output_processor@DV?$string_output_adapter@D@__crt_stdio_output@@V?$positional_parameter_base@DV?$string_output_adapter@D@__crt_stdio_output@@@2@@__crt_stdio_output@@QAEHXZ 100522ee f i libucrt:output.obj
 0001:0005141e       ?process@?$output_processor@DV?$string_output_adapter@D@__crt_stdio_output@@V?$standard_base@DV?$string_output_adapter@D@__crt_stdio_output@@@2@@__crt_stdio_output@@QAEHXZ 1005241e f i libucrt:output.obj
 0001:00051532       ?process@?$output_processor@_WV?$stream_output_adapter@_W@__crt_stdio_output@@V?$format_validation_base@_WV?$stream_output_adapter@_W@__crt_stdio_output@@@2@@__crt_stdio_output@@QAEHXZ 10052532 f i libucrt:output.obj
 0001:0005165a       ?process@?$output_processor@_WV?$stream_output_adapter@_W@__crt_stdio_output@@V?$positional_parameter_base@_WV?$stream_output_adapter@_W@__crt_stdio_output@@@2@@__crt_stdio_output@@QAEHXZ 1005265a f i libucrt:output.obj
 0001:0005178e       ?process@?$output_processor@_WV?$stream_output_adapter@_W@__crt_stdio_output@@V?$standard_base@_WV?$stream_output_adapter@_W@__crt_stdio_output@@@2@@__crt_stdio_output@@QAEHXZ 1005278e f i libucrt:output.obj
 0001:000518aa       ?process@?$output_processor@_WV?$string_output_adapter@_W@__crt_stdio_output@@V?$format_validation_base@_WV?$string_output_adapter@_W@__crt_stdio_output@@@2@@__crt_stdio_output@@QAEHXZ 100528aa f i libucrt:output.obj
 0001:000519d2       ?process@?$output_processor@_WV?$string_output_adapter@_W@__crt_stdio_output@@V?$positional_parameter_base@_WV?$string_output_adapter@_W@__crt_stdio_output@@@2@@__crt_stdio_output@@QAEHXZ 100529d2 f i libucrt:output.obj
 0001:00051b06       ?process@?$output_processor@_WV?$string_output_adapter@_W@__crt_stdio_output@@V?$standard_base@_WV?$string_output_adapter@_W@__crt_stdio_output@@@2@@__crt_stdio_output@@QAEHXZ 10052b06 f i libucrt:output.obj
 0001:00051c22       ?public_stream@__crt_stdio_stream@@QBEPAU_iobuf@@XZ 10052c22 f i libucrt:output.obj
 0001:00051c25       ?set_flag@?$output_processor@DV?$stream_output_adapter@D@__crt_stdio_output@@V?$format_validation_base@DV?$stream_output_adapter@D@__crt_stdio_output@@@2@@__crt_stdio_output@@AAEXI@Z 10052c25 f i libucrt:output.obj
 0001:00051c34       ?set_flag@?$output_processor@DV?$stream_output_adapter@D@__crt_stdio_output@@V?$positional_parameter_base@DV?$stream_output_adapter@D@__crt_stdio_output@@@2@@__crt_stdio_output@@AAEXI@Z 10052c34 f i libucrt:output.obj
 0001:00051c43       ?set_flag@?$output_processor@DV?$stream_output_adapter@D@__crt_stdio_output@@V?$standard_base@DV?$stream_output_adapter@D@__crt_stdio_output@@@2@@__crt_stdio_output@@AAEXI@Z 10052c43 f i libucrt:output.obj
 0001:00051c52       ?set_flag@?$output_processor@DV?$string_output_adapter@D@__crt_stdio_output@@V?$format_validation_base@DV?$string_output_adapter@D@__crt_stdio_output@@@2@@__crt_stdio_output@@AAEXI@Z 10052c52 f i libucrt:output.obj
 0001:00051c61       ?set_flag@?$output_processor@DV?$string_output_adapter@D@__crt_stdio_output@@V?$positional_parameter_base@DV?$string_output_adapter@D@__crt_stdio_output@@@2@@__crt_stdio_output@@AAEXI@Z 10052c61 f i libucrt:output.obj
 0001:00051c70       ?set_flag@?$output_processor@DV?$string_output_adapter@D@__crt_stdio_output@@V?$standard_base@DV?$string_output_adapter@D@__crt_stdio_output@@@2@@__crt_stdio_output@@AAEXI@Z 10052c70 f i libucrt:output.obj
 0001:00051c7f       ?set_flag@?$output_processor@_WV?$stream_output_adapter@_W@__crt_stdio_output@@V?$format_validation_base@_WV?$stream_output_adapter@_W@__crt_stdio_output@@@2@@__crt_stdio_output@@AAEXI@Z 10052c7f f i libucrt:output.obj
 0001:00051c8e       ?set_flag@?$output_processor@_WV?$stream_output_adapter@_W@__crt_stdio_output@@V?$positional_parameter_base@_WV?$stream_output_adapter@_W@__crt_stdio_output@@@2@@__crt_stdio_output@@AAEXI@Z 10052c8e f i libucrt:output.obj
 0001:00051c9d       ?set_flag@?$output_processor@_WV?$stream_output_adapter@_W@__crt_stdio_output@@V?$standard_base@_WV?$stream_output_adapter@_W@__crt_stdio_output@@@2@@__crt_stdio_output@@AAEXI@Z 10052c9d f i libucrt:output.obj
 0001:00051cac       ?set_flag@?$output_processor@_WV?$string_output_adapter@_W@__crt_stdio_output@@V?$format_validation_base@_WV?$string_output_adapter@_W@__crt_stdio_output@@@2@@__crt_stdio_output@@AAEXI@Z 10052cac f i libucrt:output.obj
 0001:00051cbb       ?set_flag@?$output_processor@_WV?$string_output_adapter@_W@__crt_stdio_output@@V?$positional_parameter_base@_WV?$string_output_adapter@_W@__crt_stdio_output@@@2@@__crt_stdio_output@@AAEXI@Z 10052cbb f i libucrt:output.obj
 0001:00051cca       ?set_flag@?$output_processor@_WV?$string_output_adapter@_W@__crt_stdio_output@@V?$standard_base@_WV?$string_output_adapter@_W@__crt_stdio_output@@@2@@__crt_stdio_output@@AAEXI@Z 10052cca f i libucrt:output.obj
 0001:00051cd9       ?should_format@?$positional_parameter_base@DV?$stream_output_adapter@D@__crt_stdio_output@@@__crt_stdio_output@@IAE_NXZ 10052cd9 f i libucrt:output.obj
 0001:00051cef       ?should_format@?$positional_parameter_base@DV?$string_output_adapter@D@__crt_stdio_output@@@__crt_stdio_output@@IAE_NXZ 10052cef f i libucrt:output.obj
 0001:00051d05       ?should_format@?$positional_parameter_base@_WV?$stream_output_adapter@_W@__crt_stdio_output@@@__crt_stdio_output@@IAE_NXZ 10052d05 f i libucrt:output.obj
 0001:00051d1b       ?should_format@?$positional_parameter_base@_WV?$string_output_adapter@_W@__crt_stdio_output@@@__crt_stdio_output@@IAE_NXZ 10052d1b f i libucrt:output.obj
 0001:00051d31       ?should_format@?$standard_base@DV?$stream_output_adapter@D@__crt_stdio_output@@@__crt_stdio_output@@IAE_NXZ 10052d31 f i libucrt:output.obj
 0001:00051d34       ?should_format@?$standard_base@DV?$string_output_adapter@D@__crt_stdio_output@@@__crt_stdio_output@@IAE_NXZ 10052d34 f i libucrt:output.obj
 0001:00051d37       ?should_format@?$standard_base@_WV?$stream_output_adapter@_W@__crt_stdio_output@@@__crt_stdio_output@@IAE_NXZ 10052d37 f i libucrt:output.obj
 0001:00051d3a       ?should_format@?$standard_base@_WV?$string_output_adapter@_W@__crt_stdio_output@@@__crt_stdio_output@@IAE_NXZ 10052d3a f i libucrt:output.obj
 0001:00051d3d       ?should_skip_normal_state_processing@?$positional_parameter_base@DV?$stream_output_adapter@D@__crt_stdio_output@@@__crt_stdio_output@@IAE_NXZ 10052d3d f i libucrt:output.obj
 0001:00051d65       ?should_skip_normal_state_processing@?$positional_parameter_base@DV?$string_output_adapter@D@__crt_stdio_output@@@__crt_stdio_output@@IAE_NXZ 10052d65 f i libucrt:output.obj
 0001:00051d8d       ?should_skip_normal_state_processing@?$positional_parameter_base@_WV?$stream_output_adapter@_W@__crt_stdio_output@@@__crt_stdio_output@@IAE_NXZ 10052d8d f i libucrt:output.obj
 0001:00051db5       ?should_skip_normal_state_processing@?$positional_parameter_base@_WV?$string_output_adapter@_W@__crt_stdio_output@@@__crt_stdio_output@@IAE_NXZ 10052db5 f i libucrt:output.obj
 0001:00051ddd       ?should_skip_normal_state_processing@?$standard_base@DV?$stream_output_adapter@D@__crt_stdio_output@@@__crt_stdio_output@@IAE_NXZ 10052ddd f i libucrt:output.obj
 0001:00051de0       ?should_skip_normal_state_processing@?$standard_base@DV?$string_output_adapter@D@__crt_stdio_output@@@__crt_stdio_output@@IAE_NXZ 10052de0 f i libucrt:output.obj
 0001:00051de3       ?should_skip_normal_state_processing@?$standard_base@_WV?$stream_output_adapter@_W@__crt_stdio_output@@@__crt_stdio_output@@IAE_NXZ 10052de3 f i libucrt:output.obj
 0001:00051de6       ?should_skip_normal_state_processing@?$standard_base@_WV?$string_output_adapter@_W@__crt_stdio_output@@@__crt_stdio_output@@IAE_NXZ 10052de6 f i libucrt:output.obj
 0001:00051de9       ?should_skip_type_state_output@?$positional_parameter_base@DV?$stream_output_adapter@D@__crt_stdio_output@@@__crt_stdio_output@@IBE_NXZ 10052de9 f i libucrt:output.obj
 0001:00051e00       ?should_skip_type_state_output@?$positional_parameter_base@DV?$string_output_adapter@D@__crt_stdio_output@@@__crt_stdio_output@@IBE_NXZ 10052e00 f i libucrt:output.obj
 0001:00051e17       ?should_skip_type_state_output@?$positional_parameter_base@_WV?$stream_output_adapter@_W@__crt_stdio_output@@@__crt_stdio_output@@IBE_NXZ 10052e17 f i libucrt:output.obj
 0001:00051e2e       ?should_skip_type_state_output@?$positional_parameter_base@_WV?$string_output_adapter@_W@__crt_stdio_output@@@__crt_stdio_output@@IBE_NXZ 10052e2e f i libucrt:output.obj
 0001:00051e45       ?should_skip_type_state_output@?$standard_base@DV?$stream_output_adapter@D@__crt_stdio_output@@@__crt_stdio_output@@IBE_NXZ 10052e45 f i libucrt:output.obj
 0001:00051e48       ?should_skip_type_state_output@?$standard_base@DV?$string_output_adapter@D@__crt_stdio_output@@@__crt_stdio_output@@IBE_NXZ 10052e48 f i libucrt:output.obj
 0001:00051e4b       ?should_skip_type_state_output@?$standard_base@_WV?$stream_output_adapter@_W@__crt_stdio_output@@@__crt_stdio_output@@IBE_NXZ 10052e4b f i libucrt:output.obj
 0001:00051e4e       ?should_skip_type_state_output@?$standard_base@_WV?$string_output_adapter@_W@__crt_stdio_output@@@__crt_stdio_output@@IBE_NXZ 10052e4e f i libucrt:output.obj
 0001:00051e51       ?state_case_dot@?$output_processor@DV?$stream_output_adapter@D@__crt_stdio_output@@V?$format_validation_base@DV?$stream_output_adapter@D@__crt_stdio_output@@@2@@__crt_stdio_output@@AAE_NXZ 10052e51 f i libucrt:output.obj
 0001:00051e58       ?state_case_dot@?$output_processor@DV?$stream_output_adapter@D@__crt_stdio_output@@V?$positional_parameter_base@DV?$stream_output_adapter@D@__crt_stdio_output@@@2@@__crt_stdio_output@@AAE_NXZ 10052e58 f i libucrt:output.obj
 0001:00051e5f       ?state_case_dot@?$output_processor@DV?$stream_output_adapter@D@__crt_stdio_output@@V?$standard_base@DV?$stream_output_adapter@D@__crt_stdio_output@@@2@@__crt_stdio_output@@AAE_NXZ 10052e5f f i libucrt:output.obj
 0001:00051e66       ?state_case_dot@?$output_processor@DV?$string_output_adapter@D@__crt_stdio_output@@V?$format_validation_base@DV?$string_output_adapter@D@__crt_stdio_output@@@2@@__crt_stdio_output@@AAE_NXZ 10052e66 f i libucrt:output.obj
 0001:00051e6d       ?state_case_dot@?$output_processor@DV?$string_output_adapter@D@__crt_stdio_output@@V?$positional_parameter_base@DV?$string_output_adapter@D@__crt_stdio_output@@@2@@__crt_stdio_output@@AAE_NXZ 10052e6d f i libucrt:output.obj
 0001:00051e74       ?state_case_dot@?$output_processor@DV?$string_output_adapter@D@__crt_stdio_output@@V?$standard_base@DV?$string_output_adapter@D@__crt_stdio_output@@@2@@__crt_stdio_output@@AAE_NXZ 10052e74 f i libucrt:output.obj
 0001:00051e7b       ?state_case_dot@?$output_processor@_WV?$stream_output_adapter@_W@__crt_stdio_output@@V?$format_validation_base@_WV?$stream_output_adapter@_W@__crt_stdio_output@@@2@@__crt_stdio_output@@AAE_NXZ 10052e7b f i libucrt:output.obj
 0001:00051e82       ?state_case_dot@?$output_processor@_WV?$stream_output_adapter@_W@__crt_stdio_output@@V?$positional_parameter_base@_WV?$stream_output_adapter@_W@__crt_stdio_output@@@2@@__crt_stdio_output@@AAE_NXZ 10052e82 f i libucrt:output.obj
 0001:00051e89       ?state_case_dot@?$output_processor@_WV?$stream_output_adapter@_W@__crt_stdio_output@@V?$standard_base@_WV?$stream_output_adapter@_W@__crt_stdio_output@@@2@@__crt_stdio_output@@AAE_NXZ 10052e89 f i libucrt:output.obj
 0001:00051e90       ?state_case_dot@?$output_processor@_WV?$string_output_adapter@_W@__crt_stdio_output@@V?$format_validation_base@_WV?$string_output_adapter@_W@__crt_stdio_output@@@2@@__crt_stdio_output@@AAE_NXZ 10052e90 f i libucrt:output.obj
 0001:00051e97       ?state_case_dot@?$output_processor@_WV?$string_output_adapter@_W@__crt_stdio_output@@V?$positional_parameter_base@_WV?$string_output_adapter@_W@__crt_stdio_output@@@2@@__crt_stdio_output@@AAE_NXZ 10052e97 f i libucrt:output.obj
 0001:00051e9e       ?state_case_dot@?$output_processor@_WV?$string_output_adapter@_W@__crt_stdio_output@@V?$standard_base@_WV?$string_output_adapter@_W@__crt_stdio_output@@@2@@__crt_stdio_output@@AAE_NXZ 10052e9e f i libucrt:output.obj
 0001:00051ea5       ?state_case_flag@?$output_processor@DV?$stream_output_adapter@D@__crt_stdio_output@@V?$format_validation_base@DV?$stream_output_adapter@D@__crt_stdio_output@@@2@@__crt_stdio_output@@AAE_NXZ 10052ea5 f i libucrt:output.obj
 0001:00051ee2       ?state_case_flag@?$output_processor@DV?$stream_output_adapter@D@__crt_stdio_output@@V?$positional_parameter_base@DV?$stream_output_adapter@D@__crt_stdio_output@@@2@@__crt_stdio_output@@AAE_NXZ 10052ee2 f i libucrt:output.obj
 0001:00051f1f       ?state_case_flag@?$output_processor@DV?$stream_output_adapter@D@__crt_stdio_output@@V?$standard_base@DV?$stream_output_adapter@D@__crt_stdio_output@@@2@@__crt_stdio_output@@AAE_NXZ 10052f1f f i libucrt:output.obj
 0001:00051f5c       ?state_case_flag@?$output_processor@DV?$string_output_adapter@D@__crt_stdio_output@@V?$format_validation_base@DV?$string_output_adapter@D@__crt_stdio_output@@@2@@__crt_stdio_output@@AAE_NXZ 10052f5c f i libucrt:output.obj
 0001:00051f99       ?state_case_flag@?$output_processor@DV?$string_output_adapter@D@__crt_stdio_output@@V?$positional_parameter_base@DV?$string_output_adapter@D@__crt_stdio_output@@@2@@__crt_stdio_output@@AAE_NXZ 10052f99 f i libucrt:output.obj
 0001:00051fd6       ?state_case_flag@?$output_processor@DV?$string_output_adapter@D@__crt_stdio_output@@V?$standard_base@DV?$string_output_adapter@D@__crt_stdio_output@@@2@@__crt_stdio_output@@AAE_NXZ 10052fd6 f i libucrt:output.obj
 0001:00052013       ?state_case_flag@?$output_processor@_WV?$stream_output_adapter@_W@__crt_stdio_output@@V?$format_validation_base@_WV?$stream_output_adapter@_W@__crt_stdio_output@@@2@@__crt_stdio_output@@AAE_NXZ 10053013 f i libucrt:output.obj
 0001:00052050       ?state_case_flag@?$output_processor@_WV?$stream_output_adapter@_W@__crt_stdio_output@@V?$positional_parameter_base@_WV?$stream_output_adapter@_W@__crt_stdio_output@@@2@@__crt_stdio_output@@AAE_NXZ 10053050 f i libucrt:output.obj
 0001:0005208d       ?state_case_flag@?$output_processor@_WV?$stream_output_adapter@_W@__crt_stdio_output@@V?$standard_base@_WV?$stream_output_adapter@_W@__crt_stdio_output@@@2@@__crt_stdio_output@@AAE_NXZ 1005308d f i libucrt:output.obj
 0001:000520ca       ?state_case_flag@?$output_processor@_WV?$string_output_adapter@_W@__crt_stdio_output@@V?$format_validation_base@_WV?$string_output_adapter@_W@__crt_stdio_output@@@2@@__crt_stdio_output@@AAE_NXZ 100530ca f i libucrt:output.obj
 0001:00052107       ?state_case_flag@?$output_processor@_WV?$string_output_adapter@_W@__crt_stdio_output@@V?$positional_parameter_base@_WV?$string_output_adapter@_W@__crt_stdio_output@@@2@@__crt_stdio_output@@AAE_NXZ 10053107 f i libucrt:output.obj
 0001:00052144       ?state_case_flag@?$output_processor@_WV?$string_output_adapter@_W@__crt_stdio_output@@V?$standard_base@_WV?$string_output_adapter@_W@__crt_stdio_output@@@2@@__crt_stdio_output@@AAE_NXZ 10053144 f i libucrt:output.obj
 0001:00052181       ?state_case_normal@?$output_processor@DV?$stream_output_adapter@D@__crt_stdio_output@@V?$format_validation_base@DV?$stream_output_adapter@D@__crt_stdio_output@@@2@@__crt_stdio_output@@AAE_NXZ 10053181 f i libucrt:output.obj
 0001:000521a0       ?state_case_normal@?$output_processor@DV?$stream_output_adapter@D@__crt_stdio_output@@V?$positional_parameter_base@DV?$stream_output_adapter@D@__crt_stdio_output@@@2@@__crt_stdio_output@@AAE_NXZ 100531a0 f i libucrt:output.obj
 0001:000521d1       ?state_case_normal@?$output_processor@DV?$stream_output_adapter@D@__crt_stdio_output@@V?$standard_base@DV?$stream_output_adapter@D@__crt_stdio_output@@@2@@__crt_stdio_output@@AAE_NXZ 100531d1 f i libucrt:output.obj
 0001:000521f0       ?state_case_normal@?$output_processor@DV?$string_output_adapter@D@__crt_stdio_output@@V?$format_validation_base@DV?$string_output_adapter@D@__crt_stdio_output@@@2@@__crt_stdio_output@@AAE_NXZ 100531f0 f i libucrt:output.obj
 0001:0005220f       ?state_case_normal@?$output_processor@DV?$string_output_adapter@D@__crt_stdio_output@@V?$positional_parameter_base@DV?$string_output_adapter@D@__crt_stdio_output@@@2@@__crt_stdio_output@@AAE_NXZ 1005320f f i libucrt:output.obj
 0001:00052240       ?state_case_normal@?$output_processor@DV?$string_output_adapter@D@__crt_stdio_output@@V?$standard_base@DV?$string_output_adapter@D@__crt_stdio_output@@@2@@__crt_stdio_output@@AAE_NXZ 10053240 f i libucrt:output.obj
 0001:0005225f       ?state_case_normal@?$output_processor@_WV?$stream_output_adapter@_W@__crt_stdio_output@@V?$format_validation_base@_WV?$stream_output_adapter@_W@__crt_stdio_output@@@2@@__crt_stdio_output@@AAE_NXZ 1005325f f i libucrt:output.obj
 0001:0005227e       ?state_case_normal@?$output_processor@_WV?$stream_output_adapter@_W@__crt_stdio_output@@V?$positional_parameter_base@_WV?$stream_output_adapter@_W@__crt_stdio_output@@@2@@__crt_stdio_output@@AAE_NXZ 1005327e f i libucrt:output.obj
 0001:000522af       ?state_case_normal@?$output_processor@_WV?$stream_output_adapter@_W@__crt_stdio_output@@V?$standard_base@_WV?$stream_output_adapter@_W@__crt_stdio_output@@@2@@__crt_stdio_output@@AAE_NXZ 100532af f i libucrt:output.obj
 0001:000522ce       ?state_case_normal@?$output_processor@_WV?$string_output_adapter@_W@__crt_stdio_output@@V?$format_validation_base@_WV?$string_output_adapter@_W@__crt_stdio_output@@@2@@__crt_stdio_output@@AAE_NXZ 100532ce f i libucrt:output.obj
 0001:000522ed       ?state_case_normal@?$output_processor@_WV?$string_output_adapter@_W@__crt_stdio_output@@V?$positional_parameter_base@_WV?$string_output_adapter@_W@__crt_stdio_output@@@2@@__crt_stdio_output@@AAE_NXZ 100532ed f i libucrt:output.obj
 0001:0005231e       ?state_case_normal@?$output_processor@_WV?$string_output_adapter@_W@__crt_stdio_output@@V?$standard_base@_WV?$string_output_adapter@_W@__crt_stdio_output@@@2@@__crt_stdio_output@@AAE_NXZ 1005331e f i libucrt:output.obj
 0001:0005233d       ?state_case_normal_common@?$output_processor@DV?$stream_output_adapter@D@__crt_stdio_output@@V?$format_validation_base@DV?$stream_output_adapter@D@__crt_stdio_output@@@2@@__crt_stdio_output@@AAE_NXZ 1005333d f i libucrt:output.obj
 0001:00052377       ?state_case_normal_common@?$output_processor@DV?$stream_output_adapter@D@__crt_stdio_output@@V?$positional_parameter_base@DV?$stream_output_adapter@D@__crt_stdio_output@@@2@@__crt_stdio_output@@AAE_NXZ 10053377 f i libucrt:output.obj
 0001:000523b1       ?state_case_normal_common@?$output_processor@DV?$stream_output_adapter@D@__crt_stdio_output@@V?$standard_base@DV?$stream_output_adapter@D@__crt_stdio_output@@@2@@__crt_stdio_output@@AAE_NXZ 100533b1 f i libucrt:output.obj
 0001:000523eb       ?state_case_normal_common@?$output_processor@DV?$string_output_adapter@D@__crt_stdio_output@@V?$format_validation_base@DV?$string_output_adapter@D@__crt_stdio_output@@@2@@__crt_stdio_output@@AAE_NXZ 100533eb f i libucrt:output.obj
 0001:00052415       ?state_case_normal_common@?$output_processor@DV?$string_output_adapter@D@__crt_stdio_output@@V?$positional_parameter_base@DV?$string_output_adapter@D@__crt_stdio_output@@@2@@__crt_stdio_output@@AAE_NXZ 10053415 f i libucrt:output.obj
 0001:0005243f       ?state_case_normal_common@?$output_processor@DV?$string_output_adapter@D@__crt_stdio_output@@V?$standard_base@DV?$string_output_adapter@D@__crt_stdio_output@@@2@@__crt_stdio_output@@AAE_NXZ 1005343f f i libucrt:output.obj
 0001:00052469       ?state_case_normal_common@?$output_processor@_WV?$stream_output_adapter@_W@__crt_stdio_output@@V?$format_validation_base@_WV?$stream_output_adapter@_W@__crt_stdio_output@@@2@@__crt_stdio_output@@AAE_NXZ 10053469 f i libucrt:output.obj
 0001:00052493       ?state_case_normal_common@?$output_processor@_WV?$stream_output_adapter@_W@__crt_stdio_output@@V?$positional_parameter_base@_WV?$stream_output_adapter@_W@__crt_stdio_output@@@2@@__crt_stdio_output@@AAE_NXZ 10053493 f i libucrt:output.obj
 0001:000524bd       ?state_case_normal_common@?$output_processor@_WV?$stream_output_adapter@_W@__crt_stdio_output@@V?$standard_base@_WV?$stream_output_adapter@_W@__crt_stdio_output@@@2@@__crt_stdio_output@@AAE_NXZ 100534bd f i libucrt:output.obj
 0001:000524e7       ?state_case_normal_common@?$output_processor@_WV?$string_output_adapter@_W@__crt_stdio_output@@V?$format_validation_base@_WV?$string_output_adapter@_W@__crt_stdio_output@@@2@@__crt_stdio_output@@AAE_NXZ 100534e7 f i libucrt:output.obj
 0001:00052502       ?state_case_normal_common@?$output_processor@_WV?$string_output_adapter@_W@__crt_stdio_output@@V?$positional_parameter_base@_WV?$string_output_adapter@_W@__crt_stdio_output@@@2@@__crt_stdio_output@@AAE_NXZ 10053502 f i libucrt:output.obj
 0001:0005251d       ?state_case_normal_common@?$output_processor@_WV?$string_output_adapter@_W@__crt_stdio_output@@V?$standard_base@_WV?$string_output_adapter@_W@__crt_stdio_output@@@2@@__crt_stdio_output@@AAE_NXZ 1005351d f i libucrt:output.obj
 0001:00052538       ?state_case_normal_tchar@?$output_processor@DV?$stream_output_adapter@D@__crt_stdio_output@@V?$format_validation_base@DV?$stream_output_adapter@D@__crt_stdio_output@@@2@@__crt_stdio_output@@AAE_ND@Z 10053538 f i libucrt:output.obj
 0001:000525a5       ?state_case_normal_tchar@?$output_processor@DV?$stream_output_adapter@D@__crt_stdio_output@@V?$positional_parameter_base@DV?$stream_output_adapter@D@__crt_stdio_output@@@2@@__crt_stdio_output@@AAE_ND@Z 100535a5 f i libucrt:output.obj
 0001:00052612       ?state_case_normal_tchar@?$output_processor@DV?$stream_output_adapter@D@__crt_stdio_output@@V?$standard_base@DV?$stream_output_adapter@D@__crt_stdio_output@@@2@@__crt_stdio_output@@AAE_ND@Z 10053612 f i libucrt:output.obj
 0001:0005267f       ?state_case_normal_tchar@?$output_processor@DV?$string_output_adapter@D@__crt_stdio_output@@V?$format_validation_base@DV?$string_output_adapter@D@__crt_stdio_output@@@2@@__crt_stdio_output@@AAE_ND@Z 1005367f f i libucrt:output.obj
 0001:000526e3       ?state_case_normal_tchar@?$output_processor@DV?$string_output_adapter@D@__crt_stdio_output@@V?$positional_parameter_base@DV?$string_output_adapter@D@__crt_stdio_output@@@2@@__crt_stdio_output@@AAE_ND@Z 100536e3 f i libucrt:output.obj
 0001:00052747       ?state_case_normal_tchar@?$output_processor@DV?$string_output_adapter@D@__crt_stdio_output@@V?$standard_base@DV?$string_output_adapter@D@__crt_stdio_output@@@2@@__crt_stdio_output@@AAE_ND@Z 10053747 f i libucrt:output.obj
 0001:000527ab       ?state_case_normal_tchar@?$output_processor@_WV?$stream_output_adapter@_W@__crt_stdio_output@@V?$format_validation_base@_WV?$stream_output_adapter@_W@__crt_stdio_output@@@2@@__crt_stdio_output@@AAE_N_W@Z 100537ab f i libucrt:output.obj
 0001:000527b4       ?state_case_normal_tchar@?$output_processor@_WV?$stream_output_adapter@_W@__crt_stdio_output@@V?$positional_parameter_base@_WV?$stream_output_adapter@_W@__crt_stdio_output@@@2@@__crt_stdio_output@@AAE_N_W@Z 100537b4 f i libucrt:output.obj
 0001:000527bd       ?state_case_normal_tchar@?$output_processor@_WV?$stream_output_adapter@_W@__crt_stdio_output@@V?$standard_base@_WV?$stream_output_adapter@_W@__crt_stdio_output@@@2@@__crt_stdio_output@@AAE_N_W@Z 100537bd f i libucrt:output.obj
 0001:000527c6       ?state_case_normal_tchar@?$output_processor@_WV?$string_output_adapter@_W@__crt_stdio_output@@V?$format_validation_base@_WV?$string_output_adapter@_W@__crt_stdio_output@@@2@@__crt_stdio_output@@AAE_N_W@Z 100537c6 f i libucrt:output.obj
 0001:000527cf       ?state_case_normal_tchar@?$output_processor@_WV?$string_output_adapter@_W@__crt_stdio_output@@V?$positional_parameter_base@_WV?$string_output_adapter@_W@__crt_stdio_output@@@2@@__crt_stdio_output@@AAE_N_W@Z 100537cf f i libucrt:output.obj
 0001:000527d8       ?state_case_normal_tchar@?$output_processor@_WV?$string_output_adapter@_W@__crt_stdio_output@@V?$standard_base@_WV?$string_output_adapter@_W@__crt_stdio_output@@@2@@__crt_stdio_output@@AAE_N_W@Z 100537d8 f i libucrt:output.obj
 0001:000527e1       ?state_case_percent@?$output_processor@DV?$stream_output_adapter@D@__crt_stdio_output@@V?$format_validation_base@DV?$stream_output_adapter@D@__crt_stdio_output@@@2@@__crt_stdio_output@@AAE_NXZ 100537e1 f i libucrt:output.obj
 0001:000527f9       ?state_case_percent@?$output_processor@DV?$stream_output_adapter@D@__crt_stdio_output@@V?$positional_parameter_base@DV?$stream_output_adapter@D@__crt_stdio_output@@@2@@__crt_stdio_output@@AAE_NXZ 100537f9 f i libucrt:output.obj
 0001:00052811       ?state_case_percent@?$output_processor@DV?$stream_output_adapter@D@__crt_stdio_output@@V?$standard_base@DV?$stream_output_adapter@D@__crt_stdio_output@@@2@@__crt_stdio_output@@AAE_NXZ 10053811 f i libucrt:output.obj
 0001:00052829       ?state_case_percent@?$output_processor@DV?$string_output_adapter@D@__crt_stdio_output@@V?$format_validation_base@DV?$string_output_adapter@D@__crt_stdio_output@@@2@@__crt_stdio_output@@AAE_NXZ 10053829 f i libucrt:output.obj
 0001:00052841       ?state_case_percent@?$output_processor@DV?$string_output_adapter@D@__crt_stdio_output@@V?$positional_parameter_base@DV?$string_output_adapter@D@__crt_stdio_output@@@2@@__crt_stdio_output@@AAE_NXZ 10053841 f i libucrt:output.obj
 0001:00052859       ?state_case_percent@?$output_processor@DV?$string_output_adapter@D@__crt_stdio_output@@V?$standard_base@DV?$string_output_adapter@D@__crt_stdio_output@@@2@@__crt_stdio_output@@AAE_NXZ 10053859 f i libucrt:output.obj
 0001:00052871       ?state_case_percent@?$output_processor@_WV?$stream_output_adapter@_W@__crt_stdio_output@@V?$format_validation_base@_WV?$stream_output_adapter@_W@__crt_stdio_output@@@2@@__crt_stdio_output@@AAE_NXZ 10053871 f i libucrt:output.obj
 0001:00052889       ?state_case_percent@?$output_processor@_WV?$stream_output_adapter@_W@__crt_stdio_output@@V?$positional_parameter_base@_WV?$stream_output_adapter@_W@__crt_stdio_output@@@2@@__crt_stdio_output@@AAE_NXZ 10053889 f i libucrt:output.obj
 0001:000528a1       ?state_case_percent@?$output_processor@_WV?$stream_output_adapter@_W@__crt_stdio_output@@V?$standard_base@_WV?$stream_output_adapter@_W@__crt_stdio_output@@@2@@__crt_stdio_output@@AAE_NXZ 100538a1 f i libucrt:output.obj
 0001:000528b9       ?state_case_percent@?$output_processor@_WV?$string_output_adapter@_W@__crt_stdio_output@@V?$format_validation_base@_WV?$string_output_adapter@_W@__crt_stdio_output@@@2@@__crt_stdio_output@@AAE_NXZ 100538b9 f i libucrt:output.obj
 0001:000528d1       ?state_case_percent@?$output_processor@_WV?$string_output_adapter@_W@__crt_stdio_output@@V?$positional_parameter_base@_WV?$string_output_adapter@_W@__crt_stdio_output@@@2@@__crt_stdio_output@@AAE_NXZ 100538d1 f i libucrt:output.obj
 0001:000528e9       ?state_case_percent@?$output_processor@_WV?$string_output_adapter@_W@__crt_stdio_output@@V?$standard_base@_WV?$string_output_adapter@_W@__crt_stdio_output@@@2@@__crt_stdio_output@@AAE_NXZ 100538e9 f i libucrt:output.obj
 0001:00052901       ?state_case_precision@?$output_processor@DV?$stream_output_adapter@D@__crt_stdio_output@@V?$format_validation_base@DV?$stream_output_adapter@D@__crt_stdio_output@@@2@@__crt_stdio_output@@AAE_NXZ 10053901 f i libucrt:output.obj
 0001:00052927       ?state_case_precision@?$output_processor@DV?$stream_output_adapter@D@__crt_stdio_output@@V?$positional_parameter_base@DV?$stream_output_adapter@D@__crt_stdio_output@@@2@@__crt_stdio_output@@AAE_NXZ 10053927 f i libucrt:output.obj
 0001:00052961       ?state_case_precision@?$output_processor@DV?$stream_output_adapter@D@__crt_stdio_output@@V?$standard_base@DV?$stream_output_adapter@D@__crt_stdio_output@@@2@@__crt_stdio_output@@AAE_NXZ 10053961 f i libucrt:output.obj
 0001:00052987       ?state_case_precision@?$output_processor@DV?$string_output_adapter@D@__crt_stdio_output@@V?$format_validation_base@DV?$string_output_adapter@D@__crt_stdio_output@@@2@@__crt_stdio_output@@AAE_NXZ 10053987 f i libucrt:output.obj
 0001:000529ad       ?state_case_precision@?$output_processor@DV?$string_output_adapter@D@__crt_stdio_output@@V?$positional_parameter_base@DV?$string_output_adapter@D@__crt_stdio_output@@@2@@__crt_stdio_output@@AAE_NXZ 100539ad f i libucrt:output.obj
 0001:000529e7       ?state_case_precision@?$output_processor@DV?$string_output_adapter@D@__crt_stdio_output@@V?$standard_base@DV?$string_output_adapter@D@__crt_stdio_output@@@2@@__crt_stdio_output@@AAE_NXZ 100539e7 f i libucrt:output.obj
 0001:00052a0d       ?state_case_precision@?$output_processor@_WV?$stream_output_adapter@_W@__crt_stdio_output@@V?$format_validation_base@_WV?$stream_output_adapter@_W@__crt_stdio_output@@@2@@__crt_stdio_output@@AAE_NXZ 10053a0d f i libucrt:output.obj
 0001:00052a34       ?state_case_precision@?$output_processor@_WV?$stream_output_adapter@_W@__crt_stdio_output@@V?$positional_parameter_base@_WV?$stream_output_adapter@_W@__crt_stdio_output@@@2@@__crt_stdio_output@@AAE_NXZ 10053a34 f i libucrt:output.obj
 0001:00052a6f       ?state_case_precision@?$output_processor@_WV?$stream_output_adapter@_W@__crt_stdio_output@@V?$standard_base@_WV?$stream_output_adapter@_W@__crt_stdio_output@@@2@@__crt_stdio_output@@AAE_NXZ 10053a6f f i libucrt:output.obj
 0001:00052a96       ?state_case_precision@?$output_processor@_WV?$string_output_adapter@_W@__crt_stdio_output@@V?$format_validation_base@_WV?$string_output_adapter@_W@__crt_stdio_output@@@2@@__crt_stdio_output@@AAE_NXZ 10053a96 f i libucrt:output.obj
 0001:00052abd       ?state_case_precision@?$output_processor@_WV?$string_output_adapter@_W@__crt_stdio_output@@V?$positional_parameter_base@_WV?$string_output_adapter@_W@__crt_stdio_output@@@2@@__crt_stdio_output@@AAE_NXZ 10053abd f i libucrt:output.obj
 0001:00052af8       ?state_case_precision@?$output_processor@_WV?$string_output_adapter@_W@__crt_stdio_output@@V?$standard_base@_WV?$string_output_adapter@_W@__crt_stdio_output@@@2@@__crt_stdio_output@@AAE_NXZ 10053af8 f i libucrt:output.obj
 0001:00052b1f       ?state_case_size@?$output_processor@DV?$stream_output_adapter@D@__crt_stdio_output@@V?$format_validation_base@DV?$stream_output_adapter@D@__crt_stdio_output@@@2@@__crt_stdio_output@@AAE_NXZ 10053b1f f i libucrt:output.obj
 0001:00052c6d       ?state_case_size@?$output_processor@DV?$stream_output_adapter@D@__crt_stdio_output@@V?$positional_parameter_base@DV?$stream_output_adapter@D@__crt_stdio_output@@@2@@__crt_stdio_output@@AAE_NXZ 10053c6d f i libucrt:output.obj
 0001:00052dbb       ?state_case_size@?$output_processor@DV?$stream_output_adapter@D@__crt_stdio_output@@V?$standard_base@DV?$stream_output_adapter@D@__crt_stdio_output@@@2@@__crt_stdio_output@@AAE_NXZ 10053dbb f i libucrt:output.obj
 0001:00052f09       ?state_case_size@?$output_processor@DV?$string_output_adapter@D@__crt_stdio_output@@V?$format_validation_base@DV?$string_output_adapter@D@__crt_stdio_output@@@2@@__crt_stdio_output@@AAE_NXZ 10053f09 f i libucrt:output.obj
 0001:00053057       ?state_case_size@?$output_processor@DV?$string_output_adapter@D@__crt_stdio_output@@V?$positional_parameter_base@DV?$string_output_adapter@D@__crt_stdio_output@@@2@@__crt_stdio_output@@AAE_NXZ 10054057 f i libucrt:output.obj
 0001:000531a5       ?state_case_size@?$output_processor@DV?$string_output_adapter@D@__crt_stdio_output@@V?$standard_base@DV?$string_output_adapter@D@__crt_stdio_output@@@2@@__crt_stdio_output@@AAE_NXZ 100541a5 f i libucrt:output.obj
 0001:000532f3       ?state_case_size@?$output_processor@_WV?$stream_output_adapter@_W@__crt_stdio_output@@V?$format_validation_base@_WV?$stream_output_adapter@_W@__crt_stdio_output@@@2@@__crt_stdio_output@@AAE_NXZ 100542f3 f i libucrt:output.obj
 0001:0005346b       ?state_case_size@?$output_processor@_WV?$stream_output_adapter@_W@__crt_stdio_output@@V?$positional_parameter_base@_WV?$stream_output_adapter@_W@__crt_stdio_output@@@2@@__crt_stdio_output@@AAE_NXZ 1005446b f i libucrt:output.obj
 0001:000535e3       ?state_case_size@?$output_processor@_WV?$stream_output_adapter@_W@__crt_stdio_output@@V?$standard_base@_WV?$stream_output_adapter@_W@__crt_stdio_output@@@2@@__crt_stdio_output@@AAE_NXZ 100545e3 f i libucrt:output.obj
 0001:0005375b       ?state_case_size@?$output_processor@_WV?$string_output_adapter@_W@__crt_stdio_output@@V?$format_validation_base@_WV?$string_output_adapter@_W@__crt_stdio_output@@@2@@__crt_stdio_output@@AAE_NXZ 1005475b f i libucrt:output.obj
 0001:000538d3       ?state_case_size@?$output_processor@_WV?$string_output_adapter@_W@__crt_stdio_output@@V?$positional_parameter_base@_WV?$string_output_adapter@_W@__crt_stdio_output@@@2@@__crt_stdio_output@@AAE_NXZ 100548d3 f i libucrt:output.obj
 0001:00053a4b       ?state_case_size@?$output_processor@_WV?$string_output_adapter@_W@__crt_stdio_output@@V?$standard_base@_WV?$string_output_adapter@_W@__crt_stdio_output@@@2@@__crt_stdio_output@@AAE_NXZ 10054a4b f i libucrt:output.obj
 0001:00053bc3       ?state_case_type@?$output_processor@DV?$stream_output_adapter@D@__crt_stdio_output@@V?$format_validation_base@DV?$stream_output_adapter@D@__crt_stdio_output@@@2@@__crt_stdio_output@@AAE_NXZ 10054bc3 f i libucrt:output.obj
 0001:00053df5       ?state_case_type@?$output_processor@DV?$stream_output_adapter@D@__crt_stdio_output@@V?$positional_parameter_base@DV?$stream_output_adapter@D@__crt_stdio_output@@@2@@__crt_stdio_output@@AAE_NXZ 10054df5 f i libucrt:output.obj
 0001:00054036       ?state_case_type@?$output_processor@DV?$stream_output_adapter@D@__crt_stdio_output@@V?$standard_base@DV?$stream_output_adapter@D@__crt_stdio_output@@@2@@__crt_stdio_output@@AAE_NXZ 10055036 f i libucrt:output.obj
 0001:00054268       ?state_case_type@?$output_processor@DV?$string_output_adapter@D@__crt_stdio_output@@V?$format_validation_base@DV?$string_output_adapter@D@__crt_stdio_output@@@2@@__crt_stdio_output@@AAE_NXZ 10055268 f i libucrt:output.obj
 0001:0005449a       ?state_case_type@?$output_processor@DV?$string_output_adapter@D@__crt_stdio_output@@V?$positional_parameter_base@DV?$string_output_adapter@D@__crt_stdio_output@@@2@@__crt_stdio_output@@AAE_NXZ 1005549a f i libucrt:output.obj
 0001:000546db       ?state_case_type@?$output_processor@DV?$string_output_adapter@D@__crt_stdio_output@@V?$standard_base@DV?$string_output_adapter@D@__crt_stdio_output@@@2@@__crt_stdio_output@@AAE_NXZ 100556db f i libucrt:output.obj
 0001:0005490d       ?state_case_type@?$output_processor@_WV?$stream_output_adapter@_W@__crt_stdio_output@@V?$format_validation_base@_WV?$stream_output_adapter@_W@__crt_stdio_output@@@2@@__crt_stdio_output@@AAE_NXZ 1005590d f i libucrt:output.obj
 0001:00054b6a       ?state_case_type@?$output_processor@_WV?$stream_output_adapter@_W@__crt_stdio_output@@V?$positional_parameter_base@_WV?$stream_output_adapter@_W@__crt_stdio_output@@@2@@__crt_stdio_output@@AAE_NXZ 10055b6a f i libucrt:output.obj
 0001:00054dd6       ?state_case_type@?$output_processor@_WV?$stream_output_adapter@_W@__crt_stdio_output@@V?$standard_base@_WV?$stream_output_adapter@_W@__crt_stdio_output@@@2@@__crt_stdio_output@@AAE_NXZ 10055dd6 f i libucrt:output.obj
 0001:00055033       ?state_case_type@?$output_processor@_WV?$string_output_adapter@_W@__crt_stdio_output@@V?$format_validation_base@_WV?$string_output_adapter@_W@__crt_stdio_output@@@2@@__crt_stdio_output@@AAE_NXZ 10056033 f i libucrt:output.obj
 0001:00055290       ?state_case_type@?$output_processor@_WV?$string_output_adapter@_W@__crt_stdio_output@@V?$positional_parameter_base@_WV?$string_output_adapter@_W@__crt_stdio_output@@@2@@__crt_stdio_output@@AAE_NXZ 10056290 f i libucrt:output.obj
 0001:000554fc       ?state_case_type@?$output_processor@_WV?$string_output_adapter@_W@__crt_stdio_output@@V?$standard_base@_WV?$string_output_adapter@_W@__crt_stdio_output@@@2@@__crt_stdio_output@@AAE_NXZ 100564fc f i libucrt:output.obj
 0001:00055759       ?state_case_width@?$output_processor@DV?$stream_output_adapter@D@__crt_stdio_output@@V?$format_validation_base@DV?$stream_output_adapter@D@__crt_stdio_output@@@2@@__crt_stdio_output@@AAE_NXZ 10056759 f i libucrt:output.obj
 0001:00055784       ?state_case_width@?$output_processor@DV?$stream_output_adapter@D@__crt_stdio_output@@V?$positional_parameter_base@DV?$stream_output_adapter@D@__crt_stdio_output@@@2@@__crt_stdio_output@@AAE_NXZ 10056784 f i libucrt:output.obj
 0001:000557c4       ?state_case_width@?$output_processor@DV?$stream_output_adapter@D@__crt_stdio_output@@V?$standard_base@DV?$stream_output_adapter@D@__crt_stdio_output@@@2@@__crt_stdio_output@@AAE_NXZ 100567c4 f i libucrt:output.obj
 0001:000557ef       ?state_case_width@?$output_processor@DV?$string_output_adapter@D@__crt_stdio_output@@V?$format_validation_base@DV?$string_output_adapter@D@__crt_stdio_output@@@2@@__crt_stdio_output@@AAE_NXZ 100567ef f i libucrt:output.obj
 0001:0005581a       ?state_case_width@?$output_processor@DV?$string_output_adapter@D@__crt_stdio_output@@V?$positional_parameter_base@DV?$string_output_adapter@D@__crt_stdio_output@@@2@@__crt_stdio_output@@AAE_NXZ 1005681a f i libucrt:output.obj
 0001:0005585a       ?state_case_width@?$output_processor@DV?$string_output_adapter@D@__crt_stdio_output@@V?$standard_base@DV?$string_output_adapter@D@__crt_stdio_output@@@2@@__crt_stdio_output@@AAE_NXZ 1005685a f i libucrt:output.obj
 0001:00055885       ?state_case_width@?$output_processor@_WV?$stream_output_adapter@_W@__crt_stdio_output@@V?$format_validation_base@_WV?$stream_output_adapter@_W@__crt_stdio_output@@@2@@__crt_stdio_output@@AAE_NXZ 10056885 f i libucrt:output.obj
 0001:000558b1       ?state_case_width@?$output_processor@_WV?$stream_output_adapter@_W@__crt_stdio_output@@V?$positional_parameter_base@_WV?$stream_output_adapter@_W@__crt_stdio_output@@@2@@__crt_stdio_output@@AAE_NXZ 100568b1 f i libucrt:output.obj
 0001:000558f2       ?state_case_width@?$output_processor@_WV?$stream_output_adapter@_W@__crt_stdio_output@@V?$standard_base@_WV?$stream_output_adapter@_W@__crt_stdio_output@@@2@@__crt_stdio_output@@AAE_NXZ 100568f2 f i libucrt:output.obj
 0001:0005591e       ?state_case_width@?$output_processor@_WV?$string_output_adapter@_W@__crt_stdio_output@@V?$format_validation_base@_WV?$string_output_adapter@_W@__crt_stdio_output@@@2@@__crt_stdio_output@@AAE_NXZ 1005691e f i libucrt:output.obj
 0001:0005594a       ?state_case_width@?$output_processor@_WV?$string_output_adapter@_W@__crt_stdio_output@@V?$positional_parameter_base@_WV?$string_output_adapter@_W@__crt_stdio_output@@@2@@__crt_stdio_output@@AAE_NXZ 1005694a f i libucrt:output.obj
 0001:0005598b       ?state_case_width@?$output_processor@_WV?$string_output_adapter@_W@__crt_stdio_output@@V?$standard_base@_WV?$string_output_adapter@_W@__crt_stdio_output@@@2@@__crt_stdio_output@@AAE_NXZ 1005698b f i libucrt:output.obj
 0001:000559b7       ?state_count@?$format_validation_base@DV?$stream_output_adapter@D@__crt_stdio_output@@@__crt_stdio_output@@KAIXZ 100569b7 f i libucrt:output.obj
 0001:000559bb       ?state_count@?$format_validation_base@DV?$string_output_adapter@D@__crt_stdio_output@@@__crt_stdio_output@@KAIXZ 100569bb f i libucrt:output.obj
 0001:000559bf       ?state_count@?$format_validation_base@_WV?$stream_output_adapter@_W@__crt_stdio_output@@@__crt_stdio_output@@KAIXZ 100569bf f i libucrt:output.obj
 0001:000559c3       ?state_count@?$format_validation_base@_WV?$string_output_adapter@_W@__crt_stdio_output@@@__crt_stdio_output@@KAIXZ 100569c3 f i libucrt:output.obj
 0001:000559c7       ?state_count@?$standard_base@DV?$stream_output_adapter@D@__crt_stdio_output@@@__crt_stdio_output@@KAIXZ 100569c7 f i libucrt:output.obj
 0001:000559cb       ?state_count@?$standard_base@DV?$string_output_adapter@D@__crt_stdio_output@@@__crt_stdio_output@@KAIXZ 100569cb f i libucrt:output.obj
 0001:000559cf       ?state_count@?$standard_base@_WV?$stream_output_adapter@_W@__crt_stdio_output@@@__crt_stdio_output@@KAIXZ 100569cf f i libucrt:output.obj
 0001:000559d3       ?state_count@?$standard_base@_WV?$string_output_adapter@_W@__crt_stdio_output@@@__crt_stdio_output@@KAIXZ 100569d3 f i libucrt:output.obj
 0001:000559d7       ?state_transition_table@?$format_validation_base@DV?$stream_output_adapter@D@__crt_stdio_output@@@__crt_stdio_output@@KAABV?$spectre_mitigated_lookup_table@Ustate_transition_pair@__crt_stdio_output@@$0IA@@2@XZ 100569d7 f i libucrt:output.obj
 0001:000559dd       ?state_transition_table@?$format_validation_base@DV?$string_output_adapter@D@__crt_stdio_output@@@__crt_stdio_output@@KAABV?$spectre_mitigated_lookup_table@Ustate_transition_pair@__crt_stdio_output@@$0IA@@2@XZ 100569dd f i libucrt:output.obj
 0001:000559e3       ?state_transition_table@?$format_validation_base@_WV?$stream_output_adapter@_W@__crt_stdio_output@@@__crt_stdio_output@@KAABV?$spectre_mitigated_lookup_table@Ustate_transition_pair@__crt_stdio_output@@$0IA@@2@XZ 100569e3 f i libucrt:output.obj
 0001:000559e9       ?state_transition_table@?$format_validation_base@_WV?$string_output_adapter@_W@__crt_stdio_output@@@__crt_stdio_output@@KAABV?$spectre_mitigated_lookup_table@Ustate_transition_pair@__crt_stdio_output@@$0IA@@2@XZ 100569e9 f i libucrt:output.obj
 0001:000559ef       ?state_transition_table@?$standard_base@DV?$stream_output_adapter@D@__crt_stdio_output@@@__crt_stdio_output@@KAABV?$spectre_mitigated_lookup_table@Ustate_transition_pair@__crt_stdio_output@@$0IA@@2@XZ 100569ef f i libucrt:output.obj
 0001:000559f5       ?state_transition_table@?$standard_base@DV?$string_output_adapter@D@__crt_stdio_output@@@__crt_stdio_output@@KAABV?$spectre_mitigated_lookup_table@Ustate_transition_pair@__crt_stdio_output@@$0IA@@2@XZ 100569f5 f i libucrt:output.obj
 0001:000559fb       ?state_transition_table@?$standard_base@_WV?$stream_output_adapter@_W@__crt_stdio_output@@@__crt_stdio_output@@KAABV?$spectre_mitigated_lookup_table@Ustate_transition_pair@__crt_stdio_output@@$0IA@@2@XZ 100569fb f i libucrt:output.obj
 0001:00055a01       ?state_transition_table@?$standard_base@_WV?$string_output_adapter@_W@__crt_stdio_output@@@__crt_stdio_output@@KAABV?$spectre_mitigated_lookup_table@Ustate_transition_pair@__crt_stdio_output@@$0IA@@2@XZ 10056a01 f i libucrt:output.obj
 0001:00055a07       ?tchar_string@?$common_data@D@__crt_stdio_output@@IAEAAPADD@Z 10056a07 f i libucrt:output.obj
 0001:00055a0d       ?tchar_string@?$common_data@D@__crt_stdio_output@@IAEAAPADXZ 10056a0d f i libucrt:output.obj
 0001:00055a11       ?tchar_string@?$common_data@_W@__crt_stdio_output@@IAEAAPA_WXZ 10056a11 f i libucrt:output.obj
 0001:00055a15       ?tchar_string@?$common_data@_W@__crt_stdio_output@@IAEAAPA_W_W@Z 10056a15 f i libucrt:output.obj
 0001:00055a20       ?to_integer_size@__crt_stdio_output@@YAIW4length_modifier@1@@Z 10056a20 f i libucrt:output.obj
 0001:00055a7c       ?type_case_X@?$output_processor@DV?$stream_output_adapter@D@__crt_stdio_output@@V?$format_validation_base@DV?$stream_output_adapter@D@__crt_stdio_output@@@2@@__crt_stdio_output@@AAE_NXZ 10056a7c f i libucrt:output.obj
 0001:00055a86       ?type_case_X@?$output_processor@DV?$stream_output_adapter@D@__crt_stdio_output@@V?$positional_parameter_base@DV?$stream_output_adapter@D@__crt_stdio_output@@@2@@__crt_stdio_output@@AAE_NXZ 10056a86 f i libucrt:output.obj
 0001:00055a90       ?type_case_X@?$output_processor@DV?$stream_output_adapter@D@__crt_stdio_output@@V?$standard_base@DV?$stream_output_adapter@D@__crt_stdio_output@@@2@@__crt_stdio_output@@AAE_NXZ 10056a90 f i libucrt:output.obj
 0001:00055a9a       ?type_case_X@?$output_processor@DV?$string_output_adapter@D@__crt_stdio_output@@V?$format_validation_base@DV?$string_output_adapter@D@__crt_stdio_output@@@2@@__crt_stdio_output@@AAE_NXZ 10056a9a f i libucrt:output.obj
 0001:00055aa4       ?type_case_X@?$output_processor@DV?$string_output_adapter@D@__crt_stdio_output@@V?$positional_parameter_base@DV?$string_output_adapter@D@__crt_stdio_output@@@2@@__crt_stdio_output@@AAE_NXZ 10056aa4 f i libucrt:output.obj
 0001:00055aae       ?type_case_X@?$output_processor@DV?$string_output_adapter@D@__crt_stdio_output@@V?$standard_base@DV?$string_output_adapter@D@__crt_stdio_output@@@2@@__crt_stdio_output@@AAE_NXZ 10056aae f i libucrt:output.obj
 0001:00055ab8       ?type_case_X@?$output_processor@_WV?$stream_output_adapter@_W@__crt_stdio_output@@V?$format_validation_base@_WV?$stream_output_adapter@_W@__crt_stdio_output@@@2@@__crt_stdio_output@@AAE_NXZ 10056ab8 f i libucrt:output.obj
 0001:00055ac2       ?type_case_X@?$output_processor@_WV?$stream_output_adapter@_W@__crt_stdio_output@@V?$positional_parameter_base@_WV?$stream_output_adapter@_W@__crt_stdio_output@@@2@@__crt_stdio_output@@AAE_NXZ 10056ac2 f i libucrt:output.obj
 0001:00055acc       ?type_case_X@?$output_processor@_WV?$stream_output_adapter@_W@__crt_stdio_output@@V?$standard_base@_WV?$stream_output_adapter@_W@__crt_stdio_output@@@2@@__crt_stdio_output@@AAE_NXZ 10056acc f i libucrt:output.obj
 0001:00055ad6       ?type_case_X@?$output_processor@_WV?$string_output_adapter@_W@__crt_stdio_output@@V?$format_validation_base@_WV?$string_output_adapter@_W@__crt_stdio_output@@@2@@__crt_stdio_output@@AAE_NXZ 10056ad6 f i libucrt:output.obj
 0001:00055ae0       ?type_case_X@?$output_processor@_WV?$string_output_adapter@_W@__crt_stdio_output@@V?$positional_parameter_base@_WV?$string_output_adapter@_W@__crt_stdio_output@@@2@@__crt_stdio_output@@AAE_NXZ 10056ae0 f i libucrt:output.obj
 0001:00055aea       ?type_case_X@?$output_processor@_WV?$string_output_adapter@_W@__crt_stdio_output@@V?$standard_base@_WV?$string_output_adapter@_W@__crt_stdio_output@@@2@@__crt_stdio_output@@AAE_NXZ 10056aea f i libucrt:output.obj
 0001:00055af4       ?type_case_Z@?$output_processor@DV?$stream_output_adapter@D@__crt_stdio_output@@V?$format_validation_base@DV?$stream_output_adapter@D@__crt_stdio_output@@@2@@__crt_stdio_output@@AAE_NXZ 10056af4 f i libucrt:output.obj
 0001:00055b4e       ?type_case_Z@?$output_processor@DV?$stream_output_adapter@D@__crt_stdio_output@@V?$positional_parameter_base@DV?$stream_output_adapter@D@__crt_stdio_output@@@2@@__crt_stdio_output@@AAE_NXZ 10056b4e f i libucrt:output.obj
 0001:00055bc2       ?type_case_Z@?$output_processor@DV?$stream_output_adapter@D@__crt_stdio_output@@V?$standard_base@DV?$stream_output_adapter@D@__crt_stdio_output@@@2@@__crt_stdio_output@@AAE_NXZ 10056bc2 f i libucrt:output.obj
 0001:00055c1c       ?type_case_Z@?$output_processor@DV?$string_output_adapter@D@__crt_stdio_output@@V?$format_validation_base@DV?$string_output_adapter@D@__crt_stdio_output@@@2@@__crt_stdio_output@@AAE_NXZ 10056c1c f i libucrt:output.obj
 0001:00055c76       ?type_case_Z@?$output_processor@DV?$string_output_adapter@D@__crt_stdio_output@@V?$positional_parameter_base@DV?$string_output_adapter@D@__crt_stdio_output@@@2@@__crt_stdio_output@@AAE_NXZ 10056c76 f i libucrt:output.obj
 0001:00055cea       ?type_case_Z@?$output_processor@DV?$string_output_adapter@D@__crt_stdio_output@@V?$standard_base@DV?$string_output_adapter@D@__crt_stdio_output@@@2@@__crt_stdio_output@@AAE_NXZ 10056cea f i libucrt:output.obj
 0001:00055d44       ?type_case_Z@?$output_processor@_WV?$stream_output_adapter@_W@__crt_stdio_output@@V?$format_validation_base@_WV?$stream_output_adapter@_W@__crt_stdio_output@@@2@@__crt_stdio_output@@AAE_NXZ 10056d44 f i libucrt:output.obj
 0001:00055d9e       ?type_case_Z@?$output_processor@_WV?$stream_output_adapter@_W@__crt_stdio_output@@V?$positional_parameter_base@_WV?$stream_output_adapter@_W@__crt_stdio_output@@@2@@__crt_stdio_output@@AAE_NXZ 10056d9e f i libucrt:output.obj
 0001:00055e12       ?type_case_Z@?$output_processor@_WV?$stream_output_adapter@_W@__crt_stdio_output@@V?$standard_base@_WV?$stream_output_adapter@_W@__crt_stdio_output@@@2@@__crt_stdio_output@@AAE_NXZ 10056e12 f i libucrt:output.obj
 0001:00055e6c       ?type_case_Z@?$output_processor@_WV?$string_output_adapter@_W@__crt_stdio_output@@V?$format_validation_base@_WV?$string_output_adapter@_W@__crt_stdio_output@@@2@@__crt_stdio_output@@AAE_NXZ 10056e6c f i libucrt:output.obj
 0001:00055ec6       ?type_case_Z@?$output_processor@_WV?$string_output_adapter@_W@__crt_stdio_output@@V?$positional_parameter_base@_WV?$string_output_adapter@_W@__crt_stdio_output@@@2@@__crt_stdio_output@@AAE_NXZ 10056ec6 f i libucrt:output.obj
 0001:00055f3a       ?type_case_Z@?$output_processor@_WV?$string_output_adapter@_W@__crt_stdio_output@@V?$standard_base@_WV?$string_output_adapter@_W@__crt_stdio_output@@@2@@__crt_stdio_output@@AAE_NXZ 10056f3a f i libucrt:output.obj
 0001:00055f94       ?type_case_a@?$output_processor@DV?$stream_output_adapter@D@__crt_stdio_output@@V?$format_validation_base@DV?$stream_output_adapter@D@__crt_stdio_output@@@2@@__crt_stdio_output@@AAE_NXZ 10056f94 f i libucrt:output.obj
 0001:000560e5       ?type_case_a@?$output_processor@DV?$stream_output_adapter@D@__crt_stdio_output@@V?$positional_parameter_base@DV?$stream_output_adapter@D@__crt_stdio_output@@@2@@__crt_stdio_output@@AAE_NXZ 100570e5 f i libucrt:output.obj
 0001:00056262       ?type_case_a@?$output_processor@DV?$stream_output_adapter@D@__crt_stdio_output@@V?$standard_base@DV?$stream_output_adapter@D@__crt_stdio_output@@@2@@__crt_stdio_output@@AAE_NXZ 10057262 f i libucrt:output.obj
 0001:000563b3       ?type_case_a@?$output_processor@DV?$string_output_adapter@D@__crt_stdio_output@@V?$format_validation_base@DV?$string_output_adapter@D@__crt_stdio_output@@@2@@__crt_stdio_output@@AAE_NXZ 100573b3 f i libucrt:output.obj
 0001:00056504       ?type_case_a@?$output_processor@DV?$string_output_adapter@D@__crt_stdio_output@@V?$positional_parameter_base@DV?$string_output_adapter@D@__crt_stdio_output@@@2@@__crt_stdio_output@@AAE_NXZ 10057504 f i libucrt:output.obj
 0001:00056681       ?type_case_a@?$output_processor@DV?$string_output_adapter@D@__crt_stdio_output@@V?$standard_base@DV?$string_output_adapter@D@__crt_stdio_output@@@2@@__crt_stdio_output@@AAE_NXZ 10057681 f i libucrt:output.obj
 0001:000567d2       ?type_case_a@?$output_processor@_WV?$stream_output_adapter@_W@__crt_stdio_output@@V?$format_validation_base@_WV?$stream_output_adapter@_W@__crt_stdio_output@@@2@@__crt_stdio_output@@AAE_NXZ 100577d2 f i libucrt:output.obj
 0001:00056939       ?type_case_a@?$output_processor@_WV?$stream_output_adapter@_W@__crt_stdio_output@@V?$positional_parameter_base@_WV?$stream_output_adapter@_W@__crt_stdio_output@@@2@@__crt_stdio_output@@AAE_NXZ 10057939 f i libucrt:output.obj
 0001:00056acc       ?type_case_a@?$output_processor@_WV?$stream_output_adapter@_W@__crt_stdio_output@@V?$standard_base@_WV?$stream_output_adapter@_W@__crt_stdio_output@@@2@@__crt_stdio_output@@AAE_NXZ 10057acc f i libucrt:output.obj
 0001:00056c33       ?type_case_a@?$output_processor@_WV?$string_output_adapter@_W@__crt_stdio_output@@V?$format_validation_base@_WV?$string_output_adapter@_W@__crt_stdio_output@@@2@@__crt_stdio_output@@AAE_NXZ 10057c33 f i libucrt:output.obj
 0001:00056d9a       ?type_case_a@?$output_processor@_WV?$string_output_adapter@_W@__crt_stdio_output@@V?$positional_parameter_base@_WV?$string_output_adapter@_W@__crt_stdio_output@@@2@@__crt_stdio_output@@AAE_NXZ 10057d9a f i libucrt:output.obj
 0001:00056f2d       ?type_case_a@?$output_processor@_WV?$string_output_adapter@_W@__crt_stdio_output@@V?$standard_base@_WV?$string_output_adapter@_W@__crt_stdio_output@@@2@@__crt_stdio_output@@AAE_NXZ 10057f2d f i libucrt:output.obj
 0001:00057094       ?type_case_c@?$output_processor@DV?$stream_output_adapter@D@__crt_stdio_output@@V?$format_validation_base@DV?$stream_output_adapter@D@__crt_stdio_output@@@2@@__crt_stdio_output@@AAE_NXZ 10058094 f i libucrt:output.obj
 0001:0005709c       ?type_case_c@?$output_processor@DV?$stream_output_adapter@D@__crt_stdio_output@@V?$positional_parameter_base@DV?$stream_output_adapter@D@__crt_stdio_output@@@2@@__crt_stdio_output@@AAE_NXZ 1005809c f i libucrt:output.obj
 0001:000570a4       ?type_case_c@?$output_processor@DV?$stream_output_adapter@D@__crt_stdio_output@@V?$standard_base@DV?$stream_output_adapter@D@__crt_stdio_output@@@2@@__crt_stdio_output@@AAE_NXZ 100580a4 f i libucrt:output.obj
 0001:000570ac       ?type_case_c@?$output_processor@DV?$string_output_adapter@D@__crt_stdio_output@@V?$format_validation_base@DV?$string_output_adapter@D@__crt_stdio_output@@@2@@__crt_stdio_output@@AAE_NXZ 100580ac f i libucrt:output.obj
 0001:000570b4       ?type_case_c@?$output_processor@DV?$string_output_adapter@D@__crt_stdio_output@@V?$positional_parameter_base@DV?$string_output_adapter@D@__crt_stdio_output@@@2@@__crt_stdio_output@@AAE_NXZ 100580b4 f i libucrt:output.obj
 0001:000570bc       ?type_case_c@?$output_processor@DV?$string_output_adapter@D@__crt_stdio_output@@V?$standard_base@DV?$string_output_adapter@D@__crt_stdio_output@@@2@@__crt_stdio_output@@AAE_NXZ 100580bc f i libucrt:output.obj
 0001:000570c4       ?type_case_c@?$output_processor@_WV?$stream_output_adapter@_W@__crt_stdio_output@@V?$format_validation_base@_WV?$stream_output_adapter@_W@__crt_stdio_output@@@2@@__crt_stdio_output@@AAE_NXZ 100580c4 f i libucrt:output.obj
 0001:000570cc       ?type_case_c@?$output_processor@_WV?$stream_output_adapter@_W@__crt_stdio_output@@V?$positional_parameter_base@_WV?$stream_output_adapter@_W@__crt_stdio_output@@@2@@__crt_stdio_output@@AAE_NXZ 100580cc f i libucrt:output.obj
 0001:000570d4       ?type_case_c@?$output_processor@_WV?$stream_output_adapter@_W@__crt_stdio_output@@V?$standard_base@_WV?$stream_output_adapter@_W@__crt_stdio_output@@@2@@__crt_stdio_output@@AAE_NXZ 100580d4 f i libucrt:output.obj
 0001:000570dc       ?type_case_c@?$output_processor@_WV?$string_output_adapter@_W@__crt_stdio_output@@V?$format_validation_base@_WV?$string_output_adapter@_W@__crt_stdio_output@@@2@@__crt_stdio_output@@AAE_NXZ 100580dc f i libucrt:output.obj
 0001:000570e4       ?type_case_c@?$output_processor@_WV?$string_output_adapter@_W@__crt_stdio_output@@V?$positional_parameter_base@_WV?$string_output_adapter@_W@__crt_stdio_output@@@2@@__crt_stdio_output@@AAE_NXZ 100580e4 f i libucrt:output.obj
 0001:000570ec       ?type_case_c@?$output_processor@_WV?$string_output_adapter@_W@__crt_stdio_output@@V?$standard_base@_WV?$string_output_adapter@_W@__crt_stdio_output@@@2@@__crt_stdio_output@@AAE_NXZ 100580ec f i libucrt:output.obj
 0001:000570f4       ?type_case_c_tchar@?$output_processor@DV?$stream_output_adapter@D@__crt_stdio_output@@V?$format_validation_base@DV?$stream_output_adapter@D@__crt_stdio_output@@@2@@__crt_stdio_output@@AAE_ND@Z 100580f4 f i libucrt:output.obj
 0001:00057187       ?type_case_c_tchar@?$output_processor@DV?$stream_output_adapter@D@__crt_stdio_output@@V?$positional_parameter_base@DV?$stream_output_adapter@D@__crt_stdio_output@@@2@@__crt_stdio_output@@AAE_ND@Z 10058187 f i libucrt:output.obj
 0001:00057248       ?type_case_c_tchar@?$output_processor@DV?$stream_output_adapter@D@__crt_stdio_output@@V?$standard_base@DV?$stream_output_adapter@D@__crt_stdio_output@@@2@@__crt_stdio_output@@AAE_ND@Z 10058248 f i libucrt:output.obj
 0001:000572db       ?type_case_c_tchar@?$output_processor@DV?$string_output_adapter@D@__crt_stdio_output@@V?$format_validation_base@DV?$string_output_adapter@D@__crt_stdio_output@@@2@@__crt_stdio_output@@AAE_ND@Z 100582db f i libucrt:output.obj
 0001:0005736e       ?type_case_c_tchar@?$output_processor@DV?$string_output_adapter@D@__crt_stdio_output@@V?$positional_parameter_base@DV?$string_output_adapter@D@__crt_stdio_output@@@2@@__crt_stdio_output@@AAE_ND@Z 1005836e f i libucrt:output.obj
 0001:0005742f       ?type_case_c_tchar@?$output_processor@DV?$string_output_adapter@D@__crt_stdio_output@@V?$standard_base@DV?$string_output_adapter@D@__crt_stdio_output@@@2@@__crt_stdio_output@@AAE_ND@Z 1005842f f i libucrt:output.obj
 0001:000574c2       ?type_case_c_tchar@?$output_processor@_WV?$stream_output_adapter@_W@__crt_stdio_output@@V?$format_validation_base@_WV?$stream_output_adapter@_W@__crt_stdio_output@@@2@@__crt_stdio_output@@AAE_N_W@Z 100584c2 f i libucrt:output.obj
 0001:00057558       ?type_case_c_tchar@?$output_processor@_WV?$stream_output_adapter@_W@__crt_stdio_output@@V?$positional_parameter_base@_WV?$stream_output_adapter@_W@__crt_stdio_output@@@2@@__crt_stdio_output@@AAE_N_W@Z 10058558 f i libucrt:output.obj
 0001:00057605       ?type_case_c_tchar@?$output_processor@_WV?$stream_output_adapter@_W@__crt_stdio_output@@V?$standard_base@_WV?$stream_output_adapter@_W@__crt_stdio_output@@@2@@__crt_stdio_output@@AAE_N_W@Z 10058605 f i libucrt:output.obj
 0001:0005769b       ?type_case_c_tchar@?$output_processor@_WV?$string_output_adapter@_W@__crt_stdio_output@@V?$format_validation_base@_WV?$string_output_adapter@_W@__crt_stdio_output@@@2@@__crt_stdio_output@@AAE_N_W@Z 1005869b f i libucrt:output.obj
 0001:00057731       ?type_case_c_tchar@?$output_processor@_WV?$string_output_adapter@_W@__crt_stdio_output@@V?$positional_parameter_base@_WV?$string_output_adapter@_W@__crt_stdio_output@@@2@@__crt_stdio_output@@AAE_N_W@Z 10058731 f i libucrt:output.obj
 0001:000577de       ?type_case_c_tchar@?$output_processor@_WV?$string_output_adapter@_W@__crt_stdio_output@@V?$standard_base@_WV?$string_output_adapter@_W@__crt_stdio_output@@@2@@__crt_stdio_output@@AAE_N_W@Z 100587de f i libucrt:output.obj
 0001:00057874       ?type_case_d@?$output_processor@DV?$stream_output_adapter@D@__crt_stdio_output@@V?$format_validation_base@DV?$stream_output_adapter@D@__crt_stdio_output@@@2@@__crt_stdio_output@@AAE_NXZ 10058874 f i libucrt:output.obj
 0001:00057882       ?type_case_d@?$output_processor@DV?$stream_output_adapter@D@__crt_stdio_output@@V?$positional_parameter_base@DV?$stream_output_adapter@D@__crt_stdio_output@@@2@@__crt_stdio_output@@AAE_NXZ 10058882 f i libucrt:output.obj
 0001:00057890       ?type_case_d@?$output_processor@DV?$stream_output_adapter@D@__crt_stdio_output@@V?$standard_base@DV?$stream_output_adapter@D@__crt_stdio_output@@@2@@__crt_stdio_output@@AAE_NXZ 10058890 f i libucrt:output.obj
 0001:0005789e       ?type_case_d@?$output_processor@DV?$string_output_adapter@D@__crt_stdio_output@@V?$format_validation_base@DV?$string_output_adapter@D@__crt_stdio_output@@@2@@__crt_stdio_output@@AAE_NXZ 1005889e f i libucrt:output.obj
 0001:000578ac       ?type_case_d@?$output_processor@DV?$string_output_adapter@D@__crt_stdio_output@@V?$positional_parameter_base@DV?$string_output_adapter@D@__crt_stdio_output@@@2@@__crt_stdio_output@@AAE_NXZ 100588ac f i libucrt:output.obj
 0001:000578ba       ?type_case_d@?$output_processor@DV?$string_output_adapter@D@__crt_stdio_output@@V?$standard_base@DV?$string_output_adapter@D@__crt_stdio_output@@@2@@__crt_stdio_output@@AAE_NXZ 100588ba f i libucrt:output.obj
 0001:000578c8       ?type_case_d@?$output_processor@_WV?$stream_output_adapter@_W@__crt_stdio_output@@V?$format_validation_base@_WV?$stream_output_adapter@_W@__crt_stdio_output@@@2@@__crt_stdio_output@@AAE_NXZ 100588c8 f i libucrt:output.obj
 0001:000578d6       ?type_case_d@?$output_processor@_WV?$stream_output_adapter@_W@__crt_stdio_output@@V?$positional_parameter_base@_WV?$stream_output_adapter@_W@__crt_stdio_output@@@2@@__crt_stdio_output@@AAE_NXZ 100588d6 f i libucrt:output.obj
 0001:000578e4       ?type_case_d@?$output_processor@_WV?$stream_output_adapter@_W@__crt_stdio_output@@V?$standard_base@_WV?$stream_output_adapter@_W@__crt_stdio_output@@@2@@__crt_stdio_output@@AAE_NXZ 100588e4 f i libucrt:output.obj
 0001:000578f2       ?type_case_d@?$output_processor@_WV?$string_output_adapter@_W@__crt_stdio_output@@V?$format_validation_base@_WV?$string_output_adapter@_W@__crt_stdio_output@@@2@@__crt_stdio_output@@AAE_NXZ 100588f2 f i libucrt:output.obj
 0001:00057900       ?type_case_d@?$output_processor@_WV?$string_output_adapter@_W@__crt_stdio_output@@V?$positional_parameter_base@_WV?$string_output_adapter@_W@__crt_stdio_output@@@2@@__crt_stdio_output@@AAE_NXZ 10058900 f i libucrt:output.obj
 0001:0005790e       ?type_case_d@?$output_processor@_WV?$string_output_adapter@_W@__crt_stdio_output@@V?$standard_base@_WV?$string_output_adapter@_W@__crt_stdio_output@@@2@@__crt_stdio_output@@AAE_NXZ 1005890e f i libucrt:output.obj
 0001:0005791c       ?type_case_integer@?$output_processor@DV?$stream_output_adapter@D@__crt_stdio_output@@V?$format_validation_base@DV?$stream_output_adapter@D@__crt_stdio_output@@@2@@__crt_stdio_output@@AAE_NI_N@Z 1005891c f i libucrt:output.obj
 0001:00057a6d       ?type_case_integer@?$output_processor@DV?$stream_output_adapter@D@__crt_stdio_output@@V?$positional_parameter_base@DV?$stream_output_adapter@D@__crt_stdio_output@@@2@@__crt_stdio_output@@AAE_NI_N@Z 10058a6d f i libucrt:output.obj
 0001:00057bee       ?type_case_integer@?$output_processor@DV?$stream_output_adapter@D@__crt_stdio_output@@V?$standard_base@DV?$stream_output_adapter@D@__crt_stdio_output@@@2@@__crt_stdio_output@@AAE_NI_N@Z 10058bee f i libucrt:output.obj
 0001:00057d3f       ?type_case_integer@?$output_processor@DV?$string_output_adapter@D@__crt_stdio_output@@V?$format_validation_base@DV?$string_output_adapter@D@__crt_stdio_output@@@2@@__crt_stdio_output@@AAE_NI_N@Z 10058d3f f i libucrt:output.obj
 0001:00057e90       ?type_case_integer@?$output_processor@DV?$string_output_adapter@D@__crt_stdio_output@@V?$positional_parameter_base@DV?$string_output_adapter@D@__crt_stdio_output@@@2@@__crt_stdio_output@@AAE_NI_N@Z 10058e90 f i libucrt:output.obj
 0001:00058011       ?type_case_integer@?$output_processor@DV?$string_output_adapter@D@__crt_stdio_output@@V?$standard_base@DV?$string_output_adapter@D@__crt_stdio_output@@@2@@__crt_stdio_output@@AAE_NI_N@Z 10059011 f i libucrt:output.obj
 0001:00058162       ?type_case_integer@?$output_processor@_WV?$stream_output_adapter@_W@__crt_stdio_output@@V?$format_validation_base@_WV?$stream_output_adapter@_W@__crt_stdio_output@@@2@@__crt_stdio_output@@AAE_NI_N@Z 10059162 f i libucrt:output.obj
 0001:000582b7       ?type_case_integer@?$output_processor@_WV?$stream_output_adapter@_W@__crt_stdio_output@@V?$positional_parameter_base@_WV?$stream_output_adapter@_W@__crt_stdio_output@@@2@@__crt_stdio_output@@AAE_NI_N@Z 100592b7 f i libucrt:output.obj
 0001:0005843c       ?type_case_integer@?$output_processor@_WV?$stream_output_adapter@_W@__crt_stdio_output@@V?$standard_base@_WV?$stream_output_adapter@_W@__crt_stdio_output@@@2@@__crt_stdio_output@@AAE_NI_N@Z 1005943c f i libucrt:output.obj
 0001:00058591       ?type_case_integer@?$output_processor@_WV?$string_output_adapter@_W@__crt_stdio_output@@V?$format_validation_base@_WV?$string_output_adapter@_W@__crt_stdio_output@@@2@@__crt_stdio_output@@AAE_NI_N@Z 10059591 f i libucrt:output.obj
 0001:000586e6       ?type_case_integer@?$output_processor@_WV?$string_output_adapter@_W@__crt_stdio_output@@V?$positional_parameter_base@_WV?$string_output_adapter@_W@__crt_stdio_output@@@2@@__crt_stdio_output@@AAE_NI_N@Z 100596e6 f i libucrt:output.obj
 0001:0005886b       ?type_case_integer@?$output_processor@_WV?$string_output_adapter@_W@__crt_stdio_output@@V?$standard_base@_WV?$string_output_adapter@_W@__crt_stdio_output@@@2@@__crt_stdio_output@@AAE_NI_N@Z 1005986b f i libucrt:output.obj
 0001:000589c0       ?type_case_n@?$output_processor@DV?$stream_output_adapter@D@__crt_stdio_output@@V?$format_validation_base@DV?$stream_output_adapter@D@__crt_stdio_output@@@2@@__crt_stdio_output@@AAE_NXZ 100599c0 f i libucrt:output.obj
 0001:00058a34       ?type_case_n@?$output_processor@DV?$stream_output_adapter@D@__crt_stdio_output@@V?$positional_parameter_base@DV?$stream_output_adapter@D@__crt_stdio_output@@@2@@__crt_stdio_output@@AAE_NXZ 10059a34 f i libucrt:output.obj
 0001:00058acb       ?type_case_n@?$output_processor@DV?$stream_output_adapter@D@__crt_stdio_output@@V?$standard_base@DV?$stream_output_adapter@D@__crt_stdio_output@@@2@@__crt_stdio_output@@AAE_NXZ 10059acb f i libucrt:output.obj
 0001:00058b3f       ?type_case_n@?$output_processor@DV?$string_output_adapter@D@__crt_stdio_output@@V?$format_validation_base@DV?$string_output_adapter@D@__crt_stdio_output@@@2@@__crt_stdio_output@@AAE_NXZ 10059b3f f i libucrt:output.obj
 0001:00058bb3       ?type_case_n@?$output_processor@DV?$string_output_adapter@D@__crt_stdio_output@@V?$positional_parameter_base@DV?$string_output_adapter@D@__crt_stdio_output@@@2@@__crt_stdio_output@@AAE_NXZ 10059bb3 f i libucrt:output.obj
 0001:00058c4a       ?type_case_n@?$output_processor@DV?$string_output_adapter@D@__crt_stdio_output@@V?$standard_base@DV?$string_output_adapter@D@__crt_stdio_output@@@2@@__crt_stdio_output@@AAE_NXZ 10059c4a f i libucrt:output.obj
 0001:00058cbe       ?type_case_n@?$output_processor@_WV?$stream_output_adapter@_W@__crt_stdio_output@@V?$format_validation_base@_WV?$stream_output_adapter@_W@__crt_stdio_output@@@2@@__crt_stdio_output@@AAE_NXZ 10059cbe f i libucrt:output.obj
 0001:00058d32       ?type_case_n@?$output_processor@_WV?$stream_output_adapter@_W@__crt_stdio_output@@V?$positional_parameter_base@_WV?$stream_output_adapter@_W@__crt_stdio_output@@@2@@__crt_stdio_output@@AAE_NXZ 10059d32 f i libucrt:output.obj
 0001:00058dc9       ?type_case_n@?$output_processor@_WV?$stream_output_adapter@_W@__crt_stdio_output@@V?$standard_base@_WV?$stream_output_adapter@_W@__crt_stdio_output@@@2@@__crt_stdio_output@@AAE_NXZ 10059dc9 f i libucrt:output.obj
 0001:00058e3d       ?type_case_n@?$output_processor@_WV?$string_output_adapter@_W@__crt_stdio_output@@V?$format_validation_base@_WV?$string_output_adapter@_W@__crt_stdio_output@@@2@@__crt_stdio_output@@AAE_NXZ 10059e3d f i libucrt:output.obj
 0001:00058eb1       ?type_case_n@?$output_processor@_WV?$string_output_adapter@_W@__crt_stdio_output@@V?$positional_parameter_base@_WV?$string_output_adapter@_W@__crt_stdio_output@@@2@@__crt_stdio_output@@AAE_NXZ 10059eb1 f i libucrt:output.obj
 0001:00058f48       ?type_case_n@?$output_processor@_WV?$string_output_adapter@_W@__crt_stdio_output@@V?$standard_base@_WV?$string_output_adapter@_W@__crt_stdio_output@@@2@@__crt_stdio_output@@AAE_NXZ 10059f48 f i libucrt:output.obj
 0001:00058fbc       ?type_case_o@?$output_processor@DV?$stream_output_adapter@D@__crt_stdio_output@@V?$format_validation_base@DV?$stream_output_adapter@D@__crt_stdio_output@@@2@@__crt_stdio_output@@AAE_NXZ 10059fbc f i libucrt:output.obj
 0001:00058fdb       ?type_case_o@?$output_processor@DV?$stream_output_adapter@D@__crt_stdio_output@@V?$positional_parameter_base@DV?$stream_output_adapter@D@__crt_stdio_output@@@2@@__crt_stdio_output@@AAE_NXZ 10059fdb f i libucrt:output.obj
 0001:00058ffa       ?type_case_o@?$output_processor@DV?$stream_output_adapter@D@__crt_stdio_output@@V?$standard_base@DV?$stream_output_adapter@D@__crt_stdio_output@@@2@@__crt_stdio_output@@AAE_NXZ 10059ffa f i libucrt:output.obj
 0001:00059019       ?type_case_o@?$output_processor@DV?$string_output_adapter@D@__crt_stdio_output@@V?$format_validation_base@DV?$string_output_adapter@D@__crt_stdio_output@@@2@@__crt_stdio_output@@AAE_NXZ 1005a019 f i libucrt:output.obj
 0001:00059038       ?type_case_o@?$output_processor@DV?$string_output_adapter@D@__crt_stdio_output@@V?$positional_parameter_base@DV?$string_output_adapter@D@__crt_stdio_output@@@2@@__crt_stdio_output@@AAE_NXZ 1005a038 f i libucrt:output.obj
 0001:00059057       ?type_case_o@?$output_processor@DV?$string_output_adapter@D@__crt_stdio_output@@V?$standard_base@DV?$string_output_adapter@D@__crt_stdio_output@@@2@@__crt_stdio_output@@AAE_NXZ 1005a057 f i libucrt:output.obj
 0001:00059076       ?type_case_o@?$output_processor@_WV?$stream_output_adapter@_W@__crt_stdio_output@@V?$format_validation_base@_WV?$stream_output_adapter@_W@__crt_stdio_output@@@2@@__crt_stdio_output@@AAE_NXZ 1005a076 f i libucrt:output.obj
 0001:00059095       ?type_case_o@?$output_processor@_WV?$stream_output_adapter@_W@__crt_stdio_output@@V?$positional_parameter_base@_WV?$stream_output_adapter@_W@__crt_stdio_output@@@2@@__crt_stdio_output@@AAE_NXZ 1005a095 f i libucrt:output.obj
 0001:000590b4       ?type_case_o@?$output_processor@_WV?$stream_output_adapter@_W@__crt_stdio_output@@V?$standard_base@_WV?$stream_output_adapter@_W@__crt_stdio_output@@@2@@__crt_stdio_output@@AAE_NXZ 1005a0b4 f i libucrt:output.obj
 0001:000590d3       ?type_case_o@?$output_processor@_WV?$string_output_adapter@_W@__crt_stdio_output@@V?$format_validation_base@_WV?$string_output_adapter@_W@__crt_stdio_output@@@2@@__crt_stdio_output@@AAE_NXZ 1005a0d3 f i libucrt:output.obj
 0001:000590f2       ?type_case_o@?$output_processor@_WV?$string_output_adapter@_W@__crt_stdio_output@@V?$positional_parameter_base@_WV?$string_output_adapter@_W@__crt_stdio_output@@@2@@__crt_stdio_output@@AAE_NXZ 1005a0f2 f i libucrt:output.obj
 0001:00059111       ?type_case_o@?$output_processor@_WV?$string_output_adapter@_W@__crt_stdio_output@@V?$standard_base@_WV?$string_output_adapter@_W@__crt_stdio_output@@@2@@__crt_stdio_output@@AAE_NXZ 1005a111 f i libucrt:output.obj
 0001:00059130       ?type_case_p@?$output_processor@DV?$stream_output_adapter@D@__crt_stdio_output@@V?$format_validation_base@DV?$stream_output_adapter@D@__crt_stdio_output@@@2@@__crt_stdio_output@@AAE_NXZ 1005a130 f i libucrt:output.obj
 0001:00059148       ?type_case_p@?$output_processor@DV?$stream_output_adapter@D@__crt_stdio_output@@V?$positional_parameter_base@DV?$stream_output_adapter@D@__crt_stdio_output@@@2@@__crt_stdio_output@@AAE_NXZ 1005a148 f i libucrt:output.obj
 0001:00059160       ?type_case_p@?$output_processor@DV?$stream_output_adapter@D@__crt_stdio_output@@V?$standard_base@DV?$stream_output_adapter@D@__crt_stdio_output@@@2@@__crt_stdio_output@@AAE_NXZ 1005a160 f i libucrt:output.obj
 0001:00059178       ?type_case_p@?$output_processor@DV?$string_output_adapter@D@__crt_stdio_output@@V?$format_validation_base@DV?$string_output_adapter@D@__crt_stdio_output@@@2@@__crt_stdio_output@@AAE_NXZ 1005a178 f i libucrt:output.obj
 0001:00059190       ?type_case_p@?$output_processor@DV?$string_output_adapter@D@__crt_stdio_output@@V?$positional_parameter_base@DV?$string_output_adapter@D@__crt_stdio_output@@@2@@__crt_stdio_output@@AAE_NXZ 1005a190 f i libucrt:output.obj
 0001:000591a8       ?type_case_p@?$output_processor@DV?$string_output_adapter@D@__crt_stdio_output@@V?$standard_base@DV?$string_output_adapter@D@__crt_stdio_output@@@2@@__crt_stdio_output@@AAE_NXZ 1005a1a8 f i libucrt:output.obj
 0001:000591c0       ?type_case_p@?$output_processor@_WV?$stream_output_adapter@_W@__crt_stdio_output@@V?$format_validation_base@_WV?$stream_output_adapter@_W@__crt_stdio_output@@@2@@__crt_stdio_output@@AAE_NXZ 1005a1c0 f i libucrt:output.obj
 0001:000591d8       ?type_case_p@?$output_processor@_WV?$stream_output_adapter@_W@__crt_stdio_output@@V?$positional_parameter_base@_WV?$stream_output_adapter@_W@__crt_stdio_output@@@2@@__crt_stdio_output@@AAE_NXZ 1005a1d8 f i libucrt:output.obj
 0001:000591f0       ?type_case_p@?$output_processor@_WV?$stream_output_adapter@_W@__crt_stdio_output@@V?$standard_base@_WV?$stream_output_adapter@_W@__crt_stdio_output@@@2@@__crt_stdio_output@@AAE_NXZ 1005a1f0 f i libucrt:output.obj
 0001:00059208       ?type_case_p@?$output_processor@_WV?$string_output_adapter@_W@__crt_stdio_output@@V?$format_validation_base@_WV?$string_output_adapter@_W@__crt_stdio_output@@@2@@__crt_stdio_output@@AAE_NXZ 1005a208 f i libucrt:output.obj
 0001:00059220       ?type_case_p@?$output_processor@_WV?$string_output_adapter@_W@__crt_stdio_output@@V?$positional_parameter_base@_WV?$string_output_adapter@_W@__crt_stdio_output@@@2@@__crt_stdio_output@@AAE_NXZ 1005a220 f i libucrt:output.obj
 0001:00059238       ?type_case_p@?$output_processor@_WV?$string_output_adapter@_W@__crt_stdio_output@@V?$standard_base@_WV?$string_output_adapter@_W@__crt_stdio_output@@@2@@__crt_stdio_output@@AAE_NXZ 1005a238 f i libucrt:output.obj
 0001:00059250       ?type_case_s@?$output_processor@DV?$stream_output_adapter@D@__crt_stdio_output@@V?$format_validation_base@DV?$stream_output_adapter@D@__crt_stdio_output@@@2@@__crt_stdio_output@@AAE_NXZ 1005a250 f i libucrt:output.obj
 0001:000592c1       ?type_case_s@?$output_processor@DV?$stream_output_adapter@D@__crt_stdio_output@@V?$positional_parameter_base@DV?$stream_output_adapter@D@__crt_stdio_output@@@2@@__crt_stdio_output@@AAE_NXZ 1005a2c1 f i libucrt:output.obj
 0001:0005933f       ?type_case_s@?$output_processor@DV?$stream_output_adapter@D@__crt_stdio_output@@V?$standard_base@DV?$stream_output_adapter@D@__crt_stdio_output@@@2@@__crt_stdio_output@@AAE_NXZ 1005a33f f i libucrt:output.obj
 0001:000593b0       ?type_case_s@?$output_processor@DV?$string_output_adapter@D@__crt_stdio_output@@V?$format_validation_base@DV?$string_output_adapter@D@__crt_stdio_output@@@2@@__crt_stdio_output@@AAE_NXZ 1005a3b0 f i libucrt:output.obj
 0001:00059421       ?type_case_s@?$output_processor@DV?$string_output_adapter@D@__crt_stdio_output@@V?$positional_parameter_base@DV?$string_output_adapter@D@__crt_stdio_output@@@2@@__crt_stdio_output@@AAE_NXZ 1005a421 f i libucrt:output.obj
 0001:0005949f       ?type_case_s@?$output_processor@DV?$string_output_adapter@D@__crt_stdio_output@@V?$standard_base@DV?$string_output_adapter@D@__crt_stdio_output@@@2@@__crt_stdio_output@@AAE_NXZ 1005a49f f i libucrt:output.obj
 0001:00059510       ?type_case_s@?$output_processor@_WV?$stream_output_adapter@_W@__crt_stdio_output@@V?$format_validation_base@_WV?$stream_output_adapter@_W@__crt_stdio_output@@@2@@__crt_stdio_output@@AAE_NXZ 1005a510 f i libucrt:output.obj
 0001:00059583       ?type_case_s@?$output_processor@_WV?$stream_output_adapter@_W@__crt_stdio_output@@V?$positional_parameter_base@_WV?$stream_output_adapter@_W@__crt_stdio_output@@@2@@__crt_stdio_output@@AAE_NXZ 1005a583 f i libucrt:output.obj
 0001:00059603       ?type_case_s@?$output_processor@_WV?$stream_output_adapter@_W@__crt_stdio_output@@V?$standard_base@_WV?$stream_output_adapter@_W@__crt_stdio_output@@@2@@__crt_stdio_output@@AAE_NXZ 1005a603 f i libucrt:output.obj
 0001:00059676       ?type_case_s@?$output_processor@_WV?$string_output_adapter@_W@__crt_stdio_output@@V?$format_validation_base@_WV?$string_output_adapter@_W@__crt_stdio_output@@@2@@__crt_stdio_output@@AAE_NXZ 1005a676 f i libucrt:output.obj
 0001:000596e9       ?type_case_s@?$output_processor@_WV?$string_output_adapter@_W@__crt_stdio_output@@V?$positional_parameter_base@_WV?$string_output_adapter@_W@__crt_stdio_output@@@2@@__crt_stdio_output@@AAE_NXZ 1005a6e9 f i libucrt:output.obj
 0001:00059769       ?type_case_s@?$output_processor@_WV?$string_output_adapter@_W@__crt_stdio_output@@V?$standard_base@_WV?$string_output_adapter@_W@__crt_stdio_output@@@2@@__crt_stdio_output@@AAE_NXZ 1005a769 f i libucrt:output.obj
 0001:000597dc       ?type_case_s_compute_narrow_string_length@?$output_processor@DV?$stream_output_adapter@D@__crt_stdio_output@@V?$format_validation_base@DV?$stream_output_adapter@D@__crt_stdio_output@@@2@@__crt_stdio_output@@ABEHHD@Z 1005a7dc f i libucrt:output.obj
 0001:000597f2       ?type_case_s_compute_narrow_string_length@?$output_processor@DV?$stream_output_adapter@D@__crt_stdio_output@@V?$positional_parameter_base@DV?$stream_output_adapter@D@__crt_stdio_output@@@2@@__crt_stdio_output@@ABEHHD@Z 1005a7f2 f i libucrt:output.obj
 0001:00059808       ?type_case_s_compute_narrow_string_length@?$output_processor@DV?$stream_output_adapter@D@__crt_stdio_output@@V?$standard_base@DV?$stream_output_adapter@D@__crt_stdio_output@@@2@@__crt_stdio_output@@ABEHHD@Z 1005a808 f i libucrt:output.obj
 0001:0005981e       ?type_case_s_compute_narrow_string_length@?$output_processor@DV?$string_output_adapter@D@__crt_stdio_output@@V?$format_validation_base@DV?$string_output_adapter@D@__crt_stdio_output@@@2@@__crt_stdio_output@@ABEHHD@Z 1005a81e f i libucrt:output.obj
 0001:00059834       ?type_case_s_compute_narrow_string_length@?$output_processor@DV?$string_output_adapter@D@__crt_stdio_output@@V?$positional_parameter_base@DV?$string_output_adapter@D@__crt_stdio_output@@@2@@__crt_stdio_output@@ABEHHD@Z 1005a834 f i libucrt:output.obj
 0001:0005984a       ?type_case_s_compute_narrow_string_length@?$output_processor@DV?$string_output_adapter@D@__crt_stdio_output@@V?$standard_base@DV?$string_output_adapter@D@__crt_stdio_output@@@2@@__crt_stdio_output@@ABEHHD@Z 1005a84a f i libucrt:output.obj
 0001:00059860       ?type_case_s_compute_narrow_string_length@?$output_processor@_WV?$stream_output_adapter@_W@__crt_stdio_output@@V?$format_validation_base@_WV?$stream_output_adapter@_W@__crt_stdio_output@@@2@@__crt_stdio_output@@ABEHH_W@Z 1005a860 f i libucrt:output.obj
 0001:000598a7       ?type_case_s_compute_narrow_string_length@?$output_processor@_WV?$stream_output_adapter@_W@__crt_stdio_output@@V?$positional_parameter_base@_WV?$stream_output_adapter@_W@__crt_stdio_output@@@2@@__crt_stdio_output@@ABEHH_W@Z 1005a8a7 f i libucrt:output.obj
 0001:000598ee       ?type_case_s_compute_narrow_string_length@?$output_processor@_WV?$stream_output_adapter@_W@__crt_stdio_output@@V?$standard_base@_WV?$stream_output_adapter@_W@__crt_stdio_output@@@2@@__crt_stdio_output@@ABEHH_W@Z 1005a8ee f i libucrt:output.obj
 0001:00059935       ?type_case_s_compute_narrow_string_length@?$output_processor@_WV?$string_output_adapter@_W@__crt_stdio_output@@V?$format_validation_base@_WV?$string_output_adapter@_W@__crt_stdio_output@@@2@@__crt_stdio_output@@ABEHH_W@Z 1005a935 f i libucrt:output.obj
 0001:0005997c       ?type_case_s_compute_narrow_string_length@?$output_processor@_WV?$string_output_adapter@_W@__crt_stdio_output@@V?$positional_parameter_base@_WV?$string_output_adapter@_W@__crt_stdio_output@@@2@@__crt_stdio_output@@ABEHH_W@Z 1005a97c f i libucrt:output.obj
 0001:000599c3       ?type_case_s_compute_narrow_string_length@?$output_processor@_WV?$string_output_adapter@_W@__crt_stdio_output@@V?$standard_base@_WV?$string_output_adapter@_W@__crt_stdio_output@@@2@@__crt_stdio_output@@ABEHH_W@Z 1005a9c3 f i libucrt:output.obj
 0001:00059a0a       ?type_case_u@?$output_processor@DV?$stream_output_adapter@D@__crt_stdio_output@@V?$format_validation_base@DV?$stream_output_adapter@D@__crt_stdio_output@@@2@@__crt_stdio_output@@AAE_NXZ 1005aa0a f i libucrt:output.obj
 0001:00059a14       ?type_case_u@?$output_processor@DV?$stream_output_adapter@D@__crt_stdio_output@@V?$positional_parameter_base@DV?$stream_output_adapter@D@__crt_stdio_output@@@2@@__crt_stdio_output@@AAE_NXZ 1005aa14 f i libucrt:output.obj
 0001:00059a1e       ?type_case_u@?$output_processor@DV?$stream_output_adapter@D@__crt_stdio_output@@V?$standard_base@DV?$stream_output_adapter@D@__crt_stdio_output@@@2@@__crt_stdio_output@@AAE_NXZ 1005aa1e f i libucrt:output.obj
 0001:00059a28       ?type_case_u@?$output_processor@DV?$string_output_adapter@D@__crt_stdio_output@@V?$format_validation_base@DV?$string_output_adapter@D@__crt_stdio_output@@@2@@__crt_stdio_output@@AAE_NXZ 1005aa28 f i libucrt:output.obj
 0001:00059a32       ?type_case_u@?$output_processor@DV?$string_output_adapter@D@__crt_stdio_output@@V?$positional_parameter_base@DV?$string_output_adapter@D@__crt_stdio_output@@@2@@__crt_stdio_output@@AAE_NXZ 1005aa32 f i libucrt:output.obj
 0001:00059a3c       ?type_case_u@?$output_processor@DV?$string_output_adapter@D@__crt_stdio_output@@V?$standard_base@DV?$string_output_adapter@D@__crt_stdio_output@@@2@@__crt_stdio_output@@AAE_NXZ 1005aa3c f i libucrt:output.obj
 0001:00059a46       ?type_case_u@?$output_processor@_WV?$stream_output_adapter@_W@__crt_stdio_output@@V?$format_validation_base@_WV?$stream_output_adapter@_W@__crt_stdio_output@@@2@@__crt_stdio_output@@AAE_NXZ 1005aa46 f i libucrt:output.obj
 0001:00059a50       ?type_case_u@?$output_processor@_WV?$stream_output_adapter@_W@__crt_stdio_output@@V?$positional_parameter_base@_WV?$stream_output_adapter@_W@__crt_stdio_output@@@2@@__crt_stdio_output@@AAE_NXZ 1005aa50 f i libucrt:output.obj
 0001:00059a5a       ?type_case_u@?$output_processor@_WV?$stream_output_adapter@_W@__crt_stdio_output@@V?$standard_base@_WV?$stream_output_adapter@_W@__crt_stdio_output@@@2@@__crt_stdio_output@@AAE_NXZ 1005aa5a f i libucrt:output.obj
 0001:00059a64       ?type_case_u@?$output_processor@_WV?$string_output_adapter@_W@__crt_stdio_output@@V?$format_validation_base@_WV?$string_output_adapter@_W@__crt_stdio_output@@@2@@__crt_stdio_output@@AAE_NXZ 1005aa64 f i libucrt:output.obj
 0001:00059a6e       ?type_case_u@?$output_processor@_WV?$string_output_adapter@_W@__crt_stdio_output@@V?$positional_parameter_base@_WV?$string_output_adapter@_W@__crt_stdio_output@@@2@@__crt_stdio_output@@AAE_NXZ 1005aa6e f i libucrt:output.obj
 0001:00059a78       ?type_case_u@?$output_processor@_WV?$string_output_adapter@_W@__crt_stdio_output@@V?$standard_base@_WV?$string_output_adapter@_W@__crt_stdio_output@@@2@@__crt_stdio_output@@AAE_NXZ 1005aa78 f i libucrt:output.obj
 0001:00059a82       ?type_case_x@?$output_processor@DV?$stream_output_adapter@D@__crt_stdio_output@@V?$format_validation_base@DV?$stream_output_adapter@D@__crt_stdio_output@@@2@@__crt_stdio_output@@AAE_NXZ 1005aa82 f i libucrt:output.obj
 0001:00059a8c       ?type_case_x@?$output_processor@DV?$stream_output_adapter@D@__crt_stdio_output@@V?$positional_parameter_base@DV?$stream_output_adapter@D@__crt_stdio_output@@@2@@__crt_stdio_output@@AAE_NXZ 1005aa8c f i libucrt:output.obj
 0001:00059a96       ?type_case_x@?$output_processor@DV?$stream_output_adapter@D@__crt_stdio_output@@V?$standard_base@DV?$stream_output_adapter@D@__crt_stdio_output@@@2@@__crt_stdio_output@@AAE_NXZ 1005aa96 f i libucrt:output.obj
 0001:00059aa0       ?type_case_x@?$output_processor@DV?$string_output_adapter@D@__crt_stdio_output@@V?$format_validation_base@DV?$string_output_adapter@D@__crt_stdio_output@@@2@@__crt_stdio_output@@AAE_NXZ 1005aaa0 f i libucrt:output.obj
 0001:00059aaa       ?type_case_x@?$output_processor@DV?$string_output_adapter@D@__crt_stdio_output@@V?$positional_parameter_base@DV?$string_output_adapter@D@__crt_stdio_output@@@2@@__crt_stdio_output@@AAE_NXZ 1005aaaa f i libucrt:output.obj
 0001:00059ab4       ?type_case_x@?$output_processor@DV?$string_output_adapter@D@__crt_stdio_output@@V?$standard_base@DV?$string_output_adapter@D@__crt_stdio_output@@@2@@__crt_stdio_output@@AAE_NXZ 1005aab4 f i libucrt:output.obj
 0001:00059abe       ?type_case_x@?$output_processor@_WV?$stream_output_adapter@_W@__crt_stdio_output@@V?$format_validation_base@_WV?$stream_output_adapter@_W@__crt_stdio_output@@@2@@__crt_stdio_output@@AAE_NXZ 1005aabe f i libucrt:output.obj
 0001:00059ac8       ?type_case_x@?$output_processor@_WV?$stream_output_adapter@_W@__crt_stdio_output@@V?$positional_parameter_base@_WV?$stream_output_adapter@_W@__crt_stdio_output@@@2@@__crt_stdio_output@@AAE_NXZ 1005aac8 f i libucrt:output.obj
 0001:00059ad2       ?type_case_x@?$output_processor@_WV?$stream_output_adapter@_W@__crt_stdio_output@@V?$standard_base@_WV?$stream_output_adapter@_W@__crt_stdio_output@@@2@@__crt_stdio_output@@AAE_NXZ 1005aad2 f i libucrt:output.obj
 0001:00059adc       ?type_case_x@?$output_processor@_WV?$string_output_adapter@_W@__crt_stdio_output@@V?$format_validation_base@_WV?$string_output_adapter@_W@__crt_stdio_output@@@2@@__crt_stdio_output@@AAE_NXZ 1005aadc f i libucrt:output.obj
 0001:00059ae6       ?type_case_x@?$output_processor@_WV?$string_output_adapter@_W@__crt_stdio_output@@V?$positional_parameter_base@_WV?$string_output_adapter@_W@__crt_stdio_output@@@2@@__crt_stdio_output@@AAE_NXZ 1005aae6 f i libucrt:output.obj
 0001:00059af0       ?type_case_x@?$output_processor@_WV?$string_output_adapter@_W@__crt_stdio_output@@V?$standard_base@_WV?$string_output_adapter@_W@__crt_stdio_output@@@2@@__crt_stdio_output@@AAE_NXZ 1005aaf0 f i libucrt:output.obj
 0001:00059afa       ?unset_flag@?$output_processor@DV?$stream_output_adapter@D@__crt_stdio_output@@V?$format_validation_base@DV?$stream_output_adapter@D@__crt_stdio_output@@@2@@__crt_stdio_output@@AAEXI@Z 1005aafa f i libucrt:output.obj
 0001:00059b0b       ?unset_flag@?$output_processor@DV?$stream_output_adapter@D@__crt_stdio_output@@V?$positional_parameter_base@DV?$stream_output_adapter@D@__crt_stdio_output@@@2@@__crt_stdio_output@@AAEXI@Z 1005ab0b f i libucrt:output.obj
 0001:00059b1c       ?unset_flag@?$output_processor@DV?$stream_output_adapter@D@__crt_stdio_output@@V?$standard_base@DV?$stream_output_adapter@D@__crt_stdio_output@@@2@@__crt_stdio_output@@AAEXI@Z 1005ab1c f i libucrt:output.obj
 0001:00059b2d       ?unset_flag@?$output_processor@DV?$string_output_adapter@D@__crt_stdio_output@@V?$format_validation_base@DV?$string_output_adapter@D@__crt_stdio_output@@@2@@__crt_stdio_output@@AAEXI@Z 1005ab2d f i libucrt:output.obj
 0001:00059b3e       ?unset_flag@?$output_processor@DV?$string_output_adapter@D@__crt_stdio_output@@V?$positional_parameter_base@DV?$string_output_adapter@D@__crt_stdio_output@@@2@@__crt_stdio_output@@AAEXI@Z 1005ab3e f i libucrt:output.obj
 0001:00059b4f       ?unset_flag@?$output_processor@DV?$string_output_adapter@D@__crt_stdio_output@@V?$standard_base@DV?$string_output_adapter@D@__crt_stdio_output@@@2@@__crt_stdio_output@@AAEXI@Z 1005ab4f f i libucrt:output.obj
 0001:00059b60       ?unset_flag@?$output_processor@_WV?$stream_output_adapter@_W@__crt_stdio_output@@V?$format_validation_base@_WV?$stream_output_adapter@_W@__crt_stdio_output@@@2@@__crt_stdio_output@@AAEXI@Z 1005ab60 f i libucrt:output.obj
 0001:00059b71       ?unset_flag@?$output_processor@_WV?$stream_output_adapter@_W@__crt_stdio_output@@V?$positional_parameter_base@_WV?$stream_output_adapter@_W@__crt_stdio_output@@@2@@__crt_stdio_output@@AAEXI@Z 1005ab71 f i libucrt:output.obj
 0001:00059b82       ?unset_flag@?$output_processor@_WV?$stream_output_adapter@_W@__crt_stdio_output@@V?$standard_base@_WV?$stream_output_adapter@_W@__crt_stdio_output@@@2@@__crt_stdio_output@@AAEXI@Z 1005ab82 f i libucrt:output.obj
 0001:00059b93       ?unset_flag@?$output_processor@_WV?$string_output_adapter@_W@__crt_stdio_output@@V?$format_validation_base@_WV?$string_output_adapter@_W@__crt_stdio_output@@@2@@__crt_stdio_output@@AAEXI@Z 1005ab93 f i libucrt:output.obj
 0001:00059ba4       ?unset_flag@?$output_processor@_WV?$string_output_adapter@_W@__crt_stdio_output@@V?$positional_parameter_base@_WV?$string_output_adapter@_W@__crt_stdio_output@@@2@@__crt_stdio_output@@AAEXI@Z 1005aba4 f i libucrt:output.obj
 0001:00059bb5       ?unset_flag@?$output_processor@_WV?$string_output_adapter@_W@__crt_stdio_output@@V?$standard_base@_WV?$string_output_adapter@_W@__crt_stdio_output@@@2@@__crt_stdio_output@@AAEXI@Z 1005abb5 f i libucrt:output.obj
 0001:00059bc6       ?update_field_width@?$positional_parameter_base@DV?$stream_output_adapter@D@__crt_stdio_output@@@__crt_stdio_output@@IAE_NXZ 1005abc6 f i libucrt:output.obj
 0001:00059c7a       ?update_field_width@?$positional_parameter_base@DV?$string_output_adapter@D@__crt_stdio_output@@@__crt_stdio_output@@IAE_NXZ 1005ac7a f i libucrt:output.obj
 0001:00059d2e       ?update_field_width@?$positional_parameter_base@_WV?$stream_output_adapter@_W@__crt_stdio_output@@@__crt_stdio_output@@IAE_NXZ 1005ad2e f i libucrt:output.obj
 0001:00059de3       ?update_field_width@?$positional_parameter_base@_WV?$string_output_adapter@_W@__crt_stdio_output@@@__crt_stdio_output@@IAE_NXZ 1005ade3 f i libucrt:output.obj
 0001:00059e98       ?update_field_width@?$standard_base@DV?$stream_output_adapter@D@__crt_stdio_output@@@__crt_stdio_output@@IAE_NXZ 1005ae98 f i libucrt:output.obj
 0001:00059ea8       ?update_field_width@?$standard_base@DV?$string_output_adapter@D@__crt_stdio_output@@@__crt_stdio_output@@IAE_NXZ 1005aea8 f i libucrt:output.obj
 0001:00059eb8       ?update_field_width@?$standard_base@_WV?$stream_output_adapter@_W@__crt_stdio_output@@@__crt_stdio_output@@IAE_NXZ 1005aeb8 f i libucrt:output.obj
 0001:00059ec8       ?update_field_width@?$standard_base@_WV?$string_output_adapter@_W@__crt_stdio_output@@@__crt_stdio_output@@IAE_NXZ 1005aec8 f i libucrt:output.obj
 0001:00059ed8       ?update_precision@?$positional_parameter_base@DV?$stream_output_adapter@D@__crt_stdio_output@@@__crt_stdio_output@@IAE_NXZ 1005aed8 f i libucrt:output.obj
 0001:00059f8c       ?update_precision@?$positional_parameter_base@DV?$string_output_adapter@D@__crt_stdio_output@@@__crt_stdio_output@@IAE_NXZ 1005af8c f i libucrt:output.obj
 0001:0005a040       ?update_precision@?$positional_parameter_base@_WV?$stream_output_adapter@_W@__crt_stdio_output@@@__crt_stdio_output@@IAE_NXZ 1005b040 f i libucrt:output.obj
 0001:0005a0f5       ?update_precision@?$positional_parameter_base@_WV?$string_output_adapter@_W@__crt_stdio_output@@@__crt_stdio_output@@IAE_NXZ 1005b0f5 f i libucrt:output.obj
 0001:0005a1aa       ?update_precision@?$standard_base@DV?$stream_output_adapter@D@__crt_stdio_output@@@__crt_stdio_output@@IAE_NXZ 1005b1aa f i libucrt:output.obj
 0001:0005a1ba       ?update_precision@?$standard_base@DV?$string_output_adapter@D@__crt_stdio_output@@@__crt_stdio_output@@IAE_NXZ 1005b1ba f i libucrt:output.obj
 0001:0005a1ca       ?update_precision@?$standard_base@_WV?$stream_output_adapter@_W@__crt_stdio_output@@@__crt_stdio_output@@IAE_NXZ 1005b1ca f i libucrt:output.obj
 0001:0005a1da       ?update_precision@?$standard_base@_WV?$string_output_adapter@_W@__crt_stdio_output@@@__crt_stdio_output@@IAE_NXZ 1005b1da f i libucrt:output.obj
 0001:0005a1ea       ?valid@__crt_stdio_stream@@QBE_NXZ 1005b1ea f i libucrt:output.obj
 0001:0005a1f1       ?validate@?$stream_output_adapter@D@__crt_stdio_output@@QBE_NXZ 1005b1f1 f i libucrt:output.obj
 0001:0005a212       ?validate@?$stream_output_adapter@_W@__crt_stdio_output@@QBE_NXZ 1005b212 f i libucrt:output.obj
 0001:0005a22d       ?validate@?$string_output_adapter@D@__crt_stdio_output@@QBE_NXZ 1005b22d f i libucrt:output.obj
 0001:0005a248       ?validate@?$string_output_adapter@_W@__crt_stdio_output@@QBE_NXZ 1005b248 f i libucrt:output.obj
 0001:0005a263       ?validate_and_store_parameter_data@?$positional_parameter_base@DV?$stream_output_adapter@D@__crt_stdio_output@@@__crt_stdio_output@@AAE_NAAUparameter_data@12@W4parameter_type@12@DW4length_modifier@2@@Z 1005b263 f i libucrt:output.obj
 0001:0005a2ae       ?validate_and_store_parameter_data@?$positional_parameter_base@DV?$string_output_adapter@D@__crt_stdio_output@@@__crt_stdio_output@@AAE_NAAUparameter_data@12@W4parameter_type@12@DW4length_modifier@2@@Z 1005b2ae f i libucrt:output.obj
 0001:0005a2f9       ?validate_and_store_parameter_data@?$positional_parameter_base@_WV?$stream_output_adapter@_W@__crt_stdio_output@@@__crt_stdio_output@@AAE_NAAUparameter_data@12@W4parameter_type@12@_WW4length_modifier@2@@Z 1005b2f9 f i libucrt:output.obj
 0001:0005a346       ?validate_and_store_parameter_data@?$positional_parameter_base@_WV?$string_output_adapter@_W@__crt_stdio_output@@@__crt_stdio_output@@AAE_NAAUparameter_data@12@W4parameter_type@12@_WW4length_modifier@2@@Z 1005b346 f i libucrt:output.obj
 0001:0005a393       ?validate_and_update_state_at_beginning_of_format_character@?$positional_parameter_base@DV?$stream_output_adapter@D@__crt_stdio_output@@@__crt_stdio_output@@IAE_NXZ 1005b393 f i libucrt:output.obj
 0001:0005a48b       ?validate_and_update_state_at_beginning_of_format_character@?$positional_parameter_base@DV?$string_output_adapter@D@__crt_stdio_output@@@__crt_stdio_output@@IAE_NXZ 1005b48b f i libucrt:output.obj
 0001:0005a583       ?validate_and_update_state_at_beginning_of_format_character@?$positional_parameter_base@_WV?$stream_output_adapter@_W@__crt_stdio_output@@@__crt_stdio_output@@IAE_NXZ 1005b583 f i libucrt:output.obj
 0001:0005a684       ?validate_and_update_state_at_beginning_of_format_character@?$positional_parameter_base@_WV?$string_output_adapter@_W@__crt_stdio_output@@@__crt_stdio_output@@IAE_NXZ 1005b684 f i libucrt:output.obj
 0001:0005a785       ?validate_and_update_state_at_beginning_of_format_character@?$standard_base@DV?$stream_output_adapter@D@__crt_stdio_output@@@__crt_stdio_output@@IAE_NXZ 1005b785 f i libucrt:output.obj
 0001:0005a788       ?validate_and_update_state_at_beginning_of_format_character@?$standard_base@DV?$string_output_adapter@D@__crt_stdio_output@@@__crt_stdio_output@@IAE_NXZ 1005b788 f i libucrt:output.obj
 0001:0005a78b       ?validate_and_update_state_at_beginning_of_format_character@?$standard_base@_WV?$stream_output_adapter@_W@__crt_stdio_output@@@__crt_stdio_output@@IAE_NXZ 1005b78b f i libucrt:output.obj
 0001:0005a78e       ?validate_and_update_state_at_beginning_of_format_character@?$standard_base@_WV?$string_output_adapter@_W@__crt_stdio_output@@@__crt_stdio_output@@IAE_NXZ 1005b78e f i libucrt:output.obj
 0001:0005a791       ?validate_and_update_state_at_end_of_format_string@?$format_validation_base@DV?$stream_output_adapter@D@__crt_stdio_output@@@__crt_stdio_output@@IBE_NXZ 1005b791 f i libucrt:output.obj
 0001:0005a7b3       ?validate_and_update_state_at_end_of_format_string@?$format_validation_base@DV?$string_output_adapter@D@__crt_stdio_output@@@__crt_stdio_output@@IBE_NXZ 1005b7b3 f i libucrt:output.obj
 0001:0005a7d5       ?validate_and_update_state_at_end_of_format_string@?$format_validation_base@_WV?$stream_output_adapter@_W@__crt_stdio_output@@@__crt_stdio_output@@IBE_NXZ 1005b7d5 f i libucrt:output.obj
 0001:0005a7f7       ?validate_and_update_state_at_end_of_format_string@?$format_validation_base@_WV?$string_output_adapter@_W@__crt_stdio_output@@@__crt_stdio_output@@IBE_NXZ 1005b7f7 f i libucrt:output.obj
 0001:0005a819       ?validate_and_update_state_at_end_of_format_string@?$positional_parameter_base@DV?$stream_output_adapter@D@__crt_stdio_output@@@__crt_stdio_output@@IAE_NXZ 1005b819 f i libucrt:output.obj
 0001:0005a8a9       ?validate_and_update_state_at_end_of_format_string@?$positional_parameter_base@DV?$string_output_adapter@D@__crt_stdio_output@@@__crt_stdio_output@@IAE_NXZ 1005b8a9 f i libucrt:output.obj
 0001:0005a939       ?validate_and_update_state_at_end_of_format_string@?$positional_parameter_base@_WV?$stream_output_adapter@_W@__crt_stdio_output@@@__crt_stdio_output@@IAE_NXZ 1005b939 f i libucrt:output.obj
 0001:0005a9c9       ?validate_and_update_state_at_end_of_format_string@?$positional_parameter_base@_WV?$string_output_adapter@_W@__crt_stdio_output@@@__crt_stdio_output@@IAE_NXZ 1005b9c9 f i libucrt:output.obj
 0001:0005aa59       ?validate_and_update_state_at_end_of_format_string@?$standard_base@DV?$stream_output_adapter@D@__crt_stdio_output@@@__crt_stdio_output@@IBE_NXZ 1005ba59 f i libucrt:output.obj
 0001:0005aa5c       ?validate_and_update_state_at_end_of_format_string@?$standard_base@DV?$string_output_adapter@D@__crt_stdio_output@@@__crt_stdio_output@@IBE_NXZ 1005ba5c f i libucrt:output.obj
 0001:0005aa5f       ?validate_and_update_state_at_end_of_format_string@?$standard_base@_WV?$stream_output_adapter@_W@__crt_stdio_output@@@__crt_stdio_output@@IBE_NXZ 1005ba5f f i libucrt:output.obj
 0001:0005aa62       ?validate_and_update_state_at_end_of_format_string@?$standard_base@_WV?$string_output_adapter@_W@__crt_stdio_output@@@__crt_stdio_output@@IBE_NXZ 1005ba62 f i libucrt:output.obj
 0001:0005aa65       ?validate_state_for_type_case_a@?$positional_parameter_base@DV?$stream_output_adapter@D@__crt_stdio_output@@@__crt_stdio_output@@IAE_NXZ 1005ba65 f i libucrt:output.obj
 0001:0005aab4       ?validate_state_for_type_case_a@?$positional_parameter_base@DV?$string_output_adapter@D@__crt_stdio_output@@@__crt_stdio_output@@IAE_NXZ 1005bab4 f i libucrt:output.obj
 0001:0005ab03       ?validate_state_for_type_case_a@?$positional_parameter_base@_WV?$stream_output_adapter@_W@__crt_stdio_output@@@__crt_stdio_output@@IAE_NXZ 1005bb03 f i libucrt:output.obj
 0001:0005ab52       ?validate_state_for_type_case_a@?$positional_parameter_base@_WV?$string_output_adapter@_W@__crt_stdio_output@@@__crt_stdio_output@@IAE_NXZ 1005bb52 f i libucrt:output.obj
 0001:0005aba1       ?validate_state_for_type_case_a@?$standard_base@DV?$stream_output_adapter@D@__crt_stdio_output@@@__crt_stdio_output@@IBE_NXZ 1005bba1 f i libucrt:output.obj
 0001:0005aba4       ?validate_state_for_type_case_a@?$standard_base@DV?$string_output_adapter@D@__crt_stdio_output@@@__crt_stdio_output@@IBE_NXZ 1005bba4 f i libucrt:output.obj
 0001:0005aba7       ?validate_state_for_type_case_a@?$standard_base@_WV?$stream_output_adapter@_W@__crt_stdio_output@@@__crt_stdio_output@@IBE_NXZ 1005bba7 f i libucrt:output.obj
 0001:0005abaa       ?validate_state_for_type_case_a@?$standard_base@_WV?$string_output_adapter@_W@__crt_stdio_output@@@__crt_stdio_output@@IBE_NXZ 1005bbaa f i libucrt:output.obj
 0001:0005abad       ?validate_stream_is_ansi_if_required@?$__acrt_stdio_char_traits@D@@SA_NQAU_iobuf@@@Z 1005bbad f i libucrt:output.obj
 0001:0005ac34       ?validate_stream_is_ansi_if_required@?$__acrt_stdio_char_traits@_W@@SA_NQAU_iobuf@@@Z 1005bc34 f i libucrt:output.obj
 0001:0005ac37       ?wide_null_string@?$output_processor@DV?$stream_output_adapter@D@__crt_stdio_output@@V?$format_validation_base@DV?$stream_output_adapter@D@__crt_stdio_output@@@2@@__crt_stdio_output@@CAPA_WXZ 1005bc37 f i libucrt:output.obj
 0001:0005ac3d       ?wide_null_string@?$output_processor@DV?$stream_output_adapter@D@__crt_stdio_output@@V?$positional_parameter_base@DV?$stream_output_adapter@D@__crt_stdio_output@@@2@@__crt_stdio_output@@CAPA_WXZ 1005bc3d f i libucrt:output.obj
 0001:0005ac43       ?wide_null_string@?$output_processor@DV?$stream_output_adapter@D@__crt_stdio_output@@V?$standard_base@DV?$stream_output_adapter@D@__crt_stdio_output@@@2@@__crt_stdio_output@@CAPA_WXZ 1005bc43 f i libucrt:output.obj
 0001:0005ac49       ?wide_null_string@?$output_processor@DV?$string_output_adapter@D@__crt_stdio_output@@V?$format_validation_base@DV?$string_output_adapter@D@__crt_stdio_output@@@2@@__crt_stdio_output@@CAPA_WXZ 1005bc49 f i libucrt:output.obj
 0001:0005ac4f       ?wide_null_string@?$output_processor@DV?$string_output_adapter@D@__crt_stdio_output@@V?$positional_parameter_base@DV?$string_output_adapter@D@__crt_stdio_output@@@2@@__crt_stdio_output@@CAPA_WXZ 1005bc4f f i libucrt:output.obj
 0001:0005ac55       ?wide_null_string@?$output_processor@DV?$string_output_adapter@D@__crt_stdio_output@@V?$standard_base@DV?$string_output_adapter@D@__crt_stdio_output@@@2@@__crt_stdio_output@@CAPA_WXZ 1005bc55 f i libucrt:output.obj
 0001:0005ac5b       ?wide_null_string@?$output_processor@_WV?$stream_output_adapter@_W@__crt_stdio_output@@V?$format_validation_base@_WV?$stream_output_adapter@_W@__crt_stdio_output@@@2@@__crt_stdio_output@@CAPA_WXZ 1005bc5b f i libucrt:output.obj
 0001:0005ac61       ?wide_null_string@?$output_processor@_WV?$stream_output_adapter@_W@__crt_stdio_output@@V?$positional_parameter_base@_WV?$stream_output_adapter@_W@__crt_stdio_output@@@2@@__crt_stdio_output@@CAPA_WXZ 1005bc61 f i libucrt:output.obj
 0001:0005ac67       ?wide_null_string@?$output_processor@_WV?$stream_output_adapter@_W@__crt_stdio_output@@V?$standard_base@_WV?$stream_output_adapter@_W@__crt_stdio_output@@@2@@__crt_stdio_output@@CAPA_WXZ 1005bc67 f i libucrt:output.obj
 0001:0005ac6d       ?wide_null_string@?$output_processor@_WV?$string_output_adapter@_W@__crt_stdio_output@@V?$format_validation_base@_WV?$string_output_adapter@_W@__crt_stdio_output@@@2@@__crt_stdio_output@@CAPA_WXZ 1005bc6d f i libucrt:output.obj
 0001:0005ac73       ?wide_null_string@?$output_processor@_WV?$string_output_adapter@_W@__crt_stdio_output@@V?$positional_parameter_base@_WV?$string_output_adapter@_W@__crt_stdio_output@@@2@@__crt_stdio_output@@CAPA_WXZ 1005bc73 f i libucrt:output.obj
 0001:0005ac79       ?wide_null_string@?$output_processor@_WV?$string_output_adapter@_W@__crt_stdio_output@@V?$standard_base@_WV?$string_output_adapter@_W@__crt_stdio_output@@@2@@__crt_stdio_output@@CAPA_WXZ 1005bc79 f i libucrt:output.obj
 0001:0005ac7f       ?write_character@?$output_adapter_common@DV?$stream_output_adapter@D@__crt_stdio_output@@@__crt_stdio_output@@QBEXDQAH@Z 1005bc7f f i libucrt:output.obj
 0001:0005ac9e       ?write_character@?$output_adapter_common@_WV?$stream_output_adapter@_W@__crt_stdio_output@@@__crt_stdio_output@@QBEX_WQAH@Z 1005bc9e f i libucrt:output.obj
 0001:0005acbd       ?write_character@?$string_output_adapter@D@__crt_stdio_output@@QBE_NDQAH@Z 1005bcbd f i libucrt:output.obj
 0001:0005acff       ?write_character@?$string_output_adapter@_W@__crt_stdio_output@@QBE_N_WQAH@Z 1005bcff f i libucrt:output.obj
 0001:0005ad44       ?write_character_without_count_update@?$stream_output_adapter@D@__crt_stdio_output@@QBE_ND@Z 1005bd44 f i libucrt:output.obj
 0001:0005ad7a       ?write_character_without_count_update@?$stream_output_adapter@_W@__crt_stdio_output@@QBE_N_W@Z 1005bd7a f i libucrt:output.obj
 0001:0005adb3       ?write_stored_string_tchar@?$output_processor@DV?$stream_output_adapter@D@__crt_stdio_output@@V?$format_validation_base@DV?$stream_output_adapter@D@__crt_stdio_output@@@2@@__crt_stdio_output@@AAE_ND@Z 1005bdb3 f i libucrt:output.obj
 0001:0005ae58       ?write_stored_string_tchar@?$output_processor@DV?$stream_output_adapter@D@__crt_stdio_output@@V?$positional_parameter_base@DV?$stream_output_adapter@D@__crt_stdio_output@@@2@@__crt_stdio_output@@AAE_ND@Z 1005be58 f i libucrt:output.obj
 0001:0005aefd       ?write_stored_string_tchar@?$output_processor@DV?$stream_output_adapter@D@__crt_stdio_output@@V?$standard_base@DV?$stream_output_adapter@D@__crt_stdio_output@@@2@@__crt_stdio_output@@AAE_ND@Z 1005befd f i libucrt:output.obj
 0001:0005afa2       ?write_stored_string_tchar@?$output_processor@DV?$string_output_adapter@D@__crt_stdio_output@@V?$format_validation_base@DV?$string_output_adapter@D@__crt_stdio_output@@@2@@__crt_stdio_output@@AAE_ND@Z 1005bfa2 f i libucrt:output.obj
 0001:0005b047       ?write_stored_string_tchar@?$output_processor@DV?$string_output_adapter@D@__crt_stdio_output@@V?$positional_parameter_base@DV?$string_output_adapter@D@__crt_stdio_output@@@2@@__crt_stdio_output@@AAE_ND@Z 1005c047 f i libucrt:output.obj
 0001:0005b0ec       ?write_stored_string_tchar@?$output_processor@DV?$string_output_adapter@D@__crt_stdio_output@@V?$standard_base@DV?$string_output_adapter@D@__crt_stdio_output@@@2@@__crt_stdio_output@@AAE_ND@Z 1005c0ec f i libucrt:output.obj
 0001:0005b191       ?write_stored_string_tchar@?$output_processor@_WV?$stream_output_adapter@_W@__crt_stdio_output@@V?$format_validation_base@_WV?$stream_output_adapter@_W@__crt_stdio_output@@@2@@__crt_stdio_output@@AAE_N_W@Z 1005c191 f i libucrt:output.obj
 0001:0005b21e       ?write_stored_string_tchar@?$output_processor@_WV?$stream_output_adapter@_W@__crt_stdio_output@@V?$positional_parameter_base@_WV?$stream_output_adapter@_W@__crt_stdio_output@@@2@@__crt_stdio_output@@AAE_N_W@Z 1005c21e f i libucrt:output.obj
 0001:0005b2ab       ?write_stored_string_tchar@?$output_processor@_WV?$stream_output_adapter@_W@__crt_stdio_output@@V?$standard_base@_WV?$stream_output_adapter@_W@__crt_stdio_output@@@2@@__crt_stdio_output@@AAE_N_W@Z 1005c2ab f i libucrt:output.obj
 0001:0005b338       ?write_stored_string_tchar@?$output_processor@_WV?$string_output_adapter@_W@__crt_stdio_output@@V?$format_validation_base@_WV?$string_output_adapter@_W@__crt_stdio_output@@@2@@__crt_stdio_output@@AAE_N_W@Z 1005c338 f i libucrt:output.obj
 0001:0005b3c5       ?write_stored_string_tchar@?$output_processor@_WV?$string_output_adapter@_W@__crt_stdio_output@@V?$positional_parameter_base@_WV?$string_output_adapter@_W@__crt_stdio_output@@@2@@__crt_stdio_output@@AAE_N_W@Z 1005c3c5 f i libucrt:output.obj
 0001:0005b452       ?write_stored_string_tchar@?$output_processor@_WV?$string_output_adapter@_W@__crt_stdio_output@@V?$standard_base@_WV?$string_output_adapter@_W@__crt_stdio_output@@@2@@__crt_stdio_output@@AAE_N_W@Z 1005c452 f i libucrt:output.obj
 0001:0005b4df       ?write_string@?$stream_output_adapter@D@__crt_stdio_output@@QBEXQBDHQAHAAV__crt_deferred_errno_cache@@@Z 1005c4df f i libucrt:output.obj
 0001:0005b50b       ?write_string@?$stream_output_adapter@_W@__crt_stdio_output@@QBEXQB_WHQAHAAV__crt_deferred_errno_cache@@@Z 1005c50b f i libucrt:output.obj
 0001:0005b537       ?write_string@?$string_output_adapter@D@__crt_stdio_output@@QBEXQBDHQAHAAV__crt_deferred_errno_cache@@@Z 1005c537 f i libucrt:output.obj
 0001:0005b59e       ?write_string@?$string_output_adapter@_W@__crt_stdio_output@@QBEXQB_WHQAHAAV__crt_deferred_errno_cache@@@Z 1005c59e f i libucrt:output.obj
 0001:0005b60f       ?write_string_impl@?$output_adapter_common@DV?$stream_output_adapter@D@__crt_stdio_output@@@__crt_stdio_output@@IBEXQBDHQAHAAV__crt_deferred_errno_cache@@@Z 1005c60f f i libucrt:output.obj
 0001:0005b6ad       ?write_string_impl@?$output_adapter_common@_WV?$stream_output_adapter@_W@__crt_stdio_output@@@__crt_stdio_output@@IBEXQB_WHQAHAAV__crt_deferred_errno_cache@@@Z 1005c6ad f i libucrt:output.obj
 0001:0005b74e       ___acrt_disable_global_locale_sync 1005c74e f i libucrt:output.obj
 0001:0005b761       ___acrt_enable_global_locale_sync 1005c761 f i libucrt:output.obj
 0001:0005b776       ___acrt_isleadbyte_l_noupdate 1005c776 f i libucrt:output.obj
 0001:0005b794       ___acrt_locale_changed     1005c794 f i libucrt:output.obj
 0001:0005b79f       ___acrt_locale_get_ctype_array_value 1005c79f f i libucrt:output.obj
 0001:0005b7c1       ___stdio_common_vfprintf   1005c7c1 f   libucrt:output.obj
 0001:0005b844       ___stdio_common_vfprintf_p 1005c844 f   libucrt:output.obj
 0001:0005b8c7       ___stdio_common_vfprintf_s 1005c8c7 f   libucrt:output.obj
 0001:0005b94a       ___stdio_common_vfwprintf  1005c94a f   libucrt:output.obj
 0001:0005b9cd       ___stdio_common_vfwprintf_p 1005c9cd f   libucrt:output.obj
 0001:0005ba50       ___stdio_common_vfwprintf_s 1005ca50 f   libucrt:output.obj
 0001:0005bad3       ___stdio_common_vsnprintf_s 1005cad3 f   libucrt:output.obj
 0001:0005bafa       ___stdio_common_vsnwprintf_s 1005cafa f   libucrt:output.obj
 0001:0005bb21       ___stdio_common_vsprintf   1005cb21 f   libucrt:output.obj
 0001:0005bb45       ___stdio_common_vsprintf_p 1005cb45 f   libucrt:output.obj
 0001:0005bb69       ___stdio_common_vsprintf_s 1005cb69 f   libucrt:output.obj
 0001:0005bb8d       ___stdio_common_vswprintf  1005cb8d f   libucrt:output.obj
 0001:0005bbb1       ___stdio_common_vswprintf_p 1005cbb1 f   libucrt:output.obj
 0001:0005bbd5       ___stdio_common_vswprintf_s 1005cbd5 f   libucrt:output.obj
 0001:0005bbf9       __ctype_fast_check_internal 1005cbf9 f i libucrt:output.obj
 0001:0005bc13       __isdigit_fast_internal    1005cc13 f i libucrt:output.obj
 0001:0005bc2d       __tolower_fast_internal    1005cc2d f i libucrt:output.obj
 0001:0005bca0       _strcpy_s                  1005cca0 f   libucrt:strcpy_s.obj
 0001:0005bd00       _strcmp                    1005cd00 f   libucrt:strcmp.obj
 0001:0005bd90       _strlen                    1005cd90 f   libucrt:strlen.obj
 0001:0005be1b       ??0?$__crt_scoped_stack_ptr@D@@QAE@U?$__crt_scoped_stack_ptr_tag@D@@@Z 1005ce1b f i libucrt:strlwr.obj
 0001:0005be2b       ??0?$__crt_scoped_stack_ptr_tag@D@@QAE@QAD@Z 1005ce2b f i libucrt:strlwr.obj
 0001:0005be3b       ??1?$__crt_scoped_stack_ptr@D@@QAE@XZ 1005ce3b f i libucrt:strlwr.obj
 0001:0005be44       ??B?$__crt_scoped_stack_ptr@D@@QBE_NXZ 1005ce44 f i libucrt:strlwr.obj
 0001:0005bfb7       ?get@?$__crt_scoped_stack_ptr@D@@QBEPADXZ 1005cfb7 f i libucrt:strlwr.obj
 0001:0005bfba       __MallocaComputeSize       1005cfba f i libucrt:strlwr.obj
 0001:0005bfcd       __MarkAllocaS              1005cfcd f i libucrt:strlwr.obj
 0001:0005bfe3       __freea_crt                1005cfe3 f i libucrt:strlwr.obj
 0001:0005c003       __strlwr                   1005d003 f   libucrt:strlwr.obj
 0001:0005c05f       __strlwr_l                 1005d05f f   libucrt:strlwr.obj
 0001:0005c079       __strlwr_s                 1005d079 f   libucrt:strlwr.obj
 0001:0005c090       __strlwr_s_l               1005d090 f   libucrt:strlwr.obj
 0001:0005c5bb       ??$gmtime_s@ABQAUtm@@ABQBJ@?$__crt_integer_traits@J@@SAHABQAUtm@@ABQBJ@Z 1005d5bb f i libucrt:localtime.obj
 0001:0005c5d3       ??$gmtime_s@ABQAUtm@@ABQB_J@?$__crt_integer_traits@_J@@SAHABQAUtm@@ABQB_J@Z 1005d5d3 f i libucrt:localtime.obj
 0001:0005c5eb       ??$gmtime_s@ABQAUtm@@PAJ@?$__crt_integer_traits@J@@SAHABQAUtm@@$$QAPAJ@Z 1005d5eb f i libucrt:localtime.obj
 0001:0005c603       ??$gmtime_s@ABQAUtm@@PA_J@?$__crt_integer_traits@_J@@SAHABQAUtm@@$$QAPA_J@Z 1005d603 f i libucrt:localtime.obj
 0001:0005c61b       ??$localtime_s@ABQAUtm@@ABQBJ@?$__crt_integer_traits@J@@SAHABQAUtm@@ABQBJ@Z 1005d61b f i libucrt:localtime.obj
 0001:0005c634       ??$localtime_s@ABQAUtm@@ABQB_J@?$__crt_integer_traits@_J@@SAHABQAUtm@@ABQB_J@Z 1005d634 f i libucrt:localtime.obj
 0001:0005c64d       __invoke_watson_if_error   1005d64d f i libucrt:localtime.obj
 0001:0005c66f       __localtime32              1005d66f f   libucrt:localtime.obj
 0001:0005c696       __localtime32_s            1005d696 f   libucrt:localtime.obj
 0001:0005c6a1       __localtime64              1005d6a1 f   libucrt:localtime.obj
 0001:0005c6c8       __localtime64_s            1005d6c8 f   libucrt:localtime.obj
 0001:0005c6d3       ??$?R_W@__crt_internal_free_policy@@QBEXQB_W@Z 1005d6d3 f i libucrt:strftime.obj
 0001:0005c85e       ??$__acrt_mbs_to_wcs_cp@U__crt_win32_buffer_internal_dynamic_resizing@@@@YAHQBDAAV?$__crt_win32_buffer@_WU__crt_win32_buffer_internal_dynamic_resizing@@@@I@Z 1005d85e f i libucrt:strftime.obj
 0001:0005c87b       ??$__acrt_wcs_to_mbs_cp@U__crt_win32_buffer_no_resizing@@@@YAHQB_WAAV?$__crt_win32_buffer@DU__crt_win32_buffer_no_resizing@@@@I@Z 1005d87b f i libucrt:strftime.obj
 0001:0005c898       ??0?$__crt_unique_heap_ptr@_WU__crt_internal_free_policy@@@@QAE@QA_W@Z 1005d898 f i libucrt:strftime.obj
 0001:0005c8a8       ??0?$__crt_win32_buffer@DU__crt_win32_buffer_no_resizing@@@@QAE@QADI@Z 1005d8a8 f i libucrt:strftime.obj
 0001:0005c8cc       ??0?$__crt_win32_buffer@_WU__crt_win32_buffer_internal_dynamic_resizing@@@@QAE@XZ 1005d8cc f i libucrt:strftime.obj
 0001:0005c8e2       ??1?$__crt_unique_heap_ptr@_WU__crt_internal_free_policy@@@@QAE@XZ 1005d8e2 f i libucrt:strftime.obj
 0001:0005c8f4       ??1?$__crt_win32_buffer@DU__crt_win32_buffer_no_resizing@@@@QAE@XZ 1005d8f4 f i libucrt:strftime.obj
 0001:0005c8ff       ??1?$__crt_win32_buffer@_WU__crt_win32_buffer_internal_dynamic_resizing@@@@QAE@XZ 1005d8ff f i libucrt:strftime.obj
 0001:0005c949       ?_deallocate@?$__crt_win32_buffer@DU__crt_win32_buffer_no_resizing@@@@AAEXXZ 1005d949 f i libucrt:strftime.obj
 0001:0005c954       ?_deallocate@?$__crt_win32_buffer@_WU__crt_win32_buffer_internal_dynamic_resizing@@@@AAEXXZ 1005d954 f i libucrt:strftime.obj
 0001:0005c96e       ?allocate@?$__crt_win32_buffer@DU__crt_win32_buffer_no_resizing@@@@QAEHI@Z 1005d96e f i libucrt:strftime.obj
 0001:0005c995       ?allocate@?$__crt_win32_buffer@_WU__crt_win32_buffer_internal_dynamic_resizing@@@@QAEHI@Z 1005d995 f i libucrt:strftime.obj
 0001:0005c9d4       ?allocate@__crt_win32_buffer_internal_dynamic_resizing@@SAHQAPAXIABV__crt_win32_buffer_empty_debug_info@@@Z 1005d9d4 f i libucrt:strftime.obj
 0001:0005c9f3       ?allocate@__crt_win32_buffer_no_resizing@@SAHQAPAXIABV__crt_win32_buffer_empty_debug_info@@@Z 1005d9f3 f i libucrt:strftime.obj
 0001:0005ca00       ?capacity@?$__crt_win32_buffer@DU__crt_win32_buffer_no_resizing@@@@QBEIXZ 1005da00 f i libucrt:strftime.obj
 0001:0005ca04       ?capacity@?$__crt_win32_buffer@_WU__crt_win32_buffer_internal_dynamic_resizing@@@@QBEIXZ 1005da04 f i libucrt:strftime.obj
 0001:0005ca08       ?data@?$__crt_win32_buffer@DU__crt_win32_buffer_no_resizing@@@@QAEPADXZ 1005da08 f i libucrt:strftime.obj
 0001:0005ca0c       ?data@?$__crt_win32_buffer@_WU__crt_win32_buffer_internal_dynamic_resizing@@@@QAEPA_WXZ 1005da0c f i libucrt:strftime.obj
 0001:0005ca10       ?deallocate@__crt_win32_buffer_internal_dynamic_resizing@@SAXQAXABV__crt_win32_buffer_empty_debug_info@@@Z 1005da10 f i libucrt:strftime.obj
 0001:0005ca20       ?deallocate@__crt_win32_buffer_no_resizing@@SAXQAXABV__crt_win32_buffer_empty_debug_info@@@Z 1005da20 f i libucrt:strftime.obj
 0001:0005ca23       ?debug_info@?$__crt_win32_buffer@DU__crt_win32_buffer_no_resizing@@@@QBEABV__crt_win32_buffer_empty_debug_info@@XZ 1005da23 f i libucrt:strftime.obj
 0001:0005ca26       ?debug_info@?$__crt_win32_buffer@_WU__crt_win32_buffer_internal_dynamic_resizing@@@@QBEABV__crt_win32_buffer_empty_debug_info@@XZ 1005da26 f i libucrt:strftime.obj
 0001:0005ca29       ?detach@?$__crt_unique_heap_ptr@DU__crt_internal_free_policy@@@@QAEPADXZ 1005da29 f i libucrt:strftime.obj
 0001:0005ca2f       ?get@?$__crt_unique_heap_ptr@_WU__crt_internal_free_policy@@@@QBEPA_WXZ 1005da2f f i libucrt:strftime.obj
 0001:0005ca32       ?release@?$__crt_unique_heap_ptr@_WU__crt_internal_free_policy@@@@QAEXXZ 1005da32 f i libucrt:strftime.obj
 0001:0005ca44       ?set_to_nullptr@?$__crt_win32_buffer@DU__crt_win32_buffer_no_resizing@@@@QAEXXZ 1005da44 f i libucrt:strftime.obj
 0001:0005ca58       ?set_to_nullptr@?$__crt_win32_buffer@_WU__crt_win32_buffer_internal_dynamic_resizing@@@@QAEXXZ 1005da58 f i libucrt:strftime.obj
 0001:0005ca6f       ?size@?$__crt_win32_buffer@DU__crt_win32_buffer_no_resizing@@@@QAEXI@Z 1005da6f f i libucrt:strftime.obj
 0001:0005ca7e       ?size@?$__crt_win32_buffer@DU__crt_win32_buffer_no_resizing@@@@QBEIXZ 1005da7e f i libucrt:strftime.obj
 0001:0005ca82       ?size@?$__crt_win32_buffer@_WU__crt_win32_buffer_internal_dynamic_resizing@@@@QAEXI@Z 1005da82 f i libucrt:strftime.obj
 0001:0005ca91       __Getdays                  1005da91 f   libucrt:strftime.obj
 0001:0005ca9a       __Getdays_l                1005da9a f   libucrt:strftime.obj
 0001:0005cba0       __Getmonths                1005dba0 f   libucrt:strftime.obj
 0001:0005cba9       __Getmonths_l              1005dba9 f   libucrt:strftime.obj
 0001:0005ccbd       __Gettnames                1005dcbd f   libucrt:strftime.obj
 0001:0005ccc2       __Strftime                 1005dcc2 f   libucrt:strftime.obj
 0001:0005cce2       __Strftime_l               1005dce2 f   libucrt:strftime.obj
 0001:0005cddf       __strftime_l               1005dddf f   libucrt:strftime.obj
 0001:0005cdff       _strftime                  1005ddff f   libucrt:strftime.obj
 0001:0005d10d       __time32                   1005e10d f   libucrt:time.obj
 0001:0005d166       __time64                   1005e166 f   libucrt:time.obj
 0001:0005d1c4       __timespec32_get           1005e1c4 f   libucrt:time.obj
 0001:0005d1cf       __timespec64_get           1005e1cf f   libucrt:time.obj
 0001:0005d1da       ___acrt_errno_from_os_error 1005e1da f   libucrt:errno.obj
 0001:0005d21d       ___acrt_errno_map_os_error 1005e21d f   libucrt:errno.obj
 0001:0005d240       ___doserrno                1005e240 f   libucrt:errno.obj
 0001:0005d253       __errno                    1005e253 f   libucrt:errno.obj
 0001:0005d266       __get_doserrno             1005e266 f   libucrt:errno.obj
 0001:0005d28b       __get_errno                1005e28b f   libucrt:errno.obj
 0001:0005d2b0       __set_doserrno             1005e2b0 f   libucrt:errno.obj
 0001:0005d2d1       __set_errno                1005e2d1 f   libucrt:errno.obj
 0001:0005d2f2       ??$is_overflow_condition@K@__crt_strtox@@YA_NIK@Z 1005e2f2 f i libucrt:atox.obj
 0001:0005d323       ??$is_overflow_condition@_K@__crt_strtox@@YA_NI_K@Z 1005e323 f i libucrt:atox.obj
 0001:0005d364       ??$make_c_string_character_source@D$$T@__crt_strtox@@YA?AV?$c_string_character_source@D@0@QBD$$T@Z 1005e364 f i libucrt:atox.obj
 0001:0005d37f       ??$make_c_string_character_source@_W$$T@__crt_strtox@@YA?AV?$c_string_character_source@_W@0@QB_W$$T@Z 1005e37f f i libucrt:atox.obj
 0001:0005d39a       ??$parse_integer@KV?$c_string_character_source@D@__crt_strtox@@@__crt_strtox@@YAKQAU__crt_locale_pointers@@V?$c_string_character_source@D@0@H_N@Z 1005e39a f i libucrt:atox.obj
 0001:0005d5bd       ??$parse_integer@KV?$c_string_character_source@_W@__crt_strtox@@@__crt_strtox@@YAKQAU__crt_locale_pointers@@V?$c_string_character_source@_W@0@H_N@Z 1005e5bd f i libucrt:atox.obj
 0001:0005dbc5       ??$parse_integer@_KV?$c_string_character_source@D@__crt_strtox@@@__crt_strtox@@YA_KQAU__crt_locale_pointers@@V?$c_string_character_source@D@0@H_N@Z 1005ebc5 f i libucrt:atox.obj
 0001:0005de6b       ??$parse_integer@_KV?$c_string_character_source@_W@__crt_strtox@@@__crt_strtox@@YA_KQAU__crt_locale_pointers@@V?$c_string_character_source@_W@0@H_N@Z 1005ee6b f i libucrt:atox.obj
 0001:0005e53c       ??$parse_integer_from_string@JD$$T@__crt_strtox@@YAJQBD$$THQAU__crt_locale_pointers@@@Z 1005f53c f i libucrt:atox.obj
 0001:0005e567       ??$parse_integer_from_string@J_W$$T@__crt_strtox@@YAJQB_W$$THQAU__crt_locale_pointers@@@Z 1005f567 f i libucrt:atox.obj
 0001:0005e592       ??$parse_integer_from_string@_JD$$T@__crt_strtox@@YA_JQBD$$THQAU__crt_locale_pointers@@@Z 1005f592 f i libucrt:atox.obj
 0001:0005e5bd       ??$parse_integer_from_string@_J_W$$T@__crt_strtox@@YA_JQB_W$$THQAU__crt_locale_pointers@@@Z 1005f5bd f i libucrt:atox.obj
 0001:0005e5e8       ??0?$c_string_character_source@D@__crt_strtox@@QAE@QBDQAPBD@Z 1005f5e8 f i libucrt:atox.obj
 0001:0005e604       ??0?$c_string_character_source@_W@__crt_strtox@@QAE@QB_WQAPB_W@Z 1005f604 f i libucrt:atox.obj
 0001:0005e620       ??1?$c_string_character_source@D@__crt_strtox@@QAE@XZ 1005f620 f i libucrt:atox.obj
 0001:0005e62c       ??1?$c_string_character_source@_W@__crt_strtox@@QAE@XZ 1005f62c f i libucrt:atox.obj
 0001:0005e638       ?get@?$c_string_character_source@D@__crt_strtox@@QAEDXZ 1005f638 f i libucrt:atox.obj
 0001:0005e640       ?get@?$c_string_character_source@_W@__crt_strtox@@QAE_WXZ 1005f640 f i libucrt:atox.obj
 0001:0005e64b       ?is_space@__crt_strtox@@YA_NDQAU__crt_locale_pointers@@@Z 1005f64b f i libucrt:atox.obj
 0001:0005e669       ?is_space@__crt_strtox@@YA_N_WPAU__crt_locale_pointers@@@Z 1005f669 f i libucrt:atox.obj
 0001:0005e681       ?maximum_signed_value@__crt_strtox@@YAJK@Z 1005f681 f i libucrt:atox.obj
 0001:0005e687       ?maximum_signed_value@__crt_strtox@@YA_J_K@Z 1005f687 f i libucrt:atox.obj
 0001:0005e690       ?minimum_signed_value@__crt_strtox@@YAJK@Z 1005f690 f i libucrt:atox.obj
 0001:0005e696       ?minimum_signed_value@__crt_strtox@@YA_J_K@Z 1005f696 f i libucrt:atox.obj
 0001:0005e69e       ?parse_digit@__crt_strtox@@YAID@Z 1005f69e f i libucrt:atox.obj
 0001:0005e6d8       ?parse_digit@__crt_strtox@@YAI_W@Z 1005f6d8 f i libucrt:atox.obj
 0001:0005e8b7       ?restore_state@?$c_string_character_source@D@__crt_strtox@@QAE_NQBD@Z 1005f8b7 f i libucrt:atox.obj
 0001:0005e8c7       ?restore_state@?$c_string_character_source@_W@__crt_strtox@@QAE_NQB_W@Z 1005f8c7 f i libucrt:atox.obj
 0001:0005e8d7       ?save_state@?$c_string_character_source@D@__crt_strtox@@QBEPBDXZ 1005f8d7 f i libucrt:atox.obj
 0001:0005e8da       ?save_state@?$c_string_character_source@_W@__crt_strtox@@QBEPB_WXZ 1005f8da f i libucrt:atox.obj
 0001:0005e8dd       ?unget@?$c_string_character_source@D@__crt_strtox@@QAEXD@Z 1005f8dd f i libucrt:atox.obj
 0001:0005e906       ?unget@?$c_string_character_source@_W@__crt_strtox@@QAEX_W@Z 1005f906 f i libucrt:atox.obj
 0001:0005e934       ?validate@?$c_string_character_source@D@__crt_strtox@@QBE_NXZ 1005f934 f i libucrt:atox.obj
 0001:0005e94f       ?validate@?$c_string_character_source@_W@__crt_strtox@@QBE_NXZ 1005f94f f i libucrt:atox.obj
 0001:0005e96a       ?wide_character_to_digit@__crt_strtox@@YAH_W@Z 1005f96a f i libucrt:atox.obj
 0001:0005eb0b       ___acrt_get_locale_data_prefix 1005fb0b f i libucrt:atox.obj
 0001:0005eb17       ___ascii_iswalpha          1005fb17 f i libucrt:atox.obj
 0001:0005eb3a       ___ascii_toupper           1005fb3a f i libucrt:atox.obj
 0001:0005eb51       ___ascii_towupper          1005fb51 f i libucrt:atox.obj
 0001:0005eb68       __atoi64                   1005fb68 f   libucrt:atox.obj
 0001:0005eb8b       __atoi64_l                 1005fb8b f   libucrt:atox.obj
 0001:0005ebaf       __atoi_l                   1005fbaf f   libucrt:atox.obj
 0001:0005ebd3       __atol_l                   1005fbd3 f   libucrt:atox.obj
 0001:0005ebf7       __atoll_l                  1005fbf7 f   libucrt:atox.obj
 0001:0005ec1b       __chvalidchk_l             1005fc1b f i libucrt:atox.obj
 0001:0005ec43       __ischartype_l             1005fc43 f i libucrt:atox.obj
 0001:0005ec97       __wtoi                     1005fc97 f   libucrt:atox.obj
 0001:0005ecba       __wtoi64                   1005fcba f   libucrt:atox.obj
 0001:0005ecdd       __wtoi64_l                 1005fcdd f   libucrt:atox.obj
 0001:0005ed01       __wtoi_l                   1005fd01 f   libucrt:atox.obj
 0001:0005ed25       __wtol                     1005fd25 f   libucrt:atox.obj
 0001:0005ed48       __wtol_l                   1005fd48 f   libucrt:atox.obj
 0001:0005ed6c       __wtoll                    1005fd6c f   libucrt:atox.obj
 0001:0005ed8f       __wtoll_l                  1005fd8f f   libucrt:atox.obj
 0001:0005edb3       _atoi                      1005fdb3 f   libucrt:atox.obj
 0001:0005edd6       _atol                      1005fdd6 f   libucrt:atox.obj
 0001:0005edf9       _atoll                     1005fdf9 f   libucrt:atox.obj
 0001:0005ee85       _strcat_s                  1005fe85 f   libucrt:strcat_s.obj
 0001:0005eef0       _strncmp                   1005fef0 f   libucrt:strncmp.obj
 0001:0005f0d4       __strupr                   100600d4 f   libucrt:strupr.obj
 0001:0005f130       __strupr_l                 10060130 f   libucrt:strupr.obj
 0001:0005f14a       __strupr_s                 1006014a f   libucrt:strupr.obj
 0001:0005f161       __strupr_s_l               10060161 f   libucrt:strupr.obj
 0001:0005f198       ??$make_c_string_character_source@DPAPAD@__crt_strtox@@YA?AV?$c_string_character_source@D@0@QBDQAPAD@Z 10060198 f i libucrt:strtox.obj
 0001:0005f1b3       ??$make_c_string_character_source@_WPAPA_W@__crt_strtox@@YA?AV?$c_string_character_source@_W@0@QB_WQAPA_W@Z 100601b3 f i libucrt:strtox.obj
 0001:0005f1ce       ??$parse_integer_from_string@JDPAPAD@__crt_strtox@@YAJQBDQAPADHQAU__crt_locale_pointers@@@Z 100601ce f i libucrt:strtox.obj
 0001:0005f1f9       ??$parse_integer_from_string@J_WPAPA_W@__crt_strtox@@YAJQB_WQAPA_WHQAU__crt_locale_pointers@@@Z 100601f9 f i libucrt:strtox.obj
 0001:0005f224       ??$parse_integer_from_string@KDPAPAD@__crt_strtox@@YAKQBDQAPADHQAU__crt_locale_pointers@@@Z 10060224 f i libucrt:strtox.obj
 0001:0005f24f       ??$parse_integer_from_string@K_WPAPA_W@__crt_strtox@@YAKQB_WQAPA_WHQAU__crt_locale_pointers@@@Z 1006024f f i libucrt:strtox.obj
 0001:0005f27a       ??$parse_integer_from_string@_JDPAPAD@__crt_strtox@@YA_JQBDQAPADHQAU__crt_locale_pointers@@@Z 1006027a f i libucrt:strtox.obj
 0001:0005f2a5       ??$parse_integer_from_string@_J_WPAPA_W@__crt_strtox@@YA_JQB_WQAPA_WHQAU__crt_locale_pointers@@@Z 100602a5 f i libucrt:strtox.obj
 0001:0005f2d0       ??$parse_integer_from_string@_KDPAPAD@__crt_strtox@@YA_KQBDQAPADHQAU__crt_locale_pointers@@@Z 100602d0 f i libucrt:strtox.obj
 0001:0005f2fb       ??$parse_integer_from_string@_K_WPAPA_W@__crt_strtox@@YA_KQB_WQAPA_WHQAU__crt_locale_pointers@@@Z 100602fb f i libucrt:strtox.obj
 0001:0005f326       __strtoi64                 10060326 f   libucrt:strtox.obj
 0001:0005f350       __strtoi64_l               10060350 f   libucrt:strtox.obj
 0001:0005f37b       __strtoimax_l              1006037b f   libucrt:strtox.obj
 0001:0005f3a6       __strtol_l                 100603a6 f   libucrt:strtox.obj
 0001:0005f3d1       __strtoll_l                100603d1 f   libucrt:strtox.obj
 0001:0005f3fc       __strtoui64                100603fc f   libucrt:strtox.obj
 0001:0005f426       __strtoui64_l              10060426 f   libucrt:strtox.obj
 0001:0005f451       __strtoul_l                10060451 f   libucrt:strtox.obj
 0001:0005f47c       __strtoull_l               1006047c f   libucrt:strtox.obj
 0001:0005f4a7       __strtoumax_l              100604a7 f   libucrt:strtox.obj
 0001:0005f4d2       __wcstoi64                 100604d2 f   libucrt:strtox.obj
 0001:0005f4fc       __wcstoi64_l               100604fc f   libucrt:strtox.obj
 0001:0005f527       __wcstoimax_l              10060527 f   libucrt:strtox.obj
 0001:0005f552       __wcstol_l                 10060552 f   libucrt:strtox.obj
 0001:0005f57d       __wcstoll_l                1006057d f   libucrt:strtox.obj
 0001:0005f5a8       __wcstoui64                100605a8 f   libucrt:strtox.obj
 0001:0005f5d2       __wcstoui64_l              100605d2 f   libucrt:strtox.obj
 0001:0005f5fd       __wcstoul_l                100605fd f   libucrt:strtox.obj
 0001:0005f628       __wcstoull_l               10060628 f   libucrt:strtox.obj
 0001:0005f653       __wcstoumax_l              10060653 f   libucrt:strtox.obj
 0001:0005f67e       _strtoimax                 1006067e f   libucrt:strtox.obj
 0001:0005f6a8       _strtol                    100606a8 f   libucrt:strtox.obj
 0001:0005f6d2       _strtoll                   100606d2 f   libucrt:strtox.obj
 0001:0005f6fc       _strtoul                   100606fc f   libucrt:strtox.obj
 0001:0005f726       _strtoull                  10060726 f   libucrt:strtox.obj
 0001:0005f750       _strtoumax                 10060750 f   libucrt:strtox.obj
 0001:0005f77a       _wcstoimax                 1006077a f   libucrt:strtox.obj
 0001:0005f7a4       _wcstol                    100607a4 f   libucrt:strtox.obj
 0001:0005f7ce       _wcstoll                   100607ce f   libucrt:strtox.obj
 0001:0005f7f8       _wcstoul                   100607f8 f   libucrt:strtox.obj
 0001:0005f822       _wcstoull                  10060822 f   libucrt:strtox.obj
 0001:0005f84c       _wcstoumax                 1006084c f   libucrt:strtox.obj
 0001:0006028b       ??$tcsncpy_s@AAPADIAAPBDABI@?$__crt_char_traits@D@@SAHAAPAD$$QAIAAPBDABI@Z 1006128b f i libucrt:splitpath.obj
 0001:000602ae       ??$tcsncpy_s@AAPADIAAPBDH@?$__crt_char_traits@D@@SAHAAPAD$$QAIAAPBD$$QAH@Z 100612ae f i libucrt:splitpath.obj
 0001:000602d1       ??$tcsncpy_s@AAPA_WIAAPB_WABI@?$__crt_char_traits@_W@@SAHAAPA_W$$QAIAAPB_WABI@Z 100612d1 f i libucrt:splitpath.obj
 0001:000602f4       ??$tcsncpy_s@AAPA_WIAAPB_WH@?$__crt_char_traits@_W@@SAHAAPA_W$$QAIAAPB_W$$QAH@Z 100612f4 f i libucrt:splitpath.obj
 0001:000603b1       __splitpath                100613b1 f   libucrt:splitpath.obj
 0001:0006041a       __splitpath_s              1006141a f   libucrt:splitpath.obj
 0001:00060471       __wsplitpath               10061471 f   libucrt:splitpath.obj
 0001:000604da       __wsplitpath_s             100614da f   libucrt:splitpath.obj
 0001:00060d2c       ??1?$__crt_simd_cleanup_guard@$00@@QAE@XZ 10061d2c f i libucrt:strnlen.obj
 0001:00060d30       ??1?$__crt_simd_cleanup_guard@$0A@@@QAE@XZ 10061d30 f i libucrt:strnlen.obj
 0001:00060d33       ?compare_equals@?$__crt_simd_traits@$00E@@SA?AT__m256i@@T2@0@Z 10061d33 f i libucrt:strnlen.obj
 0001:00060d38       ?compare_equals@?$__crt_simd_traits@$00G@@SA?AT__m256i@@T2@0@Z 10061d38 f i libucrt:strnlen.obj
 0001:00060d3d       ?compare_equals@?$__crt_simd_traits@$0A@E@@SA?AT__m128i@@T2@0@Z 10061d3d f i libucrt:strnlen.obj
 0001:00060d42       ?compare_equals@?$__crt_simd_traits@$0A@G@@SA?AT__m128i@@T2@0@Z 10061d42 f i libucrt:strnlen.obj
 0001:00060d47       ?compute_byte_mask@?$__crt_simd_pack_traits@$00@@SAHT__m256i@@@Z 10061d47 f i libucrt:strnlen.obj
 0001:00060d4c       ?compute_byte_mask@?$__crt_simd_pack_traits@$0A@@@SAHT__m128i@@@Z 10061d4c f i libucrt:strnlen.obj
 0001:00060d51       ?get_zero_pack@?$__crt_simd_pack_traits@$00@@SA?AT__m256i@@XZ 10061d51 f i libucrt:strnlen.obj
 0001:00060d56       ?get_zero_pack@?$__crt_simd_pack_traits@$0A@@@SA?AT__m128i@@XZ 10061d56 f i libucrt:strnlen.obj
 0001:00060d5a       _strnlen                   10061d5a f   libucrt:strnlen.obj
 0001:00060e7c       _wcslen                    10061e7c f   libucrt:strnlen.obj
 0001:00060fa4       _wcsnlen                   10061fa4 f   libucrt:strnlen.obj
 0001:00061154       __abs64                    10062154 f   libucrt:abs.obj
 0001:0006116e       _abs                       1006216e f   libucrt:abs.obj
 0001:00061180       _cos                       10062180 f   libucrt:cos.obj
 0001:000611d0       _sin                       100621d0 f   libucrt:sin.obj
 0001:00061213       ??$?B$$A6AHI@Z@__crt_fast_encoded_nullptr_t@@QBEP6AHI@ZXZ 10062213 f i libucrt:new_handler.obj
 0001:00061219       ??$__crt_fast_decode_pointer@P6AHI@Z@@YAP6AHI@ZQ6AHI@Z@Z 10062219 f i libucrt:new_handler.obj
 0001:0006122f       ??$__crt_fast_encode_pointer@P6AHI@Z@@YAP6AHI@ZQ6AHI@Z@Z 1006222f f i libucrt:new_handler.obj
 0001:0006124e       ?__crt_fast_encode_pointer@@YA?AU__crt_fast_encoded_nullptr_t@@$$T@Z 1006224e f i libucrt:new_handler.obj
 0001:00061259       ?_set_new_handler@@YAP6AHI@ZH@Z 10062259 f   libucrt:new_handler.obj
 0001:00061266       ?initialize@?$dual_state_global@P6AHI@Z@__crt_state_management@@QAEXQ6AHI@Z@Z 10062266 f i libucrt:new_handler.obj
 0001:0006128c       ?value@?$dual_state_global@P6AHI@Z@__crt_state_management@@QAEAAP6AHI@ZXZ 1006228c f i libucrt:new_handler.obj
 0001:0006128f       ___acrt_initialize_new_handler 1006228f f   libucrt:new_handler.obj
 0001:0006129e       __callnewh                 1006229e f   libucrt:new_handler.obj
 0001:000612cb       __query_new_handler        100622cb f   libucrt:new_handler.obj
 0001:00061327       __set_new_handler          10062327 f   libucrt:new_handler.obj
 0001:00061391       ___ascii_stricmp           10062391 f   libucrt:stricmp.obj
 0001:000613ca       ___ascii_tolower           100623ca f i libucrt:stricmp.obj
 0001:000613e1       __strcmpi                  100623e1 f   libucrt:stricmp.obj
 0001:000613e1       __stricmp                  100623e1 f   libucrt:stricmp.obj
 0001:0006142a       __stricmp_l                1006242a f   libucrt:stricmp.obj
 0001:000614b8       __errcode                  100624b8 f   libucrt:fpexcept.obj
 0001:000614ec       __except1                  100624ec f   libucrt:fpexcept.obj
 0001:000615ba       __except2                  100625ba f   libucrt:fpexcept.obj
 0001:000616c2       __handle_exc               100626c2 f   libucrt:fpexcept.obj
 0001:000618ad       __handle_qnan2             100628ad f   libucrt:fpexcept.obj
 0001:000618ba       __raise_exc                100628ba f   libucrt:fpexcept.obj
 0001:000618dd       __raise_exc_ex             100628dd f   libucrt:fpexcept.obj
 0001:00061bd3       __raise_excf               10062bd3 f   libucrt:fpexcept.obj
 0001:00061bf6       __set_errno_from_matherr   10062bf6 f   libucrt:fpexcept.obj
 0001:00061c25       __umatherr                 10062c25 f   libucrt:fpexcept.obj
 0001:00061cdb       __get_terminate            10062cdb f   libucrt:terminate.obj
 0001:00061ced       _set_terminate             10062ced f   libucrt:terminate.obj
 0001:00061d0d       _terminate                 10062d0d f   libucrt:terminate.obj
 0001:00061d49       __initterm                 10062d49 f   libucrt:initterm.obj
 0001:00061d8e       __initterm_e               10062d8e f   libucrt:initterm.obj
 0001:00061de0       __seh_filter_dll           10062de0 f   libucrt:exception_filter.obj
 0001:00061e00       __seh_filter_exe           10062e00 f   libucrt:exception_filter.obj
 0001:00061f58       ??$?B$$A6GXPAXK0@Z@__crt_fast_encoded_nullptr_t@@QBEP6GXPAXK0@ZXZ 10062f58 f i libucrt:exit.obj
 0001:00061fd1       ??$__crt_fast_decode_pointer@P6GXPAXK0@Z@@YAP6GXPAXK0@ZQ6GX0K0@Z@Z 10062fd1 f i libucrt:exit.obj
 0001:00061fe7       ??$__crt_fast_encode_pointer@P6GXPAXK0@Z@@YAP6GXPAXK0@ZQ6GX0K0@Z@Z 10062fe7 f i libucrt:exit.obj
 0001:00062006       ??$__crt_get_proc_address@P6GXI@Z@@YAP6GXI@ZQAUHINSTANCE__@@QBD@Z 10063006 f i libucrt:exit.obj
 0001:00062059       ??0?$__crt_unique_handle_t@U__crt_hmodule_traits@@@@QAE@QAUHINSTANCE__@@@Z 10063059 f i libucrt:exit.obj
 0001:00062069       ??1?$__crt_unique_handle_t@U__crt_hmodule_traits@@@@QAE@XZ 10063069 f i libucrt:exit.obj
 0001:0006216c       ?__acrt_select_exit_lock@@YA?AW4__acrt_lock_id@@XZ 1006316c f i libucrt:exit.obj
 0001:00062183       ?close@?$__crt_unique_handle_t@U__crt_hmodule_traits@@@@QAEXXZ 10063183 f i libucrt:exit.obj
 0001:0006219a       ?close@__crt_hmodule_traits@@SA_NPAUHINSTANCE__@@@Z 1006319a f i libucrt:exit.obj
 0001:00062255       ?get@?$__crt_unique_handle_t@U__crt_hmodule_traits@@@@QBEPAUHINSTANCE__@@XZ 10063255 f i libucrt:exit.obj
 0001:00062258       ?get_address_of@?$__crt_unique_handle_t@U__crt_hmodule_traits@@@@QAEPAPAUHINSTANCE__@@XZ 10063258 f i libucrt:exit.obj
 0001:0006225b       ?get_invalid_value@__crt_hmodule_traits@@SAPAUHINSTANCE__@@XZ 1006325b f i libucrt:exit.obj
 0001:00062316       __Exit                     10063316 f   libucrt:exit.obj
 0001:0006232c       ___acrt_initialize_thread_local_exit_callback 1006332c f   libucrt:exit.obj
 0001:0006233b       __c_exit                   1006333b f   libucrt:exit.obj
 0001:0006234a       __cexit                    1006334a f   libucrt:exit.obj
 0001:00062359       __exit                     10063359 f   libucrt:exit.obj
 0001:0006236f       __is_c_termination_complete 1006336f f   libucrt:exit.obj
 0001:00062376       __register_thread_local_exe_atexit_callback 10063376 f   libucrt:exit.obj
 0001:0006239c       _exit                      1006339c f   libucrt:exit.obj
 0001:000623b2       _quick_exit                100633b2 f   libucrt:exit.obj
 0001:000623c8       ??$?RE@__crt_internal_free_policy@@QBEXQBE@Z 100633c8 f i libucrt:argv_parsing.obj
 0001:000623da       ??$?RPAD@__crt_internal_free_policy@@QBEXQBQAD@Z 100633da f i libucrt:argv_parsing.obj
 0001:000623ec       ??$?RPA_W@__crt_internal_free_policy@@QBEXQBQA_W@Z 100633ec f i libucrt:argv_parsing.obj
 0001:00062663       ??$get_module_file_name@$$TAAY0BAF@DH@?$__crt_char_traits@D@@SAK$$QA$$TAAY0BAF@D$$QAH@Z 10063663 f i libucrt:argv_parsing.obj
 0001:0006267f       ??$get_module_file_name@$$TAAY0BAF@_WH@?$__crt_char_traits@_W@@SAK$$QA$$TAAY0BAF@_W$$QAH@Z 1006367f f i libucrt:argv_parsing.obj
 0001:000629a1       ??$set_program_name@PAD@?$__crt_char_traits@D@@SAX$$QAPAD@Z 100639a1 f i libucrt:argv_parsing.obj
 0001:000629b2       ??$set_program_name@PA_W@?$__crt_char_traits@_W@@SAX$$QAPA_W@Z 100639b2 f i libucrt:argv_parsing.obj
 0001:000629e3       ??0?$__crt_unique_heap_ptr@EU__crt_internal_free_policy@@@@QAE@QAE@Z 100639e3 f i libucrt:argv_parsing.obj
 0001:000629f3       ??0?$__crt_unique_heap_ptr@PADU__crt_internal_free_policy@@@@QAE@QAPAD@Z 100639f3 f i libucrt:argv_parsing.obj
 0001:00062a03       ??0?$__crt_unique_heap_ptr@PA_WU__crt_internal_free_policy@@@@QAE@QAPA_W@Z 10063a03 f i libucrt:argv_parsing.obj
 0001:00062a13       ??1?$__crt_unique_heap_ptr@EU__crt_internal_free_policy@@@@QAE@XZ 10063a13 f i libucrt:argv_parsing.obj
 0001:00062a25       ??1?$__crt_unique_heap_ptr@PADU__crt_internal_free_policy@@@@QAE@XZ 10063a25 f i libucrt:argv_parsing.obj
 0001:00062a37       ??1?$__crt_unique_heap_ptr@PA_WU__crt_internal_free_policy@@@@QAE@XZ 10063a37 f i libucrt:argv_parsing.obj
 0001:00062a49       ??B?$__crt_unique_heap_ptr@EU__crt_internal_free_policy@@@@QBE_NXZ 10063a49 f i libucrt:argv_parsing.obj
 0001:00062a7c       ?detach@?$__crt_unique_heap_ptr@EU__crt_internal_free_policy@@@@QAEPAEXZ 10063a7c f i libucrt:argv_parsing.obj
 0001:00062a82       ?detach@?$__crt_unique_heap_ptr@PADU__crt_internal_free_policy@@@@QAEPAPADXZ 10063a82 f i libucrt:argv_parsing.obj
 0001:00062a88       ?detach@?$__crt_unique_heap_ptr@PA_WU__crt_internal_free_policy@@@@QAEPAPA_WXZ 10063a88 f i libucrt:argv_parsing.obj
 0001:00062aac       ?get@?$__crt_unique_heap_ptr@EU__crt_internal_free_policy@@@@QBEPAEXZ 10063aac f i libucrt:argv_parsing.obj
 0001:00062aaf       ?get@?$__crt_unique_heap_ptr@PADU__crt_internal_free_policy@@@@QBEPAPADXZ 10063aaf f i libucrt:argv_parsing.obj
 0001:00062ab2       ?get@?$__crt_unique_heap_ptr@PA_WU__crt_internal_free_policy@@@@QBEPAPA_WXZ 10063ab2 f i libucrt:argv_parsing.obj
 0001:00062ab5       ?get_address_of@?$__crt_unique_heap_ptr@PADU__crt_internal_free_policy@@@@QAEPAPAPADXZ 10063ab5 f i libucrt:argv_parsing.obj
 0001:00062ab8       ?get_address_of@?$__crt_unique_heap_ptr@PA_WU__crt_internal_free_policy@@@@QAEPAPAPA_WXZ 10063ab8 f i libucrt:argv_parsing.obj
 0001:00062ad3       ?is_valid@?$__crt_unique_heap_ptr@EU__crt_internal_free_policy@@@@QBE_NXZ 10063ad3 f i libucrt:argv_parsing.obj
 0001:00062ada       ?release@?$__crt_unique_heap_ptr@EU__crt_internal_free_policy@@@@QAEXXZ 10063ada f i libucrt:argv_parsing.obj
 0001:00062aec       ?release@?$__crt_unique_heap_ptr@PADU__crt_internal_free_policy@@@@QAEXXZ 10063aec f i libucrt:argv_parsing.obj
 0001:00062afe       ?release@?$__crt_unique_heap_ptr@PA_WU__crt_internal_free_policy@@@@QAEXXZ 10063afe f i libucrt:argv_parsing.obj
 0001:00062b2a       ___acrt_allocate_buffer_for_argv 10063b2a f   libucrt:argv_parsing.obj
 0001:00062b79       __configure_narrow_argv    10063b79 f   libucrt:argv_parsing.obj
 0001:00062b84       __configure_wide_argv      10063b84 f   libucrt:argv_parsing.obj
 0001:00062b8f       __set_pgmptr               10063b8f f i libucrt:argv_parsing.obj
 0001:00062b9e       __set_wpgmptr              10063b9e f i libucrt:argv_parsing.obj
 0001:00062f86       ??$get_environment_from_os@$$V@?$__crt_char_traits@D@@SAPADXZ 10063f86 f i libucrt:environment_initialization.obj
 0001:00062f8b       ??$get_environment_from_os@$$V@?$__crt_char_traits@_W@@SAPA_WXZ 10063f8b f i libucrt:environment_initialization.obj
 0001:00063090       ??$set_variable_in_environment_nolock@PADH@?$__crt_char_traits@D@@SAH$$QAPAD$$QAH@Z 10064090 f i libucrt:environment_initialization.obj
 0001:000630a8       ??$set_variable_in_environment_nolock@PA_WH@?$__crt_char_traits@_W@@SAH$$QAPA_W$$QAH@Z 100640a8 f i libucrt:environment_initialization.obj
 0001:000630c0       ??$tcscpy_s@PADABIAAPAD@?$__crt_char_traits@D@@SAH$$QAPADABIAAPAD@Z 100640c0 f i libucrt:environment_initialization.obj
 0001:000630de       ??$tcscpy_s@PA_WABIAAPA_W@?$__crt_char_traits@_W@@SAH$$QAPA_WABIAAPA_W@Z 100640de f i libucrt:environment_initialization.obj
 0001:000630fc       ??$tcslen@AAPAD@?$__crt_char_traits@D@@SAIAAPAD@Z 100640fc f i libucrt:environment_initialization.obj
 0001:00063114       ??$tcslen@AAPA_W@?$__crt_char_traits@_W@@SAIAAPA_W@Z 10064114 f i libucrt:environment_initialization.obj
 0001:00063132       ??$uninitialize@A6AXAAPAPAD@Z@?$dual_state_global@PAPAD@__crt_state_management@@QAEXA6AXAAPAPAD@Z@Z 10064132 f i libucrt:environment_initialization.obj
 0001:0006315b       ??$uninitialize@A6AXAAPAPA_W@Z@?$dual_state_global@PAPA_W@__crt_state_management@@QAEXA6AXAAPAPA_W@Z@Z 1006415b f i libucrt:environment_initialization.obj
 0001:000631ba       ??B?$__crt_unique_heap_ptr@PADU__crt_internal_free_policy@@@@QBE_NXZ 100641ba f i libucrt:environment_initialization.obj
 0001:000631c1       ??B?$__crt_unique_heap_ptr@PA_WU__crt_internal_free_policy@@@@QBE_NXZ 100641c1 f i libucrt:environment_initialization.obj
 0001:000631c8       ??B?$__crt_unique_heap_ptr@_WU__crt_internal_free_policy@@@@QBE_NXZ 100641c8 f i libucrt:environment_initialization.obj
 0001:000631cf       ?__crt_compute_required_transform_buffer_count@@YAIIQBD@Z 100641cf f i libucrt:environment_initialization.obj
 0001:000631eb       ?__crt_compute_required_transform_buffer_count@@YAIIQB_W@Z 100641eb f i libucrt:environment_initialization.obj
 0001:00063209       ?__crt_transform_string@@YAIIQBDQA_WI@Z 10064209 f i libucrt:environment_initialization.obj
 0001:00063228       ?__crt_transform_string@@YAIIQB_WQADI@Z 10064228 f i libucrt:environment_initialization.obj
 0001:0006324a       ?detach@?$__crt_unique_heap_ptr@_WU__crt_internal_free_policy@@@@QAEPA_WXZ 1006424a f i libucrt:environment_initialization.obj
 0001:00063274       ?initialize@?$dual_state_global@PAPAD@__crt_state_management@@QAEXQAPAD@Z 10064274 f i libucrt:environment_initialization.obj
 0001:0006329a       ?initialize@?$dual_state_global@PAPA_W@__crt_state_management@@QAEXQAPA_W@Z 1006429a f i libucrt:environment_initialization.obj
 0001:000632c0       ?is_valid@?$__crt_unique_heap_ptr@PADU__crt_internal_free_policy@@@@QBE_NXZ 100642c0 f i libucrt:environment_initialization.obj
 0001:000632c7       ?is_valid@?$__crt_unique_heap_ptr@PA_WU__crt_internal_free_policy@@@@QBE_NXZ 100642c7 f i libucrt:environment_initialization.obj
 0001:000632ce       ?is_valid@?$__crt_unique_heap_ptr@_WU__crt_internal_free_policy@@@@QBE_NXZ 100642ce f i libucrt:environment_initialization.obj
 0001:000632dd       ?value@?$dual_state_global@PAPAD@__crt_state_management@@QAEAAPAPADXZ 100642dd f i libucrt:environment_initialization.obj
 0001:000632e0       ?value@?$dual_state_global@PAPA_W@__crt_state_management@@QAEAAPAPA_WXZ 100642e0 f i libucrt:environment_initialization.obj
 0001:000632e3       ___dcrt_get_or_create_narrow_environment_nolock 100642e3 f   libucrt:environment_initialization.obj
 0001:000632e8       ___dcrt_get_or_create_wide_environment_nolock 100642e8 f   libucrt:environment_initialization.obj
 0001:000632ed       ___dcrt_uninitialize_environments_nolock 100642ed f   libucrt:environment_initialization.obj
 0001:00063324       ___p__environ              10064324 f   libucrt:environment_initialization.obj
 0001:0006332a       ___p__wenviron             1006432a f   libucrt:environment_initialization.obj
 0001:00063330       __get_initial_narrow_environment 10064330 f   libucrt:environment_initialization.obj
 0001:00063344       __get_initial_wide_environment 10064344 f   libucrt:environment_initialization.obj
 0001:00063358       __initialize_narrow_environment 10064358 f   libucrt:environment_initialization.obj
 0001:0006335d       __initialize_wide_environment 1006435d f   libucrt:environment_initialization.obj
 0001:00063362       ??$?B$$A6AXXZ@__crt_fast_encoded_nullptr_t@@QBEP6AXXZXZ 10064362 f i libucrt:onexit.obj
 0001:00063368       ??$?BP6AXXZ@__crt_fast_encoded_nullptr_t@@QBEPAP6AXXZXZ 10064368 f i libucrt:onexit.obj
 0001:0006336e       ??$?RP6AXXZ@__crt_internal_free_policy@@QBEXQBQ6AXXZ@Z 1006436e f i libucrt:onexit.obj
 0001:00063482       ??$__crt_fast_decode_pointer@P6AXXZ@@YAP6AXXZQ6AXXZ@Z 10064482 f i libucrt:onexit.obj
 0001:00063498       ??$__crt_fast_decode_pointer@PAP6AXXZ@@YAPAP6AXXZQAP6AXXZ@Z 10064498 f i libucrt:onexit.obj
 0001:000634ae       ??$__crt_fast_encode_pointer@P6AHXZ@@YAP6AHXZQ6AHXZ@Z 100644ae f i libucrt:onexit.obj
 0001:000634cd       ??$__crt_fast_encode_pointer@P6AXXZ@@YAP6AXXZQ6AXXZ@Z 100644cd f i libucrt:onexit.obj
 0001:000634ec       ??$__crt_fast_encode_pointer@PAP6AXXZ@@YAPAP6AXXZQAP6AXXZ@Z 100644ec f i libucrt:onexit.obj
 0001:00063579       ??0?$__crt_unique_heap_ptr@P6AXXZU__crt_internal_free_policy@@@@QAE@QAP6AXXZ@Z 10064579 f i libucrt:onexit.obj
 0001:00063589       ??1?$__crt_unique_heap_ptr@P6AXXZU__crt_internal_free_policy@@@@QAE@XZ 10064589 f i libucrt:onexit.obj
 0001:0006359b       ??1scoped_global_state_reset@__crt_state_management@@QAE@XZ 1006459b f i libucrt:onexit.obj
 0001:000637c5       ?detach@?$__crt_unique_heap_ptr@P6AXXZU__crt_internal_free_policy@@@@QAEPAP6AXXZXZ 100647c5 f i libucrt:onexit.obj
 0001:000637cb       ?release@?$__crt_unique_heap_ptr@P6AXXZU__crt_internal_free_policy@@@@QAEXXZ 100647cb f i libucrt:onexit.obj
 0001:000637dd       __crt_at_quick_exit        100647dd f   libucrt:onexit.obj
 0001:000637f3       __crt_atexit               100647f3 f   libucrt:onexit.obj
 0001:00063809       __execute_onexit_table     10064809 f   libucrt:onexit.obj
 0001:00063836       __initialize_onexit_table  10064836 f   libucrt:onexit.obj
 0001:0006385f       __register_onexit_function 1006485f f   libucrt:onexit.obj
 0001:0006396e       ??$?BX@__crt_fast_encoded_nullptr_t@@QBEPAXXZ 1006496e f i libucrt:initialization.obj
 0001:00063974       ??$__crt_fast_encode_pointer@PAX@@YAPAXQAX@Z 10064974 f i libucrt:initialization.obj
 0001:000639e5       ?__acrt_stdio_is_initialized@@YA_NXZ 100649e5 f i libucrt:initialization.obj
 0001:000639f0       ?initialize@?$dual_state_global@PAU__crt_locale_data@@@__crt_state_management@@QAEXQAU__crt_locale_data@@@Z 100649f0 f i libucrt:initialization.obj
 0001:00063a16       ___acrt_initialize         10064a16 f   libucrt:initialization.obj
 0001:00063a28       ___acrt_thread_attach      10064a28 f   libucrt:initialization.obj
 0001:00063a33       ___acrt_thread_detach      10064a33 f   libucrt:initialization.obj
 0001:00063a3b       ___acrt_uninitialize       10064a3b f   libucrt:initialization.obj
 0001:00063a6b       ___acrt_uninitialize_critical 10064a6b f   libucrt:initialization.obj
 0001:00063a7d       __set_abort_behavior       10064a7d f   libucrt:abort.obj
 0001:00063a9e       _abort                     10064a9e f   libucrt:abort.obj
 0001:00063ae2       _calloc                    10064ae2 f   libucrt:calloc.obj
 0001:00063aed       _wcsncmp                   10064aed f   libucrt:wcsncmp.obj
 0001:00063b27       __malloc_base              10064b27 f   libucrt:malloc_base.obj
 0001:00063b75       ??$?RU__acrt_ptd@@@__crt_internal_free_policy@@QBEXQBU__acrt_ptd@@@Z 10064b75 f i libucrt:per_thread_data.obj
 0001:00063e61       ??0?$__crt_unique_heap_ptr@U__acrt_ptd@@U__crt_internal_free_policy@@@@QAE@QAU__acrt_ptd@@@Z 10064e61 f i libucrt:per_thread_data.obj
 0001:00063e71       ??0__crt_scoped_get_last_error_reset@@QAE@XZ 10064e71 f i libucrt:per_thread_data.obj
 0001:00063e82       ??1?$__crt_unique_heap_ptr@U__acrt_ptd@@U__crt_internal_free_policy@@@@QAE@XZ 10064e82 f i libucrt:per_thread_data.obj
 0001:00063e94       ??1__crt_scoped_get_last_error_reset@@QAE@XZ 10064e94 f i libucrt:per_thread_data.obj
 0001:00063e9d       ??B?$__crt_unique_heap_ptr@U__acrt_ptd@@U__crt_internal_free_policy@@@@QBE_NXZ 10064e9d f i libucrt:per_thread_data.obj
 0001:00063feb       ?dangerous_get_state_array@?$dual_state_global@PAU__crt_locale_data@@@__crt_state_management@@QAEPAPAU__crt_locale_data@@XZ 10064feb f i libucrt:per_thread_data.obj
 0001:000640e1       ?detach@?$__crt_unique_heap_ptr@U__acrt_ptd@@U__crt_internal_free_policy@@@@QAEPAU__acrt_ptd@@XZ 100650e1 f i libucrt:per_thread_data.obj
 0001:000640e7       ?get@?$__crt_unique_heap_ptr@U__acrt_ptd@@U__crt_internal_free_policy@@@@QBEPAU__acrt_ptd@@XZ 100650e7 f i libucrt:per_thread_data.obj
 0001:000640ea       ?get_current_state_index@__crt_state_management@@YAIABV__crt_scoped_get_last_error_reset@@@Z 100650ea f i libucrt:per_thread_data.obj
 0001:0006421f       ?is_valid@?$__crt_unique_heap_ptr@U__acrt_ptd@@U__crt_internal_free_policy@@@@QBE_NXZ 1006521f f i libucrt:per_thread_data.obj
 0001:00064226       ?release@?$__crt_unique_heap_ptr@U__acrt_ptd@@U__crt_internal_free_policy@@@@QAEXXZ 10065226 f i libucrt:per_thread_data.obj
 0001:0006429a       ?value@?$dual_state_global@PAU__crt_locale_data@@@__crt_state_management@@QAEAAPAU__crt_locale_data@@XZ 1006529a f i libucrt:per_thread_data.obj
 0001:0006429d       ___acrt_freeptd            1006529d f   libucrt:per_thread_data.obj
 0001:000642c9       ___acrt_getptd             100652c9 f   libucrt:per_thread_data.obj
 0001:00064386       ___acrt_getptd_head        10065386 f   libucrt:per_thread_data.obj
 0001:00064420       ___acrt_getptd_noexit      10065420 f   libucrt:per_thread_data.obj
 0001:000644d5       ___acrt_initialize_ptd     100654d5 f   libucrt:per_thread_data.obj
 0001:00064501       ___acrt_uninitialize_ptd   10065501 f   libucrt:per_thread_data.obj
 0001:0006451b       ___threadhandle            1006551b f   libucrt:per_thread_data.obj
 0001:00064521       ___threadid                10065521 f   libucrt:per_thread_data.obj
 0001:0006452d       __free_base                1006552d f   libucrt:free_base.obj
 0001:00064570       __twoToTOS                 10065570 f   libucrt:common.obj
 0001:00064585       __load_CW                  10065585 f   libucrt:common.obj
 0001:0006459c       __convertTOStoQNaN         1006559c f   libucrt:common.obj
 0001:000645b5       __fload_withFB             100655b5 f   libucrt:common.obj
 0001:000645f8       __checkTOS_withFB          100655f8 f   libucrt:common.obj
 0001:0006460e       __fast_exit                1006560e f   libucrt:common.obj
 0001:0006461b       __math_exit                1006561b f   libucrt:common.obj
 0001:00064645       __check_overflow_exit      10065645 f   libucrt:common.obj
 0001:00064659       __check_range_exit         10065659 f   libucrt:common.obj
 0001:00064700       __CIsqrt                   10065700 f   libucrt:sqrt_impl.obj
 0001:00064714       __sqrt_common              10065714     libucrt:sqrt_impl.obj
 0001:000647b1       __mbtowc_l                 100657b1 f   libucrt:mbtowc.obj
 0001:000648f3       _mbtowc                    100658f3 f   libucrt:mbtowc.obj
 0001:0006490d       __wctomb_l                 1006590d f   libucrt:wctomb.obj
 0001:0006495e       __wctomb_s_l               1006595e f   libucrt:wctomb.obj
 0001:00064ab9       _wctomb                    10065ab9 f   libucrt:wctomb.obj
 0001:00064aeb       _wctomb_s                  10065aeb f   libucrt:wctomb.obj
 0001:00064b08       ?value@?$dual_state_global@PAU__crt_multibyte_data@@@__crt_state_management@@QAEAAPAU__crt_multibyte_data@@XZ 10065b08 f i libucrt:locale_update.obj
 0001:00064b0b       ___acrt_should_sync_with_global_locale 10065b0b f i libucrt:locale_update.obj
 0001:00064b27       ___acrt_update_locale_info 10065b27 f   libucrt:locale_update.obj
 0001:00064b54       ___acrt_update_multibyte_info 10065b54 f   libucrt:locale_update.obj
 0001:00064b81       ?__acrt_fp_classify@@YA?AW4__acrt_fp_class@@ABN@Z 10065b81 f i libucrt:cvt.obj
 0001:00064be3       ?__acrt_fp_is_negative@@YA_NABN@Z 10065be3 f i libucrt:cvt.obj
 0001:0006554d       ___acrt_fp_format          1006654d f   libucrt:cvt.obj
 0001:000656d9       __fputwc_nolock            100666d9 f   libucrt:fputwc.obj
 0001:00065802       __fputwchar                10066802 f   libucrt:fputwc.obj
 0001:0006581c       __putwc_nolock             1006681c f   libucrt:fputwc.obj
 0001:00065827       _fputwc                    10066827 f   libucrt:fputwc.obj
 0001:000658a5       _putwc                     100668a5 f   libucrt:fputwc.obj
 0001:000658b0       _putwchar                  100668b0 f   libucrt:fputwc.obj
 0001:000658bb       ?lowio_handle@__crt_stdio_stream@@QBEHXZ 100668bb f i libucrt:fileno.obj
 0001:000658c2       __fileno                   100668c2 f   libucrt:fileno.obj
 0001:000658e9       ??$?RPAU__crt_stdio_stream_data@@@__crt_internal_free_policy@@QBEXQBQAU__crt_stdio_stream_data@@@Z 100668e9 f i libucrt:_file.obj
 0001:000658fb       ??0?$__crt_unique_heap_ptr@PAU__crt_stdio_stream_data@@U__crt_internal_free_policy@@@@QAE@QAPAU__crt_stdio_stream_data@@@Z 100668fb f i libucrt:_file.obj
 0001:0006590b       ??1?$__crt_unique_heap_ptr@PAU__crt_stdio_stream_data@@U__crt_internal_free_policy@@@@QAE@XZ 1006690b f i libucrt:_file.obj
 0001:0006591d       ?detach@?$__crt_unique_heap_ptr@PAU__crt_stdio_stream_data@@U__crt_internal_free_policy@@@@QAEPAPAU__crt_stdio_stream_data@@XZ 1006691d f i libucrt:_file.obj
 0001:00065923       ?release@?$__crt_unique_heap_ptr@PAU__crt_stdio_stream_data@@U__crt_internal_free_policy@@@@QAEXXZ 10066923 f i libucrt:_file.obj
 0001:00065935       ___acrt_initialize_stdio   10066935 f   libucrt:_file.obj
 0001:000659fd       ___acrt_iob_func           100669fd f   libucrt:_file.obj
 0001:00065a0d       ___acrt_uninitialize_stdio 10066a0d f   libucrt:_file.obj
 0001:00065a59       __get_stream_buffer_pointers 10066a59 f   libucrt:_file.obj
 0001:00065a9f       __lock_file                10066a9f f   libucrt:_file.obj
 0001:00065ab3       __unlock_file              10066ab3 f   libucrt:_file.obj
 0001:00065ac7       __fputc_nolock             10066ac7 f   libucrt:fputc.obj
 0001:00065af0       __fputchar                 10066af0 f   libucrt:fputc.obj
 0001:00065b0a       __putc_nolock              10066b0a f   libucrt:fputc.obj
 0001:00065b15       _fputc                     10066b15 f   libucrt:fputc.obj
 0001:00065c1f       _putc                      10066c1f f   libucrt:fputc.obj
 0001:00065c2a       _putchar                   10066c2a f   libucrt:fputc.obj
 0001:00065c35       __get_printf_count_output  10066c35 f   libucrt:printf_count_output.obj
 0001:00065c4a       __set_printf_count_output  10066c4a f   libucrt:printf_count_output.obj
 0001:00065c74       ?has_any_buffer@__crt_stdio_stream@@QBE_NXZ 10066c74 f i libucrt:_sftbuf.obj
 0001:00065c83       ?has_any_of@__crt_stdio_stream@@QBE_NJ@Z 10066c83 f i libucrt:_sftbuf.obj
 0001:00065c98       ?has_temporary_buffer@__crt_stdio_stream@@QBE_NXZ 10066c98 f i libucrt:_sftbuf.obj
 0001:00065ca4       ?set_flags@__crt_stdio_stream@@QBE_NJ@Z 10066ca4 f i libucrt:_sftbuf.obj
 0001:00065cc8       ?unset_flags@__crt_stdio_stream@@QBE_NJ@Z 10066cc8 f i libucrt:_sftbuf.obj
 0001:00065cf1       ___acrt_should_use_temporary_buffer 10066cf1 f   libucrt:_sftbuf.obj
 0001:00065d2c       ___acrt_stdio_begin_temporary_buffering_nolock 10066d2c f   libucrt:_sftbuf.obj
 0001:00065dd8       ___acrt_stdio_end_temporary_buffering_nolock 10066dd8 f   libucrt:_sftbuf.obj
 0001:00065e15       ??$?RU__crt_locale_data@@@__crt_internal_free_policy@@QBEXQBU__crt_locale_data@@@Z 10066e15 f i libucrt:wsetlocale.obj
 0001:00065e27       ??$?RU__crt_locale_pointers@@@__crt_internal_free_policy@@QBEXQBU__crt_locale_pointers@@@Z 10066e27 f i libucrt:wsetlocale.obj
 0001:00065e39       ??$?RU__crt_multibyte_data@@@__crt_internal_free_policy@@QBEXQBU__crt_multibyte_data@@@Z 10066e39 f i libucrt:wsetlocale.obj
 0001:000661e2       ??0?$__crt_unique_heap_ptr@U__crt_locale_data@@U__crt_internal_free_policy@@@@QAE@QAU__crt_locale_data@@@Z 100671e2 f i libucrt:wsetlocale.obj
 0001:000661f2       ??0?$__crt_unique_heap_ptr@U__crt_locale_pointers@@U__crt_internal_free_policy@@@@QAE@QAU__crt_locale_pointers@@@Z 100671f2 f i libucrt:wsetlocale.obj
 0001:00066202       ??0?$__crt_unique_heap_ptr@U__crt_multibyte_data@@U__crt_internal_free_policy@@@@QAE@QAU__crt_multibyte_data@@@Z 10067202 f i libucrt:wsetlocale.obj
 0001:00066212       ??0_expandlocale_locale_name_cache@@QAE@QA_WIQAU__crt_qualified_locale_data@@@Z 10067212 f i libucrt:wsetlocale.obj
 0001:0006625c       ??1?$__crt_unique_heap_ptr@U__crt_locale_data@@U__crt_internal_free_policy@@@@QAE@XZ 1006725c f i libucrt:wsetlocale.obj
 0001:0006626e       ??1?$__crt_unique_heap_ptr@U__crt_locale_pointers@@U__crt_internal_free_policy@@@@QAE@XZ 1006726e f i libucrt:wsetlocale.obj
 0001:00066280       ??1?$__crt_unique_heap_ptr@U__crt_multibyte_data@@U__crt_internal_free_policy@@@@QAE@XZ 10067280 f i libucrt:wsetlocale.obj
 0001:00066292       ??1_expandlocale_locale_name_cache@@QAE@XZ 10067292 f i libucrt:wsetlocale.obj
 0001:000662c2       ??B?$__crt_unique_heap_ptr@U__crt_locale_data@@U__crt_internal_free_policy@@@@QBE_NXZ 100672c2 f i libucrt:wsetlocale.obj
 0001:000662c9       ??B?$__crt_unique_heap_ptr@U__crt_locale_pointers@@U__crt_internal_free_policy@@@@QBE_NXZ 100672c9 f i libucrt:wsetlocale.obj
 0001:000662d0       ??B?$__crt_unique_heap_ptr@U__crt_multibyte_data@@U__crt_internal_free_policy@@@@QBE_NXZ 100672d0 f i libucrt:wsetlocale.obj
 0001:000664f0       ?commit_locale_name@_expandlocale_locale_name_cache@@QAEXQB_WI@Z 100674f0 f i libucrt:wsetlocale.obj
 0001:00066534       ?commit_locale_name_cache_already_updated@_expandlocale_locale_name_cache@@QAEXQB_WI@Z 10067534 f i libucrt:wsetlocale.obj
 0001:00066569       ?detach@?$__crt_unique_heap_ptr@U__crt_locale_data@@U__crt_internal_free_policy@@@@QAEPAU__crt_locale_data@@XZ 10067569 f i libucrt:wsetlocale.obj
 0001:0006656f       ?detach@?$__crt_unique_heap_ptr@U__crt_locale_pointers@@U__crt_internal_free_policy@@@@QAEPAU__crt_locale_pointers@@XZ 1006756f f i libucrt:wsetlocale.obj
 0001:00066575       ?detach@?$__crt_unique_heap_ptr@U__crt_multibyte_data@@U__crt_internal_free_policy@@@@QAEPAU__crt_multibyte_data@@XZ 10067575 f i libucrt:wsetlocale.obj
 0001:0006657b       ?get@?$__crt_unique_heap_ptr@U__crt_locale_data@@U__crt_internal_free_policy@@@@QBEPAU__crt_locale_data@@XZ 1006757b f i libucrt:wsetlocale.obj
 0001:0006657e       ?get@?$__crt_unique_heap_ptr@U__crt_locale_pointers@@U__crt_internal_free_policy@@@@QBEPAU__crt_locale_pointers@@XZ 1006757e f i libucrt:wsetlocale.obj
 0001:00066581       ?get@?$__crt_unique_heap_ptr@U__crt_multibyte_data@@U__crt_internal_free_policy@@@@QBEPAU__crt_multibyte_data@@XZ 10067581 f i libucrt:wsetlocale.obj
 0001:00066584       ?is_valid@?$__crt_unique_heap_ptr@U__crt_locale_data@@U__crt_internal_free_policy@@@@QBE_NXZ 10067584 f i libucrt:wsetlocale.obj
 0001:0006658b       ?is_valid@?$__crt_unique_heap_ptr@U__crt_locale_pointers@@U__crt_internal_free_policy@@@@QBE_NXZ 1006758b f i libucrt:wsetlocale.obj
 0001:00066592       ?is_valid@?$__crt_unique_heap_ptr@U__crt_multibyte_data@@U__crt_internal_free_policy@@@@QBE_NXZ 10067592 f i libucrt:wsetlocale.obj
 0001:00066599       ?release@?$__crt_unique_heap_ptr@U__crt_locale_data@@U__crt_internal_free_policy@@@@QAEXXZ 10067599 f i libucrt:wsetlocale.obj
 0001:000665ab       ?release@?$__crt_unique_heap_ptr@U__crt_locale_pointers@@U__crt_internal_free_policy@@@@QAEXXZ 100675ab f i libucrt:wsetlocale.obj
 0001:000665bd       ?release@?$__crt_unique_heap_ptr@U__crt_multibyte_data@@U__crt_internal_free_policy@@@@QAEXXZ 100675bd f i libucrt:wsetlocale.obj
 0001:000665cf       ___acrt_copy_locale_name   100675cf f   libucrt:wsetlocale.obj
 0001:0006662f       ___acrt_set_locale_changed 1006762f f   libucrt:wsetlocale.obj
 0001:0006663a       ___acrt_uninitialize_locale 1006763a f   libucrt:wsetlocale.obj
 0001:00066661       ___ascii_towlower          10067661 f i libucrt:wsetlocale.obj
 0001:00066678       ___lc_lctowcs              10067678 f   libucrt:wsetlocale.obj
 0001:000666e8       ___lc_wcstolc              100676e8 f   libucrt:wsetlocale.obj
 0001:00066838       __configthreadlocale       10067838 f   libucrt:wsetlocale.obj
 0001:000668c9       __create_locale            100678c9 f   libucrt:wsetlocale.obj
 0001:00066cf3       __free_locale              10067cf3 f   libucrt:wsetlocale.obj
 0001:00066db5       __get_current_locale       10067db5 f   libucrt:wsetlocale.obj
 0001:00066e50       __wcreate_locale           10067e50 f   libucrt:wsetlocale.obj
 0001:00066f57       __wcscats                  10067f57 f   libucrt:wsetlocale.obj
 0001:00066f98       __wsetlocale               10067f98 f   libucrt:wsetlocale.obj
 0001:00067cfd       ___p___mb_cur_max          10068cfd f   libucrt:nlsdata.obj
 0001:00067eae       ___acrt_initialize_lowio   10068eae f   libucrt:ioinit.obj
 0001:00067f0e       ___acrt_uninitialize_lowio 10068f0e f   libucrt:ioinit.obj
 0001:00067f3a       ??0?$__crt_scoped_stack_ptr@_W@@QAE@U?$__crt_scoped_stack_ptr_tag@_W@@@Z 10068f3a f i libucrt:lcmapstringa.obj
 0001:00067f4a       ??0?$__crt_scoped_stack_ptr_tag@_W@@QAE@QA_W@Z 10068f4a f i libucrt:lcmapstringa.obj
 0001:00067f5a       ??1?$__crt_scoped_stack_ptr@_W@@QAE@XZ 10068f5a f i libucrt:lcmapstringa.obj
 0001:00067f63       ??B?$__crt_scoped_stack_ptr@_W@@QBE_NXZ 10068f63 f i libucrt:lcmapstringa.obj
 0001:00068154       ?get@?$__crt_scoped_stack_ptr@_W@@QBEPA_WXZ 10069154 f i libucrt:lcmapstringa.obj
 0001:00068157       ___acrt_LCMapStringA       10069157 f   libucrt:lcmapstringa.obj
 0001:000681a0       ?dangerous_get_state_array@?$dual_state_global@PAPAD@__crt_state_management@@QAEPAPAPADXZ 100691a0 f i libucrt:timeset.obj
 0001:000681a3       ?dangerous_get_state_array@?$dual_state_global@PAPA_W@__crt_state_management@@QAEPAPAPA_WXZ 100691a3 f i libucrt:timeset.obj
 0001:000681a6       ?initialize@?$dual_state_global@H@__crt_state_management@@QAEXH@Z 100691a6 f i libucrt:timeset.obj
 0001:000681cc       ?initialize@?$dual_state_global@J@__crt_state_management@@QAEXJ@Z 100691cc f i libucrt:timeset.obj
 0001:000681f2       ?value@?$dual_state_global@H@__crt_state_management@@QAEAAHXZ 100691f2 f i libucrt:timeset.obj
 0001:000681f5       ?value@?$dual_state_global@J@__crt_state_management@@QAEAAJXZ 100691f5 f i libucrt:timeset.obj
 0001:000681f8       ___acrt_initialize_timeset 100691f8 f   libucrt:timeset.obj
 0001:0006822d       ___daylight                1006922d f   libucrt:timeset.obj
 0001:00068233       ___dstbias                 10069233 f   libucrt:timeset.obj
 0001:00068239       ___timezone                10069239 f   libucrt:timeset.obj
 0001:0006823f       ___tzname                  1006923f f   libucrt:timeset.obj
 0001:00068245       ___wide_tzname             10069245 f   libucrt:timeset.obj
 0001:0006824b       __get_daylight             1006924b f   libucrt:timeset.obj
 0001:00068277       __get_dstbias              10069277 f   libucrt:timeset.obj
 0001:000682a3       __get_timezone             100692a3 f   libucrt:timeset.obj
 0001:000682cf       __get_tzname               100692cf f   libucrt:timeset.obj
 0001:00068380       ??$?RUtm@@@__crt_internal_free_policy@@QBEXQBUtm@@@Z 10069380 f i libucrt:gmtime.obj
 0001:00068392       ??$__crt_time_elapsed_leap_years@H@@YAHH@Z 10069392 f i libucrt:gmtime.obj
 0001:000683cc       ??$__crt_time_is_leap_year@H@@YA_NH@Z 100693cc f i libucrt:gmtime.obj
 0001:000686ae       ??0?$__crt_unique_heap_ptr@Utm@@U__crt_internal_free_policy@@@@QAE@QAUtm@@@Z 100696ae f i libucrt:gmtime.obj
 0001:000686be       ??1?$__crt_unique_heap_ptr@Utm@@U__crt_internal_free_policy@@@@QAE@XZ 100696be f i libucrt:gmtime.obj
 0001:000687eb       ?detach@?$__crt_unique_heap_ptr@Utm@@U__crt_internal_free_policy@@@@QAEPAUtm@@XZ 100697eb f i libucrt:gmtime.obj
 0001:000687f1       ?release@?$__crt_unique_heap_ptr@Utm@@U__crt_internal_free_policy@@@@QAEXXZ 100697f1 f i libucrt:gmtime.obj
 0001:00068803       ___getgmtimebuf            10069803 f   libucrt:gmtime.obj
 0001:00068841       __gmtime32                 10069841 f   libucrt:gmtime.obj
 0001:00068868       __gmtime32_s               10069868 f   libucrt:gmtime.obj
 0001:00068873       __gmtime64                 10069873 f   libucrt:gmtime.obj
 0001:0006889a       __gmtime64_s               1006989a f   libucrt:gmtime.obj
 0001:000688a5       ?__acrt_get_utf8_acp_compatibility_codepage@@YAIXZ 100698a5 f i libucrt:tzset.obj
 0001:00068afe       ?_set_daylight@@YAXH@Z     10069afe f i libucrt:tzset.obj
 0001:00068b0f       ?_set_dstbias@@YAXJ@Z      10069b0f f i libucrt:tzset.obj
 0001:00068b20       ?_set_timezone@@YAXJ@Z     10069b20 f i libucrt:tzset.obj
 0001:00068c71       ?dangerous_get_state_array@?$dual_state_global@J@__crt_state_management@@QAEPAJXZ 10069c71 f i libucrt:tzset.obj
 0001:0006924e       ___tzset                   1006a24e f   libucrt:tzset.obj
 0001:000692ab       __isindst                  1006a2ab f   libucrt:tzset.obj
 0001:000692ff       __tzset                    1006a2ff f   libucrt:tzset.obj
 0001:000693a9       ___acrt_MultiByteToWideChar 1006a3a9 f   libucrt:multibytetowidechar.obj
 0001:0006948a       ___acrt_WideCharToMultiByte 1006a48a f   libucrt:widechartomultibyte.obj
 0001:00069541       ?__crt_get_2digit_year@@YAHH@Z 1006a541 f i libucrt:wcsftime.obj
 0001:00069558       ?__crt_get_century@@YAHH@Z 1006a558 f i libucrt:wcsftime.obj
 0001:0006a5d0       __W_Getdays                1006b5d0 f   libucrt:wcsftime.obj
 0001:0006a72f       __W_Getmonths              1006b72f f   libucrt:wcsftime.obj
 0001:0006a88e       __W_Gettnames              1006b88e f   libucrt:wcsftime.obj
 0001:0006af8a       __Wcsftime                 1006bf8a f   libucrt:wcsftime.obj
 0001:0006afaa       __Wcsftime_l               1006bfaa f   libucrt:wcsftime.obj
 0001:0006b11b       __wcsftime_l               1006c11b f   libucrt:wcsftime.obj
 0001:0006b13b       _wcsftime                  1006c13b f   libucrt:wcsftime.obj
 0001:0006b167       ??$?B$$A6GHPA_WKJ@Z@__crt_fast_encoded_nullptr_t@@QBEP6GHPA_WKJ@ZXZ 1006c167 f i libucrt:winapi_thunks.obj
 0001:0006b20f       ??$__crt_fast_decode_pointer@P6GHPA_WKJ@Z@@YAP6GHPA_WKJ@ZQ6GH0KJ@Z@Z 1006c20f f i libucrt:winapi_thunks.obj
 0001:0006b225       ??$__crt_fast_decode_pointer@PAX@@YAPAXQAX@Z 1006c225 f i libucrt:winapi_thunks.obj
 0001:0006b23b       ??$__crt_fast_encode_pointer@P6GHPA_WKJ@Z@@YAP6GHPA_WKJ@ZQ6GH0KJ@Z@Z 1006c23b f i libucrt:winapi_thunks.obj
 0001:0006b8c7       _GetCurrentThreadEffectiveToken 1006c8c7 f i libucrt:winapi_thunks.obj
 0001:0006b8cb       ___acrt_AppPolicyGetProcessTerminationMethodInternal@4 1006c8cb f   libucrt:winapi_thunks.obj
 0001:0006b90b       ___acrt_AppPolicyGetShowDeveloperDiagnosticInternal@4 1006c90b f   libucrt:winapi_thunks.obj
 0001:0006b94b       ___acrt_AppPolicyGetThreadInitializationTypeInternal@4 1006c94b f   libucrt:winapi_thunks.obj
 0001:0006b98b       ___acrt_AppPolicyGetWindowingModelInternal@4 1006c98b f   libucrt:winapi_thunks.obj
 0001:0006b9cb       ___acrt_AreFileApisANSI@0  1006c9cb f   libucrt:winapi_thunks.obj
 0001:0006b9ea       ___acrt_CompareStringEx@36 1006c9ea f   libucrt:winapi_thunks.obj
 0001:0006ba47       ___acrt_EnumSystemLocalesEx@16 1006ca47 f   libucrt:winapi_thunks.obj
 0001:0006ba9b       ___acrt_FlsAlloc@4         1006ca9b f   libucrt:winapi_thunks.obj
 0001:0006bada       ___acrt_FlsFree@4          1006cada f   libucrt:winapi_thunks.obj
 0001:0006bb19       ___acrt_FlsGetValue@4      1006cb19 f   libucrt:winapi_thunks.obj
 0001:0006bb58       ___acrt_FlsSetValue@8      1006cb58 f   libucrt:winapi_thunks.obj
 0001:0006bb9a       ___acrt_GetDateFormatEx@28 1006cb9a f   libucrt:winapi_thunks.obj
 0001:0006bbf1       ___acrt_GetEnabledXStateFeatures@0 1006cbf1 f   libucrt:winapi_thunks.obj
 0001:0006bc25       ___acrt_GetLocaleInfoEx@16 1006cc25 f   libucrt:winapi_thunks.obj
 0001:0006bc64       ___acrt_GetSystemTimePreciseAsFileTime@4 1006cc64 f   libucrt:winapi_thunks.obj
 0001:0006bca3       ___acrt_GetTimeFormatEx@24 1006cca3 f   libucrt:winapi_thunks.obj
 0001:0006bce8       ___acrt_GetUserDefaultLocaleName@8 1006cce8 f   libucrt:winapi_thunks.obj
 0001:0006bd24       ___acrt_GetXStateFeaturesMask@8 1006cd24 f   libucrt:winapi_thunks.obj
 0001:0006bd64       ___acrt_InitializeCriticalSectionEx@12 1006cd64 f   libucrt:winapi_thunks.obj
 0001:0006bdaf       ___acrt_IsValidLocaleName@4 1006cdaf f   libucrt:winapi_thunks.obj
 0001:0006bde7       ___acrt_LCIDToLocaleName@16 1006cde7 f   libucrt:winapi_thunks.obj
 0001:0006be26       ___acrt_LCMapStringEx@36   1006ce26 f   libucrt:winapi_thunks.obj
 0001:0006be83       ___acrt_LocaleNameToLCID@8 1006ce83 f   libucrt:winapi_thunks.obj
 0001:0006beb4       ___acrt_LocateXStateFeature@12 1006ceb4 f   libucrt:winapi_thunks.obj
 0001:0006bee3       ___acrt_MessageBoxA@16     1006cee3 f   libucrt:winapi_thunks.obj
 0001:0006bf15       ___acrt_MessageBoxW@16     1006cf15 f   libucrt:winapi_thunks.obj
 0001:0006bf47       ___acrt_RoInitialize@4     1006cf47 f   libucrt:winapi_thunks.obj
 0001:0006bf82       ___acrt_RoUninitialize@0   1006cf82 f   libucrt:winapi_thunks.obj
 0001:0006bfb0       ___acrt_RtlGenRandom@8     1006cfb0 f   libucrt:winapi_thunks.obj
 0001:0006bff0       ___acrt_SetThreadStackGuarantee@4 1006cff0 f   libucrt:winapi_thunks.obj
 0001:0006c02b       ___acrt_can_show_message_box 1006d02b f   libucrt:winapi_thunks.obj
 0001:0006c052       ___acrt_can_use_vista_locale_apis 1006d052 f   libucrt:winapi_thunks.obj
 0001:0006c05d       ___acrt_can_use_xstate_apis 1006d05d f   libucrt:winapi_thunks.obj
 0001:0006c068       ___acrt_eagerly_load_locale_apis 1006d068 f   libucrt:winapi_thunks.obj
 0001:0006c09f       ___acrt_get_parent_window  1006d09f f   libucrt:winapi_thunks.obj
 0001:0006c107       ___acrt_initialize_winapi_thunks 1006d107 f   libucrt:winapi_thunks.obj
 0001:0006c132       ___acrt_is_interactive     1006d132 f   libucrt:winapi_thunks.obj
 0001:0006c1d1       ___acrt_uninitialize_winapi_thunks 1006d1d1 f   libucrt:winapi_thunks.obj
 0001:0006c207       ___pctype_func             1006d207 f   libucrt:ctype.obj
 0001:0006c22b       ___pwctype_func            1006d22b f   libucrt:ctype.obj
 0001:0006c231       __iswctype_l               1006d231 f   libucrt:iswctype.obj
 0001:0006c245       _iswctype                  1006d245 f   libucrt:iswctype.obj
 0001:0006c2ae       __isctype                  1006d2ae f   libucrt:isctype.obj
 0001:0006c2e1       __isctype_l                1006d2e1 f   libucrt:isctype.obj
 0001:0006c3ac       __isleadbyte_fast_internal 1006d3ac f i libucrt:isctype.obj
 0001:0006c495       _wcsncpy_s                 1006d495 f   libucrt:wcsncpy_s.obj
 0001:0006c553       _strncpy_s                 1006d553 f   libucrt:strncpy_s.obj
 0001:0006c5b5       __ismbbalnum               1006d5b5 f   libucrt:ismbbyte.obj
 0001:0006c5d0       __ismbbalnum_l             1006d5d0 f   libucrt:ismbbyte.obj
 0001:0006c5ec       __ismbbalpha               1006d5ec f   libucrt:ismbbyte.obj
 0001:0006c607       __ismbbalpha_l             1006d607 f   libucrt:ismbbyte.obj
 0001:0006c623       __ismbbblank               1006d623 f   libucrt:ismbbyte.obj
 0001:0006c646       __ismbbblank_l             1006d646 f   libucrt:ismbbyte.obj
 0001:0006c66a       __ismbbgraph               1006d66a f   libucrt:ismbbyte.obj
 0001:0006c685       __ismbbgraph_l             1006d685 f   libucrt:ismbbyte.obj
 0001:0006c6a1       __ismbbkalnum              1006d6a1 f   libucrt:ismbbyte.obj
 0001:0006c6b9       __ismbbkalnum_l            1006d6b9 f   libucrt:ismbbyte.obj
 0001:0006c6d2       __ismbbkana                1006d6d2 f   libucrt:ismbbyte.obj
 0001:0006c6e5       __ismbbkana_l              1006d6e5 f   libucrt:ismbbyte.obj
 0001:0006c734       __ismbbkprint              1006d734 f   libucrt:ismbbyte.obj
 0001:0006c74c       __ismbbkprint_l            1006d74c f   libucrt:ismbbyte.obj
 0001:0006c765       __ismbbkpunct              1006d765 f   libucrt:ismbbyte.obj
 0001:0006c77d       __ismbbkpunct_l            1006d77d f   libucrt:ismbbyte.obj
 0001:0006c796       __ismbblead                1006d796 f   libucrt:ismbbyte.obj
 0001:0006c7ae       __ismbblead_l              1006d7ae f   libucrt:ismbbyte.obj
 0001:0006c7c7       __ismbbprint               1006d7c7 f   libucrt:ismbbyte.obj
 0001:0006c7e2       __ismbbprint_l             1006d7e2 f   libucrt:ismbbyte.obj
 0001:0006c7fe       __ismbbpunct               1006d7fe f   libucrt:ismbbyte.obj
 0001:0006c816       __ismbbpunct_l             1006d816 f   libucrt:ismbbyte.obj
 0001:0006c82f       __ismbbtrail               1006d82f f   libucrt:ismbbyte.obj
 0001:0006c847       __ismbbtrail_l             1006d847 f   libucrt:ismbbyte.obj
 0001:0006c860       ___acrt_initialize_sse2    1006d860 f   libucrt:mathfcns.obj
 0001:0006c870       __set_SSE2_enable          1006d870 f   libucrt:mathfcns.obj
 0001:0006c8a0       __CIcos                    1006d8a0 f   libucrt:cos_impl.obj
 0001:0006c8db       __CIcos_default            1006d8db f   libucrt:cos_impl.obj
 0001:0006c8ef       __cos_default              1006d8ef     libucrt:cos_impl.obj
 0001:0006c990       __CIcos_pentium4           1006d990 f   libucrt:cos_pentium4.obj
 0001:0006c9a8       __cos_pentium4             1006d9a8     libucrt:cos_pentium4.obj
 0001:0006cb40       __CIsin                    1006db40 f   libucrt:sin_impl.obj
 0001:0006cb7b       __CIsin_default            1006db7b f   libucrt:sin_impl.obj
 0001:0006cb8f       __sin_default              1006db8f     libucrt:sin_impl.obj
 0001:0006cc30       __CIsin_pentium4           1006dc30 f   libucrt:sin_pentium4.obj
 0001:0006cc48       __sin_pentium4             1006dc48     libucrt:sin_pentium4.obj
 0001:0006cdf8       ___acrt_initialize_locks   1006ddf8 f   libucrt:locks.obj
 0001:0006ce39       ___acrt_lock               1006de39 f   libucrt:locks.obj
 0001:0006ce50       ___acrt_uninitialize_locks 1006de50 f   libucrt:locks.obj
 0001:0006ce81       ___acrt_unlock             1006de81 f   libucrt:locks.obj
 0001:0006ce98       __lock_locales             1006de98 f   libucrt:locks.obj
 0001:0006cea6       __unlock_locales           1006dea6 f   libucrt:locks.obj
 0001:0006ceaf       ??$__crt_fast_decode_pointer@P6AHPAU_exception@@@Z@@YAP6AHPAU_exception@@@ZQ6AH0@Z@Z 1006deaf f i libucrt:matherr.obj
 0001:0006cec5       ??$__crt_fast_encode_pointer@P6AHPAU_exception@@@Z@@YAP6AHPAU_exception@@@ZQ6AH0@Z@Z 1006dec5 f i libucrt:matherr.obj
